; ModuleID = 'probe_tle.cc5d9553-cgu.0'
source_filename = "probe_tle.cc5d9553-cgu.0"
target datalayout = "e-m:e-p270:32:32-p271:32:32-p272:64:64-i64:64-f80:128-n8:16:32:64-S128"
target triple = "x86_64-unknown-linux-gnu"

%"core::sync::atomic::AtomicUsize" = type { i64 }
%"alloc::vec::into_iter::IntoIter<&str>" = type { %"core::marker::PhantomData<&str>", %"alloc::alloc::Global", i64*, i64, { [0 x i8]*, i64 }*, { [0 x i8]*, i64 }* }
%"core::marker::PhantomData<&str>" = type {}
%"alloc::alloc::Global" = type {}
%"core::panic::location::Location" = type { { [0 x i8]*, i64 }, i32, i32 }
%"core::option::Option<usize>::Some" = type { [1 x i64], i64 }
%"core::iter::adapters::filter::Filter<core::str::iter::Split<core::str::IsWhitespace>, core::str::IsNotEmpty>" = type { %"core::str::IsNotEmpty", %"core::str::iter::Split<core::str::IsWhitespace>" }
%"core::str::IsNotEmpty" = type {}
%"core::str::iter::Split<core::str::IsWhitespace>" = type { %"core::str::iter::SplitInternal<core::str::IsWhitespace>" }
%"core::str::iter::SplitInternal<core::str::IsWhitespace>" = type { i64, i64, %"core::str::pattern::CharPredicateSearcher<core::str::IsWhitespace>", i8, i8, [6 x i8] }
%"core::str::pattern::CharPredicateSearcher<core::str::IsWhitespace>" = type { %"core::str::pattern::MultiCharEqSearcher<core::str::IsWhitespace>" }
%"core::str::pattern::MultiCharEqSearcher<core::str::IsWhitespace>" = type { %"core::str::IsWhitespace", { [0 x i8]*, i64 }, %"core::str::iter::CharIndices" }
%"core::str::IsWhitespace" = type {}
%"core::str::iter::CharIndices" = type { i64, { i8*, i8* } }
%"alloc::vec::Vec<&str>" = type { { i64*, i64 }, i64 }
%"core::str::iter::SplitWhitespace" = type { %"core::iter::adapters::filter::Filter<core::str::iter::Split<core::str::IsWhitespace>, core::str::IsNotEmpty>" }
%"core::result::Result<(), alloc::collections::TryReserveError>" = type { i64, [2 x i64] }
%"core::result::Result<(), alloc::collections::TryReserveError>::Err" = type { [1 x i64], { i64, i64 } }
%"core::result::Result<(), std::thread::local::AccessError>::Err" = type { [1 x i8], %"std::thread::local::AccessError" }
%"std::thread::local::AccessError" = type {}
%"core::result::Result<core::alloc::layout::Layout, core::alloc::layout::LayoutError>::Err" = type { %"core::alloc::layout::LayoutError" }
%"core::alloc::layout::LayoutError" = type {}
%"core::result::Result<core::ptr::non_null::NonNull<[u8]>, core::alloc::AllocError>::Err" = type { %"core::alloc::AllocError" }
%"core::alloc::AllocError" = type {}
%"core::result::Result<(core::alloc::layout::Layout, usize), core::alloc::layout::LayoutError>" = type { [1 x i64], i64, [1 x i64] }
%"core::result::Result<(core::alloc::layout::Layout, usize), core::alloc::layout::LayoutError>::Err" = type { %"core::alloc::layout::LayoutError" }
%"core::result::Result<core::ptr::non_null::NonNull<[u8]>, alloc::collections::TryReserveError>" = type { i64, [2 x i64] }
%"core::result::Result<core::ptr::non_null::NonNull<[u8]>, alloc::collections::TryReserveError>::Err" = type { [1 x i64], { i64, i64 } }
%"std::sys::unix::mutex::Mutex" = type { %"core::cell::UnsafeCell<libc::unix::linux_like::linux::pthread_mutex_t>" }
%"core::cell::UnsafeCell<libc::unix::linux_like::linux::pthread_mutex_t>" = type { %"libc::unix::linux_like::linux::pthread_mutex_t" }
%"libc::unix::linux_like::linux::pthread_mutex_t" = type { [40 x i8] }
%"std::sys::unix::rwlock::RWLock" = type { %"core::cell::UnsafeCell<libc::unix::linux_like::linux::pthread_rwlock_t>", %"core::sync::atomic::AtomicUsize", i8, [7 x i8] }
%"core::cell::UnsafeCell<libc::unix::linux_like::linux::pthread_rwlock_t>" = type { %"libc::unix::linux_like::linux::pthread_rwlock_t" }
%"libc::unix::linux_like::linux::pthread_rwlock_t" = type { [56 x i8] }
%"std::sys_common::condvar::Condvar" = type { %"std::sys::unix::condvar::Condvar"*, %"std::sys_common::condvar::check::SameMutexCheck" }
%"std::sys::unix::condvar::Condvar" = type { %"core::cell::UnsafeCell<libc::unix::linux_like::linux::pthread_cond_t>" }
%"core::cell::UnsafeCell<libc::unix::linux_like::linux::pthread_cond_t>" = type { %"libc::unix::linux_like::linux::pthread_cond_t" }
%"libc::unix::linux_like::linux::pthread_cond_t" = type { [48 x i8] }
%"std::sys_common::condvar::check::SameMutexCheck" = type { %"core::sync::atomic::AtomicUsize" }
%"[closure@std::panicking::begin_panic<&str>::{closure#0}]" = type { { [0 x i8]*, i64 }, %"core::panic::location::Location"* }
%"core::result::Result<std::fs::File, std::io::error::Error>" = type { i32, [5 x i32] }
%"std::fs::OpenOptions" = type { %"std::sys::unix::fs::OpenOptions" }
%"std::sys::unix::fs::OpenOptions" = type { i32, i32, i8, i8, i8, i8, i8, i8, [2 x i8] }
%"std::path::Path" = type { %"std::ffi::os_str::OsStr" }
%"std::ffi::os_str::OsStr" = type { %"std::sys::unix::os_str::Slice" }
%"std::sys::unix::os_str::Slice" = type { [0 x i8] }
%"std::io::error::Error" = type { %"std::io::error::Repr" }
%"std::io::error::Repr" = type { i8, [15 x i8] }
%"core::result::Result<usize, std::io::error::Error>" = type { i64, [2 x i64] }
%"core::result::Result<(), std::io::error::Error>" = type { i8, [15 x i8] }
%"core::result::Result<usize, std::io::error::Error>::Ok" = type { [1 x i64], i64 }
%"core::result::Result<usize, std::io::error::Error>::Err" = type { [1 x i64], %"std::io::error::Error" }
%"core::result::Result<(), std::io::error::Error>::Err" = type { %"std::io::error::Error" }
%"core::fmt::Arguments" = type { { [0 x { [0 x i8]*, i64 }]*, i64 }, { i64*, i64 }, { [0 x { i8*, i64* }]*, i64 } }
%"std::io::Write::write_fmt::Adapter<std::fs::File>" = type { i32*, %"core::result::Result<(), std::io::error::Error>" }
%"std::io::error::Repr::Os" = type { [1 x i32], i32 }
%"std::io::error::Repr::Simple" = type { [1 x i8], i8 }
%"std::io::error::Repr::SimpleMessage" = type { [1 x i8], i8, [6 x i8], { [0 x i8]*, i64 }* }
%"std::io::error::Repr::Custom" = type { [1 x i64], %"std::io::error::Custom"* }
%"std::io::error::Custom" = type { { {}*, [3 x i64]* }, i8, [7 x i8] }
%"std::sync::mutex::Mutex<i32>" = type { i64*, %"std::sync::poison::Flag", [3 x i8], i32 }
%"std::sync::poison::Flag" = type { %"core::sync::atomic::AtomicBool" }
%"core::sync::atomic::AtomicBool" = type { i8 }
%"std::sync::mutex::Mutex<()>" = type { i64*, %"std::sync::poison::Flag", %"core::cell::UnsafeCell<()>", [7 x i8] }
%"core::cell::UnsafeCell<()>" = type { {} }
%"std::sync::mutex::Mutex<std::fs::File>" = type { i64*, %"std::sync::poison::Flag", [3 x i8], i32 }
%"std::sync::mutex::Mutex<alloc::collections::vec_deque::VecDeque<i32>>" = type { i64*, %"std::sync::poison::Flag", [7 x i8], %"core::cell::UnsafeCell<alloc::collections::vec_deque::VecDeque<i32>>" }
%"core::cell::UnsafeCell<alloc::collections::vec_deque::VecDeque<i32>>" = type { %"alloc::collections::vec_deque::VecDeque<i32>" }
%"alloc::collections::vec_deque::VecDeque<i32>" = type { i64, i64, { i32*, i64 } }
%"core::result::Result<std::sync::mutex::MutexGuard<std::fs::File>, std::sync::poison::PoisonError<std::sync::mutex::MutexGuard<std::fs::File>>>" = type { i64, [2 x i64] }
%"core::result::Result<std::sync::mutex::MutexGuard<()>, std::sync::poison::PoisonError<std::sync::mutex::MutexGuard<()>>>" = type { i64, [2 x i64] }
%"core::result::Result<std::sync::mutex::MutexGuard<alloc::collections::vec_deque::VecDeque<i32>>, std::sync::poison::PoisonError<std::sync::mutex::MutexGuard<alloc::collections::vec_deque::VecDeque<i32>>>>" = type { i64, [2 x i64] }
%"core::result::Result<std::sync::mutex::MutexGuard<i32>, std::sync::poison::PoisonError<std::sync::mutex::MutexGuard<i32>>>" = type { i64, [2 x i64] }
%"core::result::Result<std::sync::rwlock::RwLockWriteGuard<i32>, std::sync::poison::PoisonError<std::sync::rwlock::RwLockWriteGuard<i32>>>" = type { i64, [2 x i64] }
%"core::result::Result<std::sync::poison::Guard, std::sync::poison::PoisonError<std::sync::poison::Guard>>::Ok" = type { [1 x i8], i8 }
%"core::result::Result<std::sync::poison::Guard, std::sync::poison::PoisonError<std::sync::poison::Guard>>::Err" = type { [1 x i8], i8 }
%"core::result::Result<std::sync::rwlock::RwLockWriteGuard<i32>, std::sync::poison::PoisonError<std::sync::rwlock::RwLockWriteGuard<i32>>>::Err" = type { [1 x i64], { i64*, i8 } }
%"core::result::Result<std::sync::rwlock::RwLockWriteGuard<i32>, std::sync::poison::PoisonError<std::sync::rwlock::RwLockWriteGuard<i32>>>::Ok" = type { [1 x i64], { i64*, i8 } }
%"core::result::Result<std::sync::mutex::MutexGuard<alloc::collections::vec_deque::VecDeque<i32>>, std::sync::poison::PoisonError<std::sync::mutex::MutexGuard<alloc::collections::vec_deque::VecDeque<i32>>>>::Err" = type { [1 x i64], { i64*, i8 } }
%"core::result::Result<std::sync::mutex::MutexGuard<alloc::collections::vec_deque::VecDeque<i32>>, std::sync::poison::PoisonError<std::sync::mutex::MutexGuard<alloc::collections::vec_deque::VecDeque<i32>>>>::Ok" = type { [1 x i64], { i64*, i8 } }
%"core::result::Result<std::sync::mutex::MutexGuard<()>, std::sync::poison::PoisonError<std::sync::mutex::MutexGuard<()>>>::Err" = type { [1 x i64], { i64*, i8 } }
%"core::result::Result<std::sync::mutex::MutexGuard<()>, std::sync::poison::PoisonError<std::sync::mutex::MutexGuard<()>>>::Ok" = type { [1 x i64], { i64*, i8 } }
%"core::result::Result<std::sync::mutex::MutexGuard<std::fs::File>, std::sync::poison::PoisonError<std::sync::mutex::MutexGuard<std::fs::File>>>::Err" = type { [1 x i64], { i64*, i8 } }
%"core::result::Result<std::sync::mutex::MutexGuard<std::fs::File>, std::sync::poison::PoisonError<std::sync::mutex::MutexGuard<std::fs::File>>>::Ok" = type { [1 x i64], { i64*, i8 } }
%"core::result::Result<std::sync::mutex::MutexGuard<i32>, std::sync::poison::PoisonError<std::sync::mutex::MutexGuard<i32>>>::Err" = type { [1 x i64], { i64*, i8 } }
%"core::result::Result<std::sync::mutex::MutexGuard<i32>, std::sync::poison::PoisonError<std::sync::mutex::MutexGuard<i32>>>::Ok" = type { [1 x i64], { i64*, i8 } }
%"core::result::Result<std::sync::rwlock::RwLockReadGuard<i32>, std::sync::poison::PoisonError<std::sync::rwlock::RwLockReadGuard<i32>>>::Err" = type { [1 x i64], i64* }
%"core::result::Result<std::sync::rwlock::RwLockReadGuard<i32>, std::sync::poison::PoisonError<std::sync::rwlock::RwLockReadGuard<i32>>>::Ok" = type { [1 x i64], i64* }
%"std::sync::rwlock::RwLock<i32>" = type { i64*, %"std::sync::poison::Flag", [3 x i8], i32 }
%"std::sync::condvar::Condvar" = type { %"std::sys_common::condvar::Condvar" }
%"[closure@./probe/probe_tle.rs:116:27: 126:14]" = type { %"core::cell::RefCell<alloc::string::String>"**, i32*, i32* }
%"core::cell::RefCell<alloc::string::String>" = type { i64, %"core::cell::UnsafeCell<alloc::string::String>" }
%"core::cell::UnsafeCell<alloc::string::String>" = type { %"alloc::string::String" }
%"alloc::string::String" = type { %"alloc::vec::Vec<u8>" }
%"alloc::vec::Vec<u8>" = type { { i8*, i64 }, i64 }
%"[closure@./probe/probe_tle.rs:76:18: 84:10]" = type { i8**, i32*, i32*, i64** }
%"[closure@./probe/probe_tle.rs:94:18: 102:10]" = type { i8**, i32*, i32* }
%"core::result::Result<(), std::thread::local::AccessError>::Ok" = type { [1 x i8], {} }
%"std::thread::local::fast::Key<core::cell::RefCell<alloc::string::String>>" = type { %"std::thread::local::lazy::LazyKeyInner<core::cell::RefCell<alloc::string::String>>", i8, [7 x i8] }
%"std::thread::local::lazy::LazyKeyInner<core::cell::RefCell<alloc::string::String>>" = type { %"core::cell::UnsafeCell<core::option::Option<core::cell::RefCell<alloc::string::String>>>" }
%"core::cell::UnsafeCell<core::option::Option<core::cell::RefCell<alloc::string::String>>>" = type { %"core::option::Option<core::cell::RefCell<alloc::string::String>>" }
%"core::option::Option<core::cell::RefCell<alloc::string::String>>" = type { i64, [4 x i64] }
%"std::thread::local::fast::Key<core::cell::RefCell<i32>>" = type { %"std::thread::local::lazy::LazyKeyInner<core::cell::RefCell<i32>>", i8, [7 x i8] }
%"std::thread::local::lazy::LazyKeyInner<core::cell::RefCell<i32>>" = type { %"core::cell::UnsafeCell<core::option::Option<core::cell::RefCell<i32>>>" }
%"core::cell::UnsafeCell<core::option::Option<core::cell::RefCell<i32>>>" = type { %"core::option::Option<core::cell::RefCell<i32>>" }
%"core::option::Option<core::cell::RefCell<i32>>" = type { i64, [2 x i64] }
%"core::option::Option<core::cell::RefCell<alloc::string::String>>::Some" = type { [1 x i64], %"core::cell::RefCell<alloc::string::String>" }
%"core::option::Option<core::cell::RefCell<i32>>::Some" = type { [1 x i64], { i64, i32 } }
%"core::fmt::Formatter" = type { { i64, i64 }, { i64, i64 }, { {}*, [3 x i64]* }, i32, i32, i8, [7 x i8] }
%"core::str::pattern::MultiCharEqPattern<core::str::IsWhitespace>" = type { %"core::str::IsWhitespace" }
%"core::fmt::Opaque" = type {}
%"core::fmt::rt::v1::Argument" = type { i64, %"core::fmt::rt::v1::FormatSpec" }
%"core::fmt::rt::v1::FormatSpec" = type { { i64, i64 }, { i64, i64 }, i32, i32, i8, [7 x i8] }
%"alloc::sync::ArcInner<std::sync::mutex::Mutex<std::fs::File>>" = type { %"core::sync::atomic::AtomicUsize", %"core::sync::atomic::AtomicUsize", %"std::sync::mutex::Mutex<std::fs::File>" }
%"alloc::sync::ArcInner<_ProbeSemaphore>" = type { %"core::sync::atomic::AtomicUsize", %"core::sync::atomic::AtomicUsize", %_ProbeSemaphore }
%_ProbeSemaphore = type { %"std::sync::mutex::Mutex<i32>", %"std::sync::condvar::Condvar" }
%"alloc::sync::ArcInner<_ShuffledOrder>" = type { %"core::sync::atomic::AtomicUsize", %"core::sync::atomic::AtomicUsize", %_ShuffledOrder }
%_ShuffledOrder = type { %"std::sync::mutex::Mutex<alloc::collections::vec_deque::VecDeque<i32>>", %"std::sync::rwlock::RwLock<i32>", %"std::sync::condvar::Condvar", %"std::sync::mutex::Mutex<()>" }
%"core::cell::BorrowError" = type {}
%"core::cell::BorrowMutError" = type {}
%"core::str::error::Utf8Error" = type { i64, { i8, i8 }, [6 x i8] }
%"core::mem::manually_drop::ManuallyDrop<alloc::string::String>" = type { %"alloc::string::String" }
%"core::mem::maybe_uninit::MaybeUninit<alloc::string::String>" = type { [3 x i64] }
%"core::mem::maybe_uninit::MaybeUninit<alloc::alloc::Global>" = type { [0 x i8] }
%"core::mem::manually_drop::ManuallyDrop<core::option::Option<core::cell::RefCell<i32>>>" = type { %"core::option::Option<core::cell::RefCell<i32>>" }
%"core::mem::maybe_uninit::MaybeUninit<core::option::Option<core::cell::RefCell<i32>>>" = type { [3 x i64] }
%"core::mem::manually_drop::ManuallyDrop<core::option::Option<core::cell::RefCell<alloc::string::String>>>" = type { %"core::option::Option<core::cell::RefCell<alloc::string::String>>" }
%"core::mem::maybe_uninit::MaybeUninit<core::option::Option<core::cell::RefCell<alloc::string::String>>>" = type { [5 x i64] }
%"core::option::Option<alloc::string::String>" = type { {}*, [2 x i64] }
%"core::option::Option<alloc::string::String>::Some" = type { %"alloc::string::String" }
%"core::result::Result<std::fs::File, std::io::error::Error>::Ok" = type { [1 x i32], i32 }
%"core::result::Result<std::fs::File, std::io::error::Error>::Err" = type { [1 x i64], %"std::io::error::Error" }
%"core::ptr::metadata::PtrRepr<[u8]>" = type { [2 x i64] }
%"core::ptr::metadata::PtrRepr<[i32]>" = type { [2 x i64] }
%"core::ptr::metadata::PtrRepr<[&str]>" = type { [2 x i64] }
%"core::option::Option<u32>::Some" = type { [1 x i32], i32 }
%"core::result::Result<i32, core::num::error::ParseIntError>" = type { i8, [7 x i8] }
%"core::option::Option<(usize, usize)>" = type { i64, [2 x i64] }
%"core::option::Option<(usize, usize)>::Some" = type { [1 x i64], { i64, i64 } }
%"core::str::pattern::SearchStep" = type { i64, [2 x i64] }
%"core::str::pattern::SearchStep::Match" = type { [1 x i64], i64, i64 }
%"core::option::Option<core::fmt::Arguments>" = type { {}*, [5 x i64] }
%"core::ops::control_flow::ControlFlow<core::result::Result<core::convert::Infallible, core::alloc::layout::LayoutError>, (core::alloc::layout::Layout, usize)>" = type { [1 x i64], i64, [1 x i64] }
%"core::ops::control_flow::ControlFlow<core::result::Result<core::convert::Infallible, core::alloc::layout::LayoutError>, (core::alloc::layout::Layout, usize)>::Continue" = type { { { i64, i64 }, i64 } }
%"core::ops::control_flow::ControlFlow<core::result::Result<core::convert::Infallible, core::alloc::layout::LayoutError>, usize>::Continue" = type { [1 x i64], i64 }
%"core::result::Result<(core::alloc::layout::Layout, usize), core::alloc::layout::LayoutError>::Ok" = type { { { i64, i64 }, i64 } }
%"core::result::Result<core::ptr::non_null::NonNull<u8>, core::alloc::AllocError>::Err" = type { %"core::alloc::AllocError" }
%"core::result::Result<&core::cell::RefCell<alloc::string::String>, std::thread::local::AccessError>::Err" = type { %"std::thread::local::AccessError" }
%"core::result::Result<usize, alloc::collections::TryReserveErrorKind>" = type { i64, [2 x i64] }
%"core::result::Result<usize, alloc::collections::TryReserveErrorKind>::Err" = type { [1 x i64], { i64, i64 } }
%"core::result::Result<usize, alloc::collections::TryReserveErrorKind>::Ok" = type { [1 x i64], i64 }
%"core::result::Result<usize, core::alloc::layout::LayoutError>::Err" = type { [8 x i8], %"core::alloc::layout::LayoutError" }
%"core::result::Result<usize, core::alloc::layout::LayoutError>::Ok" = type { [1 x i64], i64 }
%"core::result::Result<&core::cell::RefCell<i32>, std::thread::local::AccessError>::Err" = type { %"std::thread::local::AccessError" }
%"core::option::Option<i32>::Some" = type { [1 x i32], i32 }
%"core::result::Result<i32, core::num::error::ParseIntError>::Ok" = type { [1 x i32], i32 }
%"core::result::Result<i32, core::num::error::ParseIntError>::Err" = type { [1 x i8], i8 }
%"core::result::Result<&str, core::str::error::Utf8Error>" = type { i64, [2 x i64] }
%"core::result::Result<&str, core::str::error::Utf8Error>::Ok" = type { [1 x i64], { [0 x i8]*, i64 } }
%"core::result::Result<&str, core::str::error::Utf8Error>::Err" = type { [1 x i64], %"core::str::error::Utf8Error" }
%"core::result::Result<(), alloc::collections::TryReserveErrorKind>" = type { i64, [2 x i64] }
%"core::result::Result<(), alloc::collections::TryReserveErrorKind>::Ok" = type { [8 x i8], {} }
%"core::result::Result<(), alloc::collections::TryReserveErrorKind>::Err" = type { [1 x i64], { i64, i64 } }
%"core::result::Result<core::ptr::non_null::NonNull<[u8]>, alloc::collections::TryReserveError>::Ok" = type { [1 x i64], { i8*, i64 } }
%"core::result::Result<core::alloc::layout::Layout, alloc::collections::TryReserveErrorKind>" = type { i64, [2 x i64] }
%"core::result::Result<core::alloc::layout::Layout, alloc::collections::TryReserveErrorKind>::Ok" = type { [1 x i64], { i64, i64 } }
%"core::result::Result<core::alloc::layout::Layout, alloc::collections::TryReserveErrorKind>::Err" = type { [1 x i64], { i64, i64 } }
%"core::option::Option<(core::ptr::non_null::NonNull<u8>, core::alloc::layout::Layout)>" = type { {}*, [2 x i64] }
%"core::ops::control_flow::ControlFlow<core::result::Result<core::convert::Infallible, alloc::collections::TryReserveError>>" = type { i64, [2 x i64] }
%"core::ops::control_flow::ControlFlow<core::result::Result<core::convert::Infallible, alloc::collections::TryReserveErrorKind>, core::alloc::layout::Layout>" = type { i64, [2 x i64] }
%"core::ops::control_flow::ControlFlow<core::result::Result<core::convert::Infallible, alloc::collections::TryReserveErrorKind>, core::alloc::layout::Layout>::Continue" = type { [1 x i64], { i64, i64 } }
%"core::ops::control_flow::ControlFlow<core::result::Result<core::convert::Infallible, alloc::collections::TryReserveErrorKind>, core::alloc::layout::Layout>::Break" = type { [1 x i64], { i64, i64 } }
%"core::ops::control_flow::ControlFlow<core::result::Result<core::convert::Infallible, alloc::collections::TryReserveError>>::Break" = type { [1 x i64], { i64, i64 } }
%"core::option::Option<(core::ptr::non_null::NonNull<u8>, core::alloc::layout::Layout)>::Some" = type { { i8*, { i64, i64 } } }
%"core::ops::control_flow::ControlFlow<core::result::Result<core::convert::Infallible, alloc::collections::TryReserveError>, core::ptr::non_null::NonNull<[u8]>>" = type { i64, [2 x i64] }
%"core::ops::control_flow::ControlFlow<core::result::Result<core::convert::Infallible, alloc::collections::TryReserveErrorKind>, usize>" = type { i64, [2 x i64] }
%"core::ops::control_flow::ControlFlow<core::result::Result<core::convert::Infallible, alloc::collections::TryReserveErrorKind>, usize>::Continue" = type { [1 x i64], i64 }
%"core::ops::control_flow::ControlFlow<core::result::Result<core::convert::Infallible, alloc::collections::TryReserveErrorKind>, usize>::Break" = type { [1 x i64], { i64, i64 } }
%"core::ops::control_flow::ControlFlow<core::result::Result<core::convert::Infallible, alloc::collections::TryReserveError>, core::ptr::non_null::NonNull<[u8]>>::Continue" = type { [1 x i64], { i8*, i64 } }
%"core::ops::control_flow::ControlFlow<core::result::Result<core::convert::Infallible, alloc::collections::TryReserveError>, core::ptr::non_null::NonNull<[u8]>>::Break" = type { [1 x i64], { i64, i64 } }
%"core::fmt::builders::DebugTuple" = type { %"core::fmt::Formatter"*, i64, i8, i8, [6 x i8] }
%"core::fmt::builders::DebugStruct" = type { %"core::fmt::Formatter"*, i8, i8, [6 x i8] }
%"core::result::Result<core::convert::Infallible, core::alloc::AllocError>::Err" = type { %"core::alloc::AllocError" }
%"core::ops::control_flow::ControlFlow<core::result::Result<core::convert::Infallible, core::alloc::AllocError>, core::ptr::non_null::NonNull<[u8]>>::Break" = type { %"core::result::Result<core::convert::Infallible, core::alloc::AllocError>::Err" }
%"core::result::Result<core::convert::Infallible, core::alloc::layout::LayoutError>::Err" = type { %"core::alloc::layout::LayoutError" }
%"core::ops::control_flow::ControlFlow<core::result::Result<core::convert::Infallible, core::alloc::layout::LayoutError>, usize>::Break" = type { [8 x i8], %"core::result::Result<core::convert::Infallible, core::alloc::layout::LayoutError>::Err" }
%"core::result::Result<core::convert::Infallible, std::thread::local::AccessError>::Err" = type { %"std::thread::local::AccessError" }
%"core::ops::control_flow::ControlFlow<core::result::Result<core::convert::Infallible, std::thread::local::AccessError>, &core::cell::RefCell<alloc::string::String>>::Break" = type { %"core::result::Result<core::convert::Infallible, std::thread::local::AccessError>::Err" }
%"core::ops::control_flow::ControlFlow<core::result::Result<core::convert::Infallible, std::thread::local::AccessError>, &core::cell::RefCell<i32>>::Break" = type { %"core::result::Result<core::convert::Infallible, std::thread::local::AccessError>::Err" }
%"core::ops::control_flow::ControlFlow<core::result::Result<core::convert::Infallible, core::alloc::AllocError>, core::ptr::non_null::NonNull<u8>>::Break" = type { %"core::result::Result<core::convert::Infallible, core::alloc::AllocError>::Err" }
%"core::ops::control_flow::ControlFlow<core::result::Result<core::convert::Infallible, core::alloc::layout::LayoutError>, (core::alloc::layout::Layout, usize)>::Break" = type { %"core::result::Result<core::convert::Infallible, core::alloc::layout::LayoutError>::Err" }
%"core::ops::control_flow::ControlFlow<core::result::Result<core::convert::Infallible, alloc::collections::TryReserveError>>::Continue" = type { [8 x i8], {} }
%"core::mem::manually_drop::ManuallyDrop<alloc::vec::Vec<&str>>" = type { %"alloc::vec::Vec<&str>" }
%"core::ops::control_flow::ControlFlow<&str>::Continue" = type { {} }
%"core::ops::control_flow::ControlFlow<core::ops::control_flow::ControlFlow<&str, core::convert::Infallible>>::Continue" = type { {} }
%"core::str::pattern::SearchStep::Reject" = type { [1 x i64], i64, i64 }
%"std::ffi::c_str::CStr" = type { [0 x i8] }
%_ProbeNode = type { { [0 x i8]*, i64 }, { i64, i8* }, i32, i32, i32, i32 }
%"core::option::Option<*const u64>::Some" = type { [1 x i64], i64* }
%"unwind::libunwind::_Unwind_Exception" = type { i64, void (i32, %"unwind::libunwind::_Unwind_Exception"*)*, [6 x i64] }
%"unwind::libunwind::_Unwind_Context" = type { [0 x i8] }

@alloc421 = private unnamed_addr constant <{ [78 x i8] }> <{ [78 x i8] c"/build/rustc-7HAmMa/rustc-1.57.0+dfsg1+llvm/library/alloc/src/vec/into_iter.rs" }>, align 1
@alloc422 = private unnamed_addr constant <{ i8*, [16 x i8] }> <{ i8* getelementptr inbounds (<{ [78 x i8] }>, <{ [78 x i8] }>* @alloc421, i32 0, i32 0, i32 0), [16 x i8] c"N\00\00\00\00\00\00\00\91\00\00\00\1B\00\00\00" }>, align 8
@alloc145 = private unnamed_addr constant <{ [1 x i8] }> <{ [1 x i8] c"#" }>, align 1
@alloc440 = private unnamed_addr constant <{ [69 x i8] }> <{ [69 x i8] c"/build/rustc-7HAmMa/rustc-1.57.0+dfsg1+llvm/library/std/src/io/mod.rs" }>, align 1
@alloc441 = private unnamed_addr constant <{ i8*, [16 x i8] }> <{ i8* getelementptr inbounds (<{ [69 x i8] }>, <{ [69 x i8] }>* @alloc440, i32 0, i32 0, i32 0), [16 x i8] c"E\00\00\00\00\00\00\00\1B\06\00\00!\00\00\00" }>, align 8
@alloc142 = private unnamed_addr constant <{ [28 x i8] }> <{ [28 x i8] c"failed to write whole buffer" }>, align 1
@alloc143 = private unnamed_addr constant <{ i8*, [8 x i8] }> <{ i8* getelementptr inbounds (<{ [28 x i8] }>, <{ [28 x i8] }>* @alloc142, i32 0, i32 0, i32 0), [8 x i8] c"\1C\00\00\00\00\00\00\00" }>, align 8
@vtable.0 = private unnamed_addr constant <{ i8*, [16 x i8], i8*, i8*, i8*, [0 x i8] }> <{ i8* bitcast (void (%"std::io::Write::write_fmt::Adapter<std::fs::File>"*)* @"_ZN4core3ptr76drop_in_place$LT$std..io..Write..write_fmt..Adapter$LT$std..fs..File$GT$$GT$17h0c0b82882c1b1196E" to i8*), [16 x i8] c"\18\00\00\00\00\00\00\00\08\00\00\00\00\00\00\00", i8* bitcast (i1 (%"std::io::Write::write_fmt::Adapter<std::fs::File>"*, [0 x i8]*, i64)* @"_ZN80_$LT$std..io..Write..write_fmt..Adapter$LT$T$GT$$u20$as$u20$core..fmt..Write$GT$9write_str17hcb811b3ebb30a9ceE" to i8*), i8* bitcast (i1 (%"std::io::Write::write_fmt::Adapter<std::fs::File>"*, i32)* @_ZN4core3fmt5Write10write_char17hf7c3841d55cdd675E to i8*), i8* bitcast (i1 (%"std::io::Write::write_fmt::Adapter<std::fs::File>"*, %"core::fmt::Arguments"*)* @_ZN4core3fmt5Write9write_fmt17h0d5f236765de11f9E to i8*), [0 x i8] zeroinitializer }>, align 8
@alloc139 = private unnamed_addr constant <{ [15 x i8] }> <{ [15 x i8] c"formatter error" }>, align 1
@alloc140 = private unnamed_addr constant <{ i8*, [8 x i8] }> <{ i8* getelementptr inbounds (<{ [15 x i8] }>, <{ [15 x i8] }>* @alloc139, i32 0, i32 0, i32 0), [8 x i8] c"\0F\00\00\00\00\00\00\00" }>, align 8
@alloc447 = private unnamed_addr constant <{ [36 x i8] }> <{ [36 x i8] c"rwlock maximum reader count exceeded" }>, align 1
@alloc454 = private unnamed_addr constant <{ [78 x i8] }> <{ [78 x i8] c"/build/rustc-7HAmMa/rustc-1.57.0+dfsg1+llvm/library/std/src/sys/unix/rwlock.rs" }>, align 1
@alloc449 = private unnamed_addr constant <{ i8*, [16 x i8] }> <{ i8* getelementptr inbounds (<{ [78 x i8] }>, <{ [78 x i8] }>* @alloc454, i32 0, i32 0, i32 0), [16 x i8] c"N\00\00\00\00\00\00\00)\00\00\00\0D\00\00\00" }>, align 8
@alloc450 = private unnamed_addr constant <{ [41 x i8] }> <{ [41 x i8] c"rwlock read lock would result in deadlock" }>, align 1
@alloc452 = private unnamed_addr constant <{ i8*, [16 x i8] }> <{ i8* getelementptr inbounds (<{ [78 x i8] }>, <{ [78 x i8] }>* @alloc454, i32 0, i32 0, i32 0), [16 x i8] c"N\00\00\00\00\00\00\001\00\00\00\0D\00\00\00" }>, align 8
@alloc453 = private unnamed_addr constant <{ [42 x i8] }> <{ [42 x i8] c"rwlock write lock would result in deadlock" }>, align 1
@alloc455 = private unnamed_addr constant <{ i8*, [16 x i8] }> <{ i8* getelementptr inbounds (<{ [78 x i8] }>, <{ [78 x i8] }>* @alloc454, i32 0, i32 0, i32 0), [16 x i8] c"N\00\00\00\00\00\00\00X\00\00\00\0D\00\00\00" }>, align 8
@alloc463 = private unnamed_addr constant <{ [70 x i8] }> <{ [70 x i8] c"cannot access a Thread Local Storage value during or after destruction" }>, align 1
@alloc457 = private unnamed_addr constant <{ [75 x i8] }> <{ [75 x i8] c"/build/rustc-7HAmMa/rustc-1.57.0+dfsg1+llvm/library/std/src/thread/local.rs" }>, align 1
@alloc458 = private unnamed_addr constant <{ i8*, [16 x i8] }> <{ i8* getelementptr inbounds (<{ [75 x i8] }>, <{ [75 x i8] }>* @alloc457, i32 0, i32 0, i32 0), [16 x i8] c"K\00\00\00\00\00\00\00w\01\00\00\1A\00\00\00" }>, align 8
@vtable.1 = private unnamed_addr constant <{ i8*, [16 x i8], i8*, i8*, [0 x i8] }> <{ i8* bitcast (void ({ i8*, i64 }*)* @"_ZN4core3ptr77drop_in_place$LT$std..panicking..begin_panic..PanicPayload$LT$$RF$str$GT$$GT$17h049568cd6d74d4e5E" to i8*), [16 x i8] c"\10\00\00\00\00\00\00\00\08\00\00\00\00\00\00\00", i8* bitcast ({ {}*, [3 x i64]* } ({ i8*, i64 }*)* @"_ZN91_$LT$std..panicking..begin_panic..PanicPayload$LT$A$GT$$u20$as$u20$core..panic..BoxMeUp$GT$8take_box17hef591409de37e9a6E" to i8*), i8* bitcast ({ {}*, [3 x i64]* } ({ i8*, i64 }*)* @"_ZN91_$LT$std..panicking..begin_panic..PanicPayload$LT$A$GT$$u20$as$u20$core..panic..BoxMeUp$GT$3get17hce570b05a7708a45E" to i8*), [0 x i8] zeroinitializer }>, align 8
@_ZN3std9panicking11panic_count18GLOBAL_PANIC_COUNT17h9f4123c916e0c58dE = external global %"core::sync::atomic::AtomicUsize"
@vtable.2 = private unnamed_addr constant <{ i8*, [16 x i8], i8*, i8*, i8*, [0 x i8] }> <{ i8* bitcast (void (%"std::io::Write::write_fmt::Adapter<std::fs::File>"**)* @"_ZN4core3ptr88drop_in_place$LT$$RF$mut$u20$std..io..Write..write_fmt..Adapter$LT$std..fs..File$GT$$GT$17h346c51ad5f5c1e8dE" to i8*), [16 x i8] c"\08\00\00\00\00\00\00\00\08\00\00\00\00\00\00\00", i8* bitcast (i1 (%"std::io::Write::write_fmt::Adapter<std::fs::File>"**, [0 x i8]*, i64)* @"_ZN50_$LT$$RF$mut$u20$W$u20$as$u20$core..fmt..Write$GT$9write_str17hf5770310a8c2424bE" to i8*), i8* bitcast (i1 (%"std::io::Write::write_fmt::Adapter<std::fs::File>"**, i32)* @"_ZN50_$LT$$RF$mut$u20$W$u20$as$u20$core..fmt..Write$GT$10write_char17hb07bc20f919e0ddcE" to i8*), i8* bitcast (i1 (%"std::io::Write::write_fmt::Adapter<std::fs::File>"**, %"core::fmt::Arguments"*)* @"_ZN50_$LT$$RF$mut$u20$W$u20$as$u20$core..fmt..Write$GT$9write_fmt17hc5cc6c9b45d7c36fE" to i8*), [0 x i8] zeroinitializer }>, align 8
@alloc473 = private unnamed_addr constant <{ [12 x i8] }> <{ [12 x i8] c"invalid args" }>, align 1
@alloc474 = private unnamed_addr constant <{ [71 x i8] }> <{ [71 x i8] c"/build/rustc-7HAmMa/rustc-1.57.0+dfsg1+llvm/library/core/src/fmt/mod.rs" }>, align 1
@alloc475 = private unnamed_addr constant <{ i8*, [16 x i8] }> <{ i8* getelementptr inbounds (<{ [71 x i8] }>, <{ [71 x i8] }>* @alloc474, i32 0, i32 0, i32 0), [16 x i8] c"G\00\00\00\00\00\00\00k\01\00\00\0D\00\00\00" }>, align 8
@str.3 = internal constant [58 x i8] c"attempted to zero-initialize type `&str`, which is invalid"
@alloc476 = private unnamed_addr constant <{ [71 x i8] }> <{ [71 x i8] c"/build/rustc-7HAmMa/rustc-1.57.0+dfsg1+llvm/library/core/src/num/mod.rs" }>, align 1
@alloc477 = private unnamed_addr constant <{ i8*, [16 x i8] }> <{ i8* getelementptr inbounds (<{ [71 x i8] }>, <{ [71 x i8] }>* @alloc476, i32 0, i32 0, i32 0), [16 x i8] c"G\00\00\00\00\00\00\00S\03\00\00\05\00\00\00" }>, align 8
@str.4 = internal constant [28 x i8] c"attempt to add with overflow"
@alloc478 = private unnamed_addr constant <{ [71 x i8] }> <{ [71 x i8] c"/build/rustc-7HAmMa/rustc-1.57.0+dfsg1+llvm/library/core/src/ptr/mod.rs" }>, align 1
@alloc479 = private unnamed_addr constant <{ i8*, [16 x i8] }> <{ i8* getelementptr inbounds (<{ [71 x i8] }>, <{ [71 x i8] }>* @alloc478, i32 0, i32 0, i32 0), [16 x i8] c"G\00\00\00\00\00\00\00\BC\02\00\00\0D\00\00\00" }>, align 8
@alloc480 = private unnamed_addr constant <{ [73 x i8] }> <{ [73 x i8] c"assertion failed: 0 < pointee_size && pointee_size <= isize::MAX as usize" }>, align 1
@alloc481 = private unnamed_addr constant <{ [77 x i8] }> <{ [77 x i8] c"/build/rustc-7HAmMa/rustc-1.57.0+dfsg1+llvm/library/core/src/ptr/const_ptr.rs" }>, align 1
@alloc482 = private unnamed_addr constant <{ i8*, [16 x i8] }> <{ i8* getelementptr inbounds (<{ [77 x i8] }>, <{ [77 x i8] }>* @alloc481, i32 0, i32 0, i32 0), [16 x i8] c"M\00\00\00\00\00\00\00\85\01\00\00\09\00\00\00" }>, align 8
@alloc484 = private unnamed_addr constant <{ [16 x i8] }> <{ [16 x i8] c"already borrowed" }>, align 1
@alloc485 = private unnamed_addr constant <{ [24 x i8] }> <{ [24 x i8] c"already mutably borrowed" }>, align 1
@alloc490 = private unnamed_addr constant <{ [76 x i8] }> <{ [76 x i8] c"/build/rustc-7HAmMa/rustc-1.57.0+dfsg1+llvm/library/core/src/char/methods.rs" }>, align 1
@alloc487 = private unnamed_addr constant <{ i8*, [16 x i8] }> <{ i8* getelementptr inbounds (<{ [76 x i8] }>, <{ [76 x i8] }>* @alloc490, i32 0, i32 0, i32 0), [16 x i8] c"L\00\00\00\00\00\00\00v\06\00\00\16\00\00\00" }>, align 8
@alloc489 = private unnamed_addr constant <{ i8*, [16 x i8] }> <{ i8* getelementptr inbounds (<{ [76 x i8] }>, <{ [76 x i8] }>* @alloc490, i32 0, i32 0, i32 0), [16 x i8] c"L\00\00\00\00\00\00\00\90\06\00\00\0A\00\00\00" }>, align 8
@alloc147 = private unnamed_addr constant <{ [18 x i8] }> <{ [18 x i8] c"encode_utf8: need " }>, align 1
@alloc149 = private unnamed_addr constant <{ [19 x i8] }> <{ [19 x i8] c" bytes to encode U+" }>, align 1
@alloc150 = private unnamed_addr constant <{ [21 x i8] }> <{ [21 x i8] c", but the buffer has " }>, align 1
@alloc148 = private unnamed_addr constant <{ i8*, [8 x i8], i8*, [8 x i8], i8*, [8 x i8] }> <{ i8* getelementptr inbounds (<{ [18 x i8] }>, <{ [18 x i8] }>* @alloc147, i32 0, i32 0, i32 0), [8 x i8] c"\12\00\00\00\00\00\00\00", i8* getelementptr inbounds (<{ [19 x i8] }>, <{ [19 x i8] }>* @alloc149, i32 0, i32 0, i32 0), [8 x i8] c"\13\00\00\00\00\00\00\00", i8* getelementptr inbounds (<{ [21 x i8] }>, <{ [21 x i8] }>* @alloc150, i32 0, i32 0, i32 0), [8 x i8] c"\15\00\00\00\00\00\00\00" }>, align 8
@alloc491 = private unnamed_addr constant <{ i8*, [16 x i8] }> <{ i8* getelementptr inbounds (<{ [76 x i8] }>, <{ [76 x i8] }>* @alloc490, i32 0, i32 0, i32 0), [16 x i8] c"L\00\00\00\00\00\00\00\89\06\00\00\0E\00\00\00" }>, align 8
@alloc492 = private unnamed_addr constant <{ [86 x i8] }> <{ [86 x i8] c"/build/rustc-7HAmMa/rustc-1.57.0+dfsg1+llvm/library/core/src/iter/traits/exact_size.rs" }>, align 1
@alloc493 = private unnamed_addr constant <{ i8*, [16 x i8] }> <{ i8* getelementptr inbounds (<{ [86 x i8] }>, <{ [86 x i8] }>* @alloc492, i32 0, i32 0, i32 0), [16 x i8] c"V\00\00\00\00\00\00\00l\00\00\00\09\00\00\00" }>, align 8
@0 = private unnamed_addr constant <{ [16 x i8] }> zeroinitializer, align 8
@alloc500 = private unnamed_addr constant <{ [49 x i8] }> <{ [49 x i8] c"there is no such thing as an acquire/release load" }>, align 1
@alloc509 = private unnamed_addr constant <{ [75 x i8] }> <{ [75 x i8] c"/build/rustc-7HAmMa/rustc-1.57.0+dfsg1+llvm/library/core/src/sync/atomic.rs" }>, align 1
@alloc496 = private unnamed_addr constant <{ i8*, [16 x i8] }> <{ i8* getelementptr inbounds (<{ [75 x i8] }>, <{ [75 x i8] }>* @alloc509, i32 0, i32 0, i32 0), [16 x i8] c"K\00\00\00\00\00\00\00<\09\00\00\17\00\00\00" }>, align 8
@alloc501 = private unnamed_addr constant <{ [40 x i8] }> <{ [40 x i8] c"there is no such thing as a release load" }>, align 1
@alloc499 = private unnamed_addr constant <{ i8*, [16 x i8] }> <{ i8* getelementptr inbounds (<{ [75 x i8] }>, <{ [75 x i8] }>* @alloc509, i32 0, i32 0, i32 0), [16 x i8] c"K\00\00\00\00\00\00\00;\09\00\00\18\00\00\00" }>, align 8
@alloc502 = private unnamed_addr constant <{ [50 x i8] }> <{ [50 x i8] c"there is no such thing as an acquire/release store" }>, align 1
@alloc504 = private unnamed_addr constant <{ i8*, [16 x i8] }> <{ i8* getelementptr inbounds (<{ [75 x i8] }>, <{ [75 x i8] }>* @alloc509, i32 0, i32 0, i32 0), [16 x i8] c"K\00\00\00\00\00\00\00.\09\00\00\17\00\00\00" }>, align 8
@alloc505 = private unnamed_addr constant <{ [42 x i8] }> <{ [42 x i8] c"there is no such thing as an acquire store" }>, align 1
@alloc507 = private unnamed_addr constant <{ i8*, [16 x i8] }> <{ i8* getelementptr inbounds (<{ [75 x i8] }>, <{ [75 x i8] }>* @alloc509, i32 0, i32 0, i32 0), [16 x i8] c"K\00\00\00\00\00\00\00-\09\00\00\18\00\00\00" }>, align 8
@alloc508 = private unnamed_addr constant <{ [41 x i8] }> <{ [41 x i8] c"there is no such thing as a relaxed fence" }>, align 1
@alloc510 = private unnamed_addr constant <{ i8*, [16 x i8] }> <{ i8* getelementptr inbounds (<{ [75 x i8] }>, <{ [75 x i8] }>* @alloc509, i32 0, i32 0, i32 0), [16 x i8] c"K\00\00\00\00\00\00\00{\0A\00\00\18\00\00\00" }>, align 8
@alloc511 = private unnamed_addr constant <{ [76 x i8] }> <{ [76 x i8] c"/build/rustc-7HAmMa/rustc-1.57.0+dfsg1+llvm/library/core/src/alloc/layout.rs" }>, align 1
@alloc512 = private unnamed_addr constant <{ i8*, [16 x i8] }> <{ i8* getelementptr inbounds (<{ [76 x i8] }>, <{ [76 x i8] }>* @alloc511, i32 0, i32 0, i32 0), [16 x i8] c"L\00\00\00\00\00\00\00\18\01\00\009\00\00\00" }>, align 8
@alloc513 = private unnamed_addr constant <{ [35 x i8] }> <{ [35 x i8] c"assertion failed: mid <= self.len()" }>, align 1
@alloc514 = private unnamed_addr constant <{ [73 x i8] }> <{ [73 x i8] c"/build/rustc-7HAmMa/rustc-1.57.0+dfsg1+llvm/library/core/src/slice/mod.rs" }>, align 1
@alloc515 = private unnamed_addr constant <{ i8*, [16 x i8] }> <{ i8* getelementptr inbounds (<{ [73 x i8] }>, <{ [73 x i8] }>* @alloc514, i32 0, i32 0, i32 0), [16 x i8] c"I\00\00\00\00\00\00\00\1F\06\00\00\09\00\00\00" }>, align 8
@alloc516 = private unnamed_addr constant <{ [43 x i8] }> <{ [43 x i8] c"called `Option::unwrap()` on a `None` value" }>, align 1
@vtable.5 = private unnamed_addr constant <{ i8*, [16 x i8], i8*, [0 x i8] }> <{ i8* bitcast (void (%"core::cell::BorrowMutError"*)* @"_ZN4core3ptr47drop_in_place$LT$core..cell..BorrowMutError$GT$17he4fe56a2cffc7169E" to i8*), [16 x i8] c"\00\00\00\00\00\00\00\00\01\00\00\00\00\00\00\00", i8* bitcast (i1 (%"core::cell::BorrowMutError"*, %"core::fmt::Formatter"*)* @"_ZN63_$LT$core..cell..BorrowMutError$u20$as$u20$core..fmt..Debug$GT$3fmt17hcb6b239d20f4c4a6E" to i8*), [0 x i8] zeroinitializer }>, align 8
@vtable.6 = private unnamed_addr constant <{ i8*, [16 x i8], i8*, [0 x i8] }> <{ i8* bitcast (void (%"std::thread::local::AccessError"*)* @"_ZN4core3ptr52drop_in_place$LT$std..thread..local..AccessError$GT$17h4a435bf059f9a35cE" to i8*), [16 x i8] c"\00\00\00\00\00\00\00\00\01\00\00\00\00\00\00\00", i8* bitcast (i1 (%"std::thread::local::AccessError"*, %"core::fmt::Formatter"*)* @"_ZN68_$LT$std..thread..local..AccessError$u20$as$u20$core..fmt..Debug$GT$3fmt17h4742560aef5d22b8E" to i8*), [0 x i8] zeroinitializer }>, align 8
@vtable.7 = private unnamed_addr constant <{ i8*, [16 x i8], i8*, [0 x i8] }> <{ i8* bitcast (void (%"std::io::error::Error"*)* @"_ZN4core3ptr42drop_in_place$LT$std..io..error..Error$GT$17hda7771387f347390E" to i8*), [16 x i8] c"\10\00\00\00\00\00\00\00\08\00\00\00\00\00\00\00", i8* bitcast (i1 (%"std::io::error::Error"*, %"core::fmt::Formatter"*)* @"_ZN58_$LT$std..io..error..Error$u20$as$u20$core..fmt..Debug$GT$3fmt17h827e52fb911077aeE" to i8*), [0 x i8] zeroinitializer }>, align 8
@vtable.8 = private unnamed_addr constant <{ i8*, [16 x i8], i8*, [0 x i8] }> <{ i8* bitcast (void (%"core::cell::BorrowError"*)* @"_ZN4core3ptr44drop_in_place$LT$core..cell..BorrowError$GT$17h4eb9cf3fe3320816E" to i8*), [16 x i8] c"\00\00\00\00\00\00\00\00\01\00\00\00\00\00\00\00", i8* bitcast (i1 (%"core::cell::BorrowError"*, %"core::fmt::Formatter"*)* @"_ZN60_$LT$core..cell..BorrowError$u20$as$u20$core..fmt..Debug$GT$3fmt17h181a42d1bc7840fcE" to i8*), [0 x i8] zeroinitializer }>, align 8
@alloc562 = private unnamed_addr constant <{ [43 x i8] }> <{ [43 x i8] c"called `Result::unwrap()` on an `Err` value" }>, align 1
@vtable.9 = private unnamed_addr constant <{ i8*, [16 x i8], i8*, [0 x i8] }> <{ i8* bitcast (void (%"core::alloc::layout::LayoutError"*)* @"_ZN4core3ptr53drop_in_place$LT$core..alloc..layout..LayoutError$GT$17h84f351adb5c81ce7E" to i8*), [16 x i8] c"\00\00\00\00\00\00\00\00\01\00\00\00\00\00\00\00", i8* bitcast (i1 (%"core::alloc::layout::LayoutError"*, %"core::fmt::Formatter"*)* @"_ZN69_$LT$core..alloc..layout..LayoutError$u20$as$u20$core..fmt..Debug$GT$3fmt17h18b08294eb593cf2E" to i8*), [0 x i8] zeroinitializer }>, align 8
@vtable.a = private unnamed_addr constant <{ i8*, [16 x i8], i8*, [0 x i8] }> <{ i8* bitcast (void ({ i64*, i8 }*)* @"_ZN4core3ptr98drop_in_place$LT$std..sync..poison..PoisonError$LT$std..sync..mutex..MutexGuard$LT$i32$GT$$GT$$GT$17hdf6e55af722f77ccE" to i8*), [16 x i8] c"\10\00\00\00\00\00\00\00\08\00\00\00\00\00\00\00", i8* bitcast (i1 ({ i64*, i8 }*, %"core::fmt::Formatter"*)* @"_ZN76_$LT$std..sync..poison..PoisonError$LT$T$GT$$u20$as$u20$core..fmt..Debug$GT$3fmt17hdab25b09e2acb206E" to i8*), [0 x i8] zeroinitializer }>, align 8
@vtable.b = private unnamed_addr constant <{ i8*, [16 x i8], i8*, [0 x i8] }> <{ i8* bitcast (void ({ i64*, i8 }*)* @"_ZN4core3ptr105drop_in_place$LT$std..sync..poison..PoisonError$LT$std..sync..rwlock..RwLockWriteGuard$LT$i32$GT$$GT$$GT$17hcd4e14d7be50d595E" to i8*), [16 x i8] c"\10\00\00\00\00\00\00\00\08\00\00\00\00\00\00\00", i8* bitcast (i1 ({ i64*, i8 }*, %"core::fmt::Formatter"*)* @"_ZN76_$LT$std..sync..poison..PoisonError$LT$T$GT$$u20$as$u20$core..fmt..Debug$GT$3fmt17hf86fd2058421a8f1E" to i8*), [0 x i8] zeroinitializer }>, align 8
@vtable.c = private unnamed_addr constant <{ i8*, [16 x i8], i8*, [0 x i8] }> <{ i8* bitcast (void ({ i64*, i8 }*)* @"_ZN4core3ptr145drop_in_place$LT$std..sync..poison..PoisonError$LT$std..sync..mutex..MutexGuard$LT$alloc..collections..vec_deque..VecDeque$LT$i32$GT$$GT$$GT$$GT$17hc8311b3a2fb80a78E" to i8*), [16 x i8] c"\10\00\00\00\00\00\00\00\08\00\00\00\00\00\00\00", i8* bitcast (i1 ({ i64*, i8 }*, %"core::fmt::Formatter"*)* @"_ZN76_$LT$std..sync..poison..PoisonError$LT$T$GT$$u20$as$u20$core..fmt..Debug$GT$3fmt17hca53bef3b42bfa6bE" to i8*), [0 x i8] zeroinitializer }>, align 8
@vtable.d = private unnamed_addr constant <{ i8*, [16 x i8], i8*, [0 x i8] }> <{ i8* bitcast (void (i64**)* @"_ZN4core3ptr104drop_in_place$LT$std..sync..poison..PoisonError$LT$std..sync..rwlock..RwLockReadGuard$LT$i32$GT$$GT$$GT$17hc00c6a3dbc8306b5E" to i8*), [16 x i8] c"\08\00\00\00\00\00\00\00\08\00\00\00\00\00\00\00", i8* bitcast (i1 (i64**, %"core::fmt::Formatter"*)* @"_ZN76_$LT$std..sync..poison..PoisonError$LT$T$GT$$u20$as$u20$core..fmt..Debug$GT$3fmt17h39f93223cb57838cE" to i8*), [0 x i8] zeroinitializer }>, align 8
@vtable.e = private unnamed_addr constant <{ i8*, [16 x i8], i8*, [0 x i8] }> <{ i8* bitcast (void ({ i64*, i8 }*)* @"_ZN4core3ptr103drop_in_place$LT$std..sync..poison..PoisonError$LT$std..sync..mutex..MutexGuard$LT$$LP$$RP$$GT$$GT$$GT$17h9dabfa2b54ef84d2E" to i8*), [16 x i8] c"\10\00\00\00\00\00\00\00\08\00\00\00\00\00\00\00", i8* bitcast (i1 ({ i64*, i8 }*, %"core::fmt::Formatter"*)* @"_ZN76_$LT$std..sync..poison..PoisonError$LT$T$GT$$u20$as$u20$core..fmt..Debug$GT$3fmt17hbd0989bc47ff2b9aE" to i8*), [0 x i8] zeroinitializer }>, align 8
@vtable.f = private unnamed_addr constant <{ i8*, [16 x i8], i8*, [0 x i8] }> <{ i8* bitcast (void ({ i64*, i8 }*)* @"_ZN4core3ptr108drop_in_place$LT$std..sync..poison..PoisonError$LT$std..sync..mutex..MutexGuard$LT$std..fs..File$GT$$GT$$GT$17hef8b788b9abac303E" to i8*), [16 x i8] c"\10\00\00\00\00\00\00\00\08\00\00\00\00\00\00\00", i8* bitcast (i1 ({ i64*, i8 }*, %"core::fmt::Formatter"*)* @"_ZN76_$LT$std..sync..poison..PoisonError$LT$T$GT$$u20$as$u20$core..fmt..Debug$GT$3fmt17h85261de5cae6d1d7E" to i8*), [0 x i8] zeroinitializer }>, align 8
@vtable.g = private unnamed_addr constant <{ i8*, [16 x i8], i8*, [0 x i8] }> <{ i8* bitcast (void (i8*)* @"_ZN4core3ptr52drop_in_place$LT$core..num..error..ParseIntError$GT$17hb0b2760884451146E" to i8*), [16 x i8] c"\01\00\00\00\00\00\00\00\01\00\00\00\00\00\00\00", i8* bitcast (i1 (i8*, %"core::fmt::Formatter"*)* @"_ZN68_$LT$core..num..error..ParseIntError$u20$as$u20$core..fmt..Debug$GT$3fmt17he685b773c162151eE" to i8*), [0 x i8] zeroinitializer }>, align 8
@vtable.h = private unnamed_addr constant <{ i8*, [16 x i8], i8*, [0 x i8] }> <{ i8* bitcast (void (%"core::str::error::Utf8Error"*)* @"_ZN4core3ptr48drop_in_place$LT$core..str..error..Utf8Error$GT$17h8791befe6fd7b788E" to i8*), [16 x i8] c"\10\00\00\00\00\00\00\00\08\00\00\00\00\00\00\00", i8* bitcast (i1 (%"core::str::error::Utf8Error"*, %"core::fmt::Formatter"*)* @"_ZN64_$LT$core..str..error..Utf8Error$u20$as$u20$core..fmt..Debug$GT$3fmt17h1c178a3c145491d4E" to i8*), [0 x i8] zeroinitializer }>, align 8
@vtable.i = private unnamed_addr constant <{ i8*, [16 x i8], i8*, [0 x i8] }> <{ i8* bitcast (void ({ i64, i64 }**)* @"_ZN4core3ptr58drop_in_place$LT$$RF$core..option..Option$LT$usize$GT$$GT$17hefabcf07edef6565E" to i8*), [16 x i8] c"\08\00\00\00\00\00\00\00\08\00\00\00\00\00\00\00", i8* bitcast (i1 ({ i64, i64 }**, %"core::fmt::Formatter"*)* @"_ZN42_$LT$$RF$T$u20$as$u20$core..fmt..Debug$GT$3fmt17he3c8612b608bf411E" to i8*), [0 x i8] zeroinitializer }>, align 8
@alloc569 = private unnamed_addr constant <{ [17 x i8] }> <{ [17 x i8] c"capacity overflow" }>, align 1
@alloc573 = private unnamed_addr constant <{ [90 x i8] }> <{ [90 x i8] c"/build/rustc-7HAmMa/rustc-1.57.0+dfsg1+llvm/library/alloc/src/collections/vec_deque/mod.rs" }>, align 1
@alloc571 = private unnamed_addr constant <{ i8*, [16 x i8] }> <{ i8* getelementptr inbounds (<{ [90 x i8] }>, <{ [90 x i8] }>* @alloc573, i32 0, i32 0, i32 0), [16 x i8] c"Z\00\00\00\00\00\00\00$\02\00\00\09\00\00\00" }>, align 8
@alloc572 = private unnamed_addr constant <{ [43 x i8] }> <{ [43 x i8] c"assertion failed: self.cap() == old_cap * 2" }>, align 1
@alloc574 = private unnamed_addr constant <{ i8*, [16 x i8] }> <{ i8* getelementptr inbounds (<{ [90 x i8] }>, <{ [90 x i8] }>* @alloc573, i32 0, i32 0, i32 0), [16 x i8] c"Z\00\00\00\00\00\00\00\8D\08\00\00\0D\00\00\00" }>, align 8
@1 = private unnamed_addr constant <{ [16 x i8] }> <{ [16 x i8] c"\08\00\00\00\00\00\00\00\00\00\00\00\00\00\00\00" }>, align 8
@2 = private unnamed_addr constant <{ [16 x i8] }> <{ [16 x i8] c"\01\00\00\00\00\00\00\00\00\00\00\00\00\00\00\00" }>, align 8
@alloc269 = private unnamed_addr constant <{ [0 x i8] }> zeroinitializer, align 8
@alloc575 = private unnamed_addr constant <{ [72 x i8] }> <{ [72 x i8] c"/build/rustc-7HAmMa/rustc-1.57.0+dfsg1+llvm/library/alloc/src/raw_vec.rs" }>, align 1
@alloc576 = private unnamed_addr constant <{ i8*, [16 x i8] }> <{ i8* getelementptr inbounds (<{ [72 x i8] }>, <{ [72 x i8] }>* @alloc575, i32 0, i32 0, i32 0), [16 x i8] c"H\00\00\00\00\00\00\00\9A\01\00\00\09\00\00\00" }>, align 8
@str.j = internal constant [25 x i8] c"attempt to divide by zero"
@alloc577 = private unnamed_addr constant <{ [4 x i8] }> <{ [4 x i8] c"Some" }>, align 1
@vtable.k = private unnamed_addr constant <{ i8*, [16 x i8], i8*, [0 x i8] }> <{ i8* bitcast (void (i64**)* @"_ZN4core3ptr30drop_in_place$LT$$RF$usize$GT$17h19237c4617f9bc32E" to i8*), [16 x i8] c"\08\00\00\00\00\00\00\00\08\00\00\00\00\00\00\00", i8* bitcast (i1 (i64**, %"core::fmt::Formatter"*)* @"_ZN42_$LT$$RF$T$u20$as$u20$core..fmt..Debug$GT$3fmt17h1423a36f1dfab93bE" to i8*), [0 x i8] zeroinitializer }>, align 8
@alloc581 = private unnamed_addr constant <{ [4 x i8] }> <{ [4 x i8] c"None" }>, align 1
@alloc587 = private unnamed_addr constant <{ [11 x i8] }> <{ [11 x i8] c"PoisonError" }>, align 1
@vtable.l = private unnamed_addr constant <{ i8*, [16 x i8], i8*, [0 x i8] }> <{ i8* bitcast (void ({ [0 x i8]*, i64 }*)* @"_ZN4core3ptr28drop_in_place$LT$$RF$str$GT$17h9fbf1424ed5c113aE" to i8*), [16 x i8] c"\10\00\00\00\00\00\00\00\08\00\00\00\00\00\00\00", i8* bitcast (i64 ({ [0 x i8]*, i64 }*)* @"_ZN36_$LT$T$u20$as$u20$core..any..Any$GT$7type_id17h429444587d557444E" to i8*), [0 x i8] zeroinitializer }>, align 8
@alloc591 = private unnamed_addr constant <{ [98 x i8] }> <{ [98 x i8] c"/build/rustc-7HAmMa/rustc-1.57.0+dfsg1+llvm/library/alloc/src/collections/vec_deque/ring_slices.rs" }>, align 1
@alloc592 = private unnamed_addr constant <{ i8*, [16 x i8] }> <{ i8* getelementptr inbounds (<{ [98 x i8] }>, <{ [98 x i8] }>* @alloc591, i32 0, i32 0, i32 0), [16 x i8] c"b\00\00\00\00\00\00\00 \00\00\00\0E\00\00\00" }>, align 8
@_ZN9probe_tle9_PROBE_FP17hec22655762462ef8E = internal global <{ [8 x i8] }> zeroinitializer, align 8
@_ZN9probe_tle15_PROBE_THRD_SEM17h3b4f837b99158c04E = internal global <{ [8 x i8] }> zeroinitializer, align 8
@_ZN9probe_tle20_PROBE_NEW_THREAD_ID17hfb79ff6743752cd9E = internal global <{ [24 x i8] }> zeroinitializer, align 8
@_ZN9probe_tle15_SHUFFLED_ORDER17h638985828a80dff6E = internal global <{ [8 x i8] }> zeroinitializer, align 8
@alloc593 = private unnamed_addr constant <{ [3 x i8] }> <{ [3 x i8] c"log" }>, align 1
@alloc680 = private unnamed_addr constant <{ [20 x i8] }> <{ [20 x i8] c"./probe/probe_tle.rs" }>, align 1
@alloc595 = private unnamed_addr constant <{ i8*, [16 x i8] }> <{ i8* getelementptr inbounds (<{ [20 x i8] }>, <{ [20 x i8] }>* @alloc680, i32 0, i32 0, i32 0), [16 x i8] c"\14\00\00\00\00\00\00\00)\00\00\00.\00\00\00" }>, align 8
@alloc597 = private unnamed_addr constant <{ i8*, [16 x i8] }> <{ i8* getelementptr inbounds (<{ [20 x i8] }>, <{ [20 x i8] }>* @alloc680, i32 0, i32 0, i32 0), [16 x i8] c"\14\00\00\00\00\00\00\00+\00\00\001\00\00\00" }>, align 8
@alloc106 = private unnamed_addr constant <{ [54 x i8] }> <{ [54 x i8] c"---------------------From _init_---------------------\0A" }>, align 1
@alloc107 = private unnamed_addr constant <{ i8*, [8 x i8] }> <{ i8* getelementptr inbounds (<{ [54 x i8] }>, <{ [54 x i8] }>* @alloc106, i32 0, i32 0, i32 0), [8 x i8] c"6\00\00\00\00\00\00\00" }>, align 8
@alloc653 = private unnamed_addr constant <{ [13 x i8] }> <{ [13 x i8] c"write failed\0A" }>, align 1
@alloc600 = private unnamed_addr constant <{ i8*, [16 x i8] }> <{ i8* getelementptr inbounds (<{ [20 x i8] }>, <{ [20 x i8] }>* @alloc680, i32 0, i32 0, i32 0), [16 x i8] c"\14\00\00\00\00\00\00\00,\00\00\00\\\00\00\00" }>, align 8
@alloc113 = private unnamed_addr constant <{ [23 x i8] }> <{ [23 x i8] c"ThreadId(1) :     main\0A" }>, align 1
@alloc114 = private unnamed_addr constant <{ i8*, [8 x i8] }> <{ i8* getelementptr inbounds (<{ [23 x i8] }>, <{ [23 x i8] }>* @alloc113, i32 0, i32 0, i32 0), [8 x i8] c"\17\00\00\00\00\00\00\00" }>, align 8
@alloc603 = private unnamed_addr constant <{ i8*, [16 x i8] }> <{ i8* getelementptr inbounds (<{ [20 x i8] }>, <{ [20 x i8] }>* @alloc680, i32 0, i32 0, i32 0), [16 x i8] c"\14\00\00\00\00\00\00\00.\00\00\00=\00\00\00" }>, align 8
@alloc604 = private unnamed_addr constant <{ [8 x i8] }> <{ [8 x i8] c"scenario" }>, align 1
@alloc122 = private unnamed_addr constant <{ [28 x i8] }> <{ [28 x i8] c"DEBUG read scenario success\0A" }>, align 1
@alloc123 = private unnamed_addr constant <{ i8*, [8 x i8] }> <{ i8* getelementptr inbounds (<{ [28 x i8] }>, <{ [28 x i8] }>* @alloc122, i32 0, i32 0, i32 0), [8 x i8] c"\1C\00\00\00\00\00\00\00" }>, align 8
@alloc605 = private unnamed_addr constant <{ [23 x i8] }> <{ [23 x i8] c"fail to read from file\0A" }>, align 1
@alloc607 = private unnamed_addr constant <{ i8*, [16 x i8] }> <{ i8* getelementptr inbounds (<{ [20 x i8] }>, <{ [20 x i8] }>* @alloc680, i32 0, i32 0, i32 0), [16 x i8] c"\14\00\00\00\00\00\00\006\00\00\00?\00\00\00" }>, align 8
@alloc296 = private unnamed_addr constant <{ i8*, [0 x i8] }> <{ i8* bitcast (i64* ()* @_ZN9probe_tle3TID7__getit17h37c28b5d351cffcbE to i8*), [0 x i8] zeroinitializer }>, align 8
@alloc608 = private unnamed_addr constant <{ [1 x i8] }> <{ [1 x i8] c"1" }>, align 1
@alloc610 = private unnamed_addr constant <{ i8*, [16 x i8] }> <{ i8* getelementptr inbounds (<{ [20 x i8] }>, <{ [20 x i8] }>* @alloc680, i32 0, i32 0, i32 0), [16 x i8] c"\14\00\00\00\00\00\00\00=\00\00\00\0D\00\00\00" }>, align 8
@alloc612 = private unnamed_addr constant <{ i8*, [16 x i8] }> <{ i8* getelementptr inbounds (<{ [20 x i8] }>, <{ [20 x i8] }>* @alloc680, i32 0, i32 0, i32 0), [16 x i8] c"\14\00\00\00\00\00\00\00D\00\00\001\00\00\00" }>, align 8
@alloc159 = private unnamed_addr constant <{ [54 x i8] }> <{ [54 x i8] c"---------------------From _final---------------------\0A" }>, align 1
@alloc160 = private unnamed_addr constant <{ i8*, [8 x i8] }> <{ i8* getelementptr inbounds (<{ [54 x i8] }>, <{ [54 x i8] }>* @alloc159, i32 0, i32 0, i32 0), [8 x i8] c"6\00\00\00\00\00\00\00" }>, align 8
@alloc615 = private unnamed_addr constant <{ i8*, [16 x i8] }> <{ i8* getelementptr inbounds (<{ [20 x i8] }>, <{ [20 x i8] }>* @alloc680, i32 0, i32 0, i32 0), [16 x i8] c"\14\00\00\00\00\00\00\00E\00\00\00\\\00\00\00" }>, align 8
@alloc617 = private unnamed_addr constant <{ i8*, [16 x i8] }> <{ i8* getelementptr inbounds (<{ [20 x i8] }>, <{ [20 x i8] }>* @alloc680, i32 0, i32 0, i32 0), [16 x i8] c"\14\00\00\00\00\00\00\00M\00\00\00D\00\00\00" }>, align 8
@alloc619 = private unnamed_addr constant <{ i8*, [16 x i8] }> <{ i8* getelementptr inbounds (<{ [20 x i8] }>, <{ [20 x i8] }>* @alloc680, i32 0, i32 0, i32 0), [16 x i8] c"\14\00\00\00\00\00\00\00P\00\00\005\00\00\00" }>, align 8
@alloc324 = private unnamed_addr constant <{ [5 x i8] }> <{ [5 x i8] c"tid: " }>, align 1
@alloc236 = private unnamed_addr constant <{ [14 x i8] }> <{ [14 x i8] c" | func_name: " }>, align 1
@alloc237 = private unnamed_addr constant <{ [9 x i8] }> <{ [9 x i8] c" | line: " }>, align 1
@alloc303 = private unnamed_addr constant <{ [13 x i8] }> <{ [13 x i8] c" | func_num: " }>, align 1
@alloc195 = private unnamed_addr constant <{ [18 x i8] }> <{ [18 x i8] c" | lock_var_addr: " }>, align 1
@alloc196 = private unnamed_addr constant <{ [1 x i8] }> <{ [1 x i8] c"\0A" }>, align 1
@alloc191 = private unnamed_addr constant <{ i8*, [8 x i8], i8*, [8 x i8], i8*, [8 x i8], i8*, [8 x i8], i8*, [8 x i8], i8*, [8 x i8] }> <{ i8* getelementptr inbounds (<{ [5 x i8] }>, <{ [5 x i8] }>* @alloc324, i32 0, i32 0, i32 0), [8 x i8] c"\05\00\00\00\00\00\00\00", i8* getelementptr inbounds (<{ [14 x i8] }>, <{ [14 x i8] }>* @alloc236, i32 0, i32 0, i32 0), [8 x i8] c"\0E\00\00\00\00\00\00\00", i8* getelementptr inbounds (<{ [9 x i8] }>, <{ [9 x i8] }>* @alloc237, i32 0, i32 0, i32 0), [8 x i8] c"\09\00\00\00\00\00\00\00", i8* getelementptr inbounds (<{ [13 x i8] }>, <{ [13 x i8] }>* @alloc303, i32 0, i32 0, i32 0), [8 x i8] c"\0D\00\00\00\00\00\00\00", i8* getelementptr inbounds (<{ [18 x i8] }>, <{ [18 x i8] }>* @alloc195, i32 0, i32 0, i32 0), [8 x i8] c"\12\00\00\00\00\00\00\00", i8* getelementptr inbounds (<{ [1 x i8] }>, <{ [1 x i8] }>* @alloc196, i32 0, i32 0, i32 0), [8 x i8] c"\01\00\00\00\00\00\00\00" }>, align 8
@alloc621 = private unnamed_addr constant <{ i8*, [16 x i8] }> <{ i8* getelementptr inbounds (<{ [20 x i8] }>, <{ [20 x i8] }>* @alloc680, i32 0, i32 0, i32 0), [16 x i8] c"\14\00\00\00\00\00\00\00R\00\00\00%\00\00\00" }>, align 8
@alloc223 = private unnamed_addr constant <{ [280 x i8] }> <{ [280 x i8] c"\00\00\00\00\00\00\00\00\02\00\00\00\00\00\00\00\00\00\00\00\00\00\00\00\02\00\00\00\00\00\00\00\00\00\00\00\00\00\00\00 \00\00\00\00\00\00\00\03\00\00\00\00\00\00\00\01\00\00\00\00\00\00\00\02\00\00\00\00\00\00\00\00\00\00\00\00\00\00\00\00\00\00\00\00\00\00\00\08\00\00\00\00\00\00\00 \00\00\00\00\00\00\00\01\00\00\00\00\00\00\00\02\00\00\00\00\00\00\00\02\00\00\00\00\00\00\00\00\00\00\00\00\00\00\00\00\00\00\00\00\00\00\00\04\00\00\00\00\00\00\00 \00\00\00\00\00\00\00\01\00\00\00\00\00\00\00\03\00\00\00\00\00\00\00\02\00\00\00\00\00\00\00\00\00\00\00\00\00\00\00\02\00\00\00\00\00\00\00\00\00\00\00\00\00\00\00 \00\00\00\00\00\00\00\03\00\00\00\00\00\00\00\04\00\00\00\00\00\00\00\02\00\00\00\00\00\00\00\00\00\00\00\00\00\00\00\02\00\00\00\00\00\00\00\00\00\00\00\00\00\00\00 \00\00\00\00\00\00\00\03\00\00\00\00\00\00\00" }>, align 8
@alloc624 = private unnamed_addr constant <{ i8*, [16 x i8] }> <{ i8* getelementptr inbounds (<{ [20 x i8] }>, <{ [20 x i8] }>* @alloc680, i32 0, i32 0, i32 0), [16 x i8] c"\14\00\00\00\00\00\00\00R\00\00\00]\00\00\00" }>, align 8
@alloc626 = private unnamed_addr constant <{ i8*, [16 x i8] }> <{ i8* getelementptr inbounds (<{ [20 x i8] }>, <{ [20 x i8] }>* @alloc680, i32 0, i32 0, i32 0), [16 x i8] c"\14\00\00\00\00\00\00\00_\00\00\00D\00\00\00" }>, align 8
@alloc628 = private unnamed_addr constant <{ i8*, [16 x i8] }> <{ i8* getelementptr inbounds (<{ [20 x i8] }>, <{ [20 x i8] }>* @alloc680, i32 0, i32 0, i32 0), [16 x i8] c"\14\00\00\00\00\00\00\00b\00\00\005\00\00\00" }>, align 8
@alloc277 = private unnamed_addr constant <{ [3 x i8] }> <{ [3 x i8] c" |\0A" }>, align 1
@alloc235 = private unnamed_addr constant <{ i8*, [8 x i8], i8*, [8 x i8], i8*, [8 x i8], i8*, [8 x i8], i8*, [8 x i8] }> <{ i8* getelementptr inbounds (<{ [5 x i8] }>, <{ [5 x i8] }>* @alloc324, i32 0, i32 0, i32 0), [8 x i8] c"\05\00\00\00\00\00\00\00", i8* getelementptr inbounds (<{ [14 x i8] }>, <{ [14 x i8] }>* @alloc236, i32 0, i32 0, i32 0), [8 x i8] c"\0E\00\00\00\00\00\00\00", i8* getelementptr inbounds (<{ [9 x i8] }>, <{ [9 x i8] }>* @alloc237, i32 0, i32 0, i32 0), [8 x i8] c"\09\00\00\00\00\00\00\00", i8* getelementptr inbounds (<{ [13 x i8] }>, <{ [13 x i8] }>* @alloc303, i32 0, i32 0, i32 0), [8 x i8] c"\0D\00\00\00\00\00\00\00", i8* getelementptr inbounds (<{ [3 x i8] }>, <{ [3 x i8] }>* @alloc277, i32 0, i32 0, i32 0), [8 x i8] c"\03\00\00\00\00\00\00\00" }>, align 8
@alloc630 = private unnamed_addr constant <{ i8*, [16 x i8] }> <{ i8* getelementptr inbounds (<{ [20 x i8] }>, <{ [20 x i8] }>* @alloc680, i32 0, i32 0, i32 0), [16 x i8] c"\14\00\00\00\00\00\00\00d\00\00\00%\00\00\00" }>, align 8
@alloc261 = private unnamed_addr constant <{ [224 x i8] }> <{ [224 x i8] c"\00\00\00\00\00\00\00\00\02\00\00\00\00\00\00\00\00\00\00\00\00\00\00\00\02\00\00\00\00\00\00\00\00\00\00\00\00\00\00\00 \00\00\00\00\00\00\00\03\00\00\00\00\00\00\00\01\00\00\00\00\00\00\00\02\00\00\00\00\00\00\00\00\00\00\00\00\00\00\00\00\00\00\00\00\00\00\00\08\00\00\00\00\00\00\00 \00\00\00\00\00\00\00\01\00\00\00\00\00\00\00\02\00\00\00\00\00\00\00\02\00\00\00\00\00\00\00\00\00\00\00\00\00\00\00\00\00\00\00\00\00\00\00\04\00\00\00\00\00\00\00 \00\00\00\00\00\00\00\01\00\00\00\00\00\00\00\03\00\00\00\00\00\00\00\02\00\00\00\00\00\00\00\00\00\00\00\00\00\00\00\02\00\00\00\00\00\00\00\00\00\00\00\00\00\00\00 \00\00\00\00\00\00\00\03\00\00\00\00\00\00\00" }>, align 8
@alloc633 = private unnamed_addr constant <{ i8*, [16 x i8] }> <{ i8* getelementptr inbounds (<{ [20 x i8] }>, <{ [20 x i8] }>* @alloc680, i32 0, i32 0, i32 0), [16 x i8] c"\14\00\00\00\00\00\00\00d\00\00\00N\00\00\00" }>, align 8
@alloc635 = private unnamed_addr constant <{ i8*, [16 x i8] }> <{ i8* getelementptr inbounds (<{ [20 x i8] }>, <{ [20 x i8] }>* @alloc680, i32 0, i32 0, i32 0), [16 x i8] c"\14\00\00\00\00\00\00\00u\00\00\00-\00\00\00" }>, align 8
@alloc271 = private unnamed_addr constant <{ [1 x i8] }> <{ [1 x i8] c"." }>, align 1
@alloc270 = private unnamed_addr constant <{ i8*, [8 x i8], i8*, [8 x i8] }> <{ i8* getelementptr inbounds (<{ [0 x i8] }>, <{ [0 x i8] }>* @alloc269, i32 0, i32 0, i32 0), [8 x i8] zeroinitializer, i8* getelementptr inbounds (<{ [1 x i8] }>, <{ [1 x i8] }>* @alloc271, i32 0, i32 0, i32 0), [8 x i8] c"\01\00\00\00\00\00\00\00" }>, align 8
@alloc637 = private unnamed_addr constant <{ i8*, [16 x i8] }> <{ i8* getelementptr inbounds (<{ [20 x i8] }>, <{ [20 x i8] }>* @alloc680, i32 0, i32 0, i32 0), [16 x i8] c"\14\00\00\00\00\00\00\00v\00\00\00B\00\00\00" }>, align 8
@alloc639 = private unnamed_addr constant <{ i8*, [16 x i8] }> <{ i8* getelementptr inbounds (<{ [20 x i8] }>, <{ [20 x i8] }>* @alloc680, i32 0, i32 0, i32 0), [16 x i8] c"\14\00\00\00\00\00\00\00w\00\00\00\11\00\00\00" }>, align 8
@alloc641 = private unnamed_addr constant <{ i8*, [16 x i8] }> <{ i8* getelementptr inbounds (<{ [20 x i8] }>, <{ [20 x i8] }>* @alloc680, i32 0, i32 0, i32 0), [16 x i8] c"\14\00\00\00\00\00\00\00z\00\00\009\00\00\00" }>, align 8
@alloc275 = private unnamed_addr constant <{ [31 x i8] }> <{ [31 x i8] c" | func_name: spawning | line: " }>, align 1
@alloc274 = private unnamed_addr constant <{ i8*, [8 x i8], i8*, [8 x i8], i8*, [8 x i8], i8*, [8 x i8] }> <{ i8* getelementptr inbounds (<{ [5 x i8] }>, <{ [5 x i8] }>* @alloc324, i32 0, i32 0, i32 0), [8 x i8] c"\05\00\00\00\00\00\00\00", i8* getelementptr inbounds (<{ [31 x i8] }>, <{ [31 x i8] }>* @alloc275, i32 0, i32 0, i32 0), [8 x i8] c"\1F\00\00\00\00\00\00\00", i8* getelementptr inbounds (<{ [13 x i8] }>, <{ [13 x i8] }>* @alloc303, i32 0, i32 0, i32 0), [8 x i8] c"\0D\00\00\00\00\00\00\00", i8* getelementptr inbounds (<{ [3 x i8] }>, <{ [3 x i8] }>* @alloc277, i32 0, i32 0, i32 0), [8 x i8] c"\03\00\00\00\00\00\00\00" }>, align 8
@alloc643 = private unnamed_addr constant <{ i8*, [16 x i8] }> <{ i8* getelementptr inbounds (<{ [20 x i8] }>, <{ [20 x i8] }>* @alloc680, i32 0, i32 0, i32 0), [16 x i8] c"\14\00\00\00\00\00\00\00|\00\00\00)\00\00\00" }>, align 8
@alloc321 = private unnamed_addr constant <{ [168 x i8] }> <{ [168 x i8] c"\00\00\00\00\00\00\00\00\02\00\00\00\00\00\00\00\00\00\00\00\00\00\00\00\02\00\00\00\00\00\00\00\00\00\00\00\00\00\00\00 \00\00\00\00\00\00\00\03\00\00\00\00\00\00\00\01\00\00\00\00\00\00\00\02\00\00\00\00\00\00\00\00\00\00\00\00\00\00\00\00\00\00\00\00\00\00\00\04\00\00\00\00\00\00\00 \00\00\00\00\00\00\00\01\00\00\00\00\00\00\00\02\00\00\00\00\00\00\00\02\00\00\00\00\00\00\00\00\00\00\00\00\00\00\00\02\00\00\00\00\00\00\00\00\00\00\00\00\00\00\00 \00\00\00\00\00\00\00\03\00\00\00\00\00\00\00" }>, align 8
@alloc646 = private unnamed_addr constant <{ i8*, [16 x i8] }> <{ i8* getelementptr inbounds (<{ [20 x i8] }>, <{ [20 x i8] }>* @alloc680, i32 0, i32 0, i32 0), [16 x i8] c"\14\00\00\00\00\00\00\00|\00\00\00C\00\00\00" }>, align 8
@alloc267 = private unnamed_addr constant <{ i8*, [0 x i8] }> <{ i8* bitcast (i64* ()* @_ZN9probe_tle8CHILD_ID7__getit17hdbc20204649a9f04E to i8*), [0 x i8] zeroinitializer }>, align 8
@alloc648 = private unnamed_addr constant <{ i8*, [16 x i8] }> <{ i8* getelementptr inbounds (<{ [20 x i8] }>, <{ [20 x i8] }>* @alloc680, i32 0, i32 0, i32 0), [16 x i8] c"\14\00\00\00\00\00\00\00\8B\00\00\00\15\00\00\00" }>, align 8
@alloc650 = private unnamed_addr constant <{ i8*, [16 x i8] }> <{ i8* getelementptr inbounds (<{ [20 x i8] }>, <{ [20 x i8] }>* @alloc680, i32 0, i32 0, i32 0), [16 x i8] c"\14\00\00\00\00\00\00\00\8F\00\00\005\00\00\00" }>, align 8
@alloc302 = private unnamed_addr constant <{ [31 x i8] }> <{ [31 x i8] c" | func_name:  spawned | line: " }>, align 1
@alloc304 = private unnamed_addr constant <{ [4 x i8] }> <{ [4 x i8] c" | \0A" }>, align 1
@alloc301 = private unnamed_addr constant <{ i8*, [8 x i8], i8*, [8 x i8], i8*, [8 x i8], i8*, [8 x i8] }> <{ i8* getelementptr inbounds (<{ [5 x i8] }>, <{ [5 x i8] }>* @alloc324, i32 0, i32 0, i32 0), [8 x i8] c"\05\00\00\00\00\00\00\00", i8* getelementptr inbounds (<{ [31 x i8] }>, <{ [31 x i8] }>* @alloc302, i32 0, i32 0, i32 0), [8 x i8] c"\1F\00\00\00\00\00\00\00", i8* getelementptr inbounds (<{ [13 x i8] }>, <{ [13 x i8] }>* @alloc303, i32 0, i32 0, i32 0), [8 x i8] c"\0D\00\00\00\00\00\00\00", i8* getelementptr inbounds (<{ [4 x i8] }>, <{ [4 x i8] }>* @alloc304, i32 0, i32 0, i32 0), [8 x i8] c"\04\00\00\00\00\00\00\00" }>, align 8
@alloc652 = private unnamed_addr constant <{ i8*, [16 x i8] }> <{ i8* getelementptr inbounds (<{ [20 x i8] }>, <{ [20 x i8] }>* @alloc680, i32 0, i32 0, i32 0), [16 x i8] c"\14\00\00\00\00\00\00\00\91\00\00\00%\00\00\00" }>, align 8
@alloc655 = private unnamed_addr constant <{ i8*, [16 x i8] }> <{ i8* getelementptr inbounds (<{ [20 x i8] }>, <{ [20 x i8] }>* @alloc680, i32 0, i32 0, i32 0), [16 x i8] c"\14\00\00\00\00\00\00\00\91\00\00\00?\00\00\00" }>, align 8
@alloc657 = private unnamed_addr constant <{ i8*, [16 x i8] }> <{ i8* getelementptr inbounds (<{ [20 x i8] }>, <{ [20 x i8] }>* @alloc680, i32 0, i32 0, i32 0), [16 x i8] c"\14\00\00\00\00\00\00\00\AD\00\00\00*\00\00\00" }>, align 8
@alloc659 = private unnamed_addr constant <{ i8*, [16 x i8] }> <{ i8* getelementptr inbounds (<{ [20 x i8] }>, <{ [20 x i8] }>* @alloc680, i32 0, i32 0, i32 0), [16 x i8] c"\14\00\00\00\00\00\00\00\AE\00\00\00\09\00\00\00" }>, align 8
@str.m = internal constant [33 x i8] c"attempt to subtract with overflow"
@alloc661 = private unnamed_addr constant <{ i8*, [16 x i8] }> <{ i8* getelementptr inbounds (<{ [20 x i8] }>, <{ [20 x i8] }>* @alloc680, i32 0, i32 0, i32 0), [16 x i8] c"\14\00\00\00\00\00\00\00\B0\00\00\00)\00\00\00" }>, align 8
@alloc663 = private unnamed_addr constant <{ i8*, [16 x i8] }> <{ i8* getelementptr inbounds (<{ [20 x i8] }>, <{ [20 x i8] }>* @alloc680, i32 0, i32 0, i32 0), [16 x i8] c"\14\00\00\00\00\00\00\00\B4\00\00\00*\00\00\00" }>, align 8
@alloc665 = private unnamed_addr constant <{ i8*, [16 x i8] }> <{ i8* getelementptr inbounds (<{ [20 x i8] }>, <{ [20 x i8] }>* @alloc680, i32 0, i32 0, i32 0), [16 x i8] c"\14\00\00\00\00\00\00\00\B5\00\00\00\09\00\00\00" }>, align 8
@alloc326 = private unnamed_addr constant <{ [14 x i8] }> <{ [14 x i8] c", parent_tid: " }>, align 1
@alloc327 = private unnamed_addr constant <{ [8 x i8] }> <{ [8 x i8] c", line: " }>, align 1
@alloc328 = private unnamed_addr constant <{ [8 x i8] }> <{ [8 x i8] c", func: " }>, align 1
@alloc329 = private unnamed_addr constant <{ [12 x i8] }> <{ [12 x i8] c", func_num: " }>, align 1
@alloc343 = private unnamed_addr constant <{ [7 x i8] }> <{ [7 x i8] c", var: " }>, align 1
@alloc338 = private unnamed_addr constant <{ i8*, [8 x i8], i8*, [8 x i8], i8*, [8 x i8], i8*, [8 x i8], i8*, [8 x i8], i8*, [8 x i8] }> <{ i8* getelementptr inbounds (<{ [5 x i8] }>, <{ [5 x i8] }>* @alloc324, i32 0, i32 0, i32 0), [8 x i8] c"\05\00\00\00\00\00\00\00", i8* getelementptr inbounds (<{ [14 x i8] }>, <{ [14 x i8] }>* @alloc326, i32 0, i32 0, i32 0), [8 x i8] c"\0E\00\00\00\00\00\00\00", i8* getelementptr inbounds (<{ [8 x i8] }>, <{ [8 x i8] }>* @alloc327, i32 0, i32 0, i32 0), [8 x i8] c"\08\00\00\00\00\00\00\00", i8* getelementptr inbounds (<{ [8 x i8] }>, <{ [8 x i8] }>* @alloc328, i32 0, i32 0, i32 0), [8 x i8] c"\08\00\00\00\00\00\00\00", i8* getelementptr inbounds (<{ [12 x i8] }>, <{ [12 x i8] }>* @alloc329, i32 0, i32 0, i32 0), [8 x i8] c"\0C\00\00\00\00\00\00\00", i8* getelementptr inbounds (<{ [7 x i8] }>, <{ [7 x i8] }>* @alloc343, i32 0, i32 0, i32 0), [8 x i8] c"\07\00\00\00\00\00\00\00" }>, align 8
@alloc383 = private unnamed_addr constant <{ [336 x i8] }> <{ [336 x i8] c"\00\00\00\00\00\00\00\00\02\00\00\00\00\00\00\00\00\00\00\00\00\00\00\00\00\00\00\00\00\00\00\00\03\00\00\00\00\00\00\00 \00\00\00\00\00\00\00\01\00\00\00\00\00\00\00\01\00\00\00\00\00\00\00\02\00\00\00\00\00\00\00\00\00\00\00\00\00\00\00\00\00\00\00\00\00\00\00\03\00\00\00\00\00\00\00 \00\00\00\00\00\00\00\01\00\00\00\00\00\00\00\02\00\00\00\00\00\00\00\02\00\00\00\00\00\00\00\00\00\00\00\00\00\00\00\00\00\00\00\00\00\00\00\04\00\00\00\00\00\00\00 \00\00\00\00\00\00\00\01\00\00\00\00\00\00\00\03\00\00\00\00\00\00\00\02\00\00\00\00\00\00\00\00\00\00\00\00\00\00\00\00\00\00\00\00\00\00\00\08\00\00\00\00\00\00\00 \00\00\00\00\00\00\00\01\00\00\00\00\00\00\00\04\00\00\00\00\00\00\00\02\00\00\00\00\00\00\00\00\00\00\00\00\00\00\00\00\00\00\00\00\00\00\00\03\00\00\00\00\00\00\00 \00\00\00\00\00\00\00\01\00\00\00\00\00\00\00\05\00\00\00\00\00\00\00\02\00\00\00\00\00\00\00\00\00\00\00\00\00\00\00\02\00\00\00\00\00\00\00\00\00\00\00\00\00\00\00 \00\00\00\00\00\00\00\03\00\00\00\00\00\00\00" }>, align 8
@alloc330 = private unnamed_addr constant <{ [11 x i8] }> <{ [11 x i8] c", var: None" }>, align 1
@alloc325 = private unnamed_addr constant <{ i8*, [8 x i8], i8*, [8 x i8], i8*, [8 x i8], i8*, [8 x i8], i8*, [8 x i8], i8*, [8 x i8] }> <{ i8* getelementptr inbounds (<{ [5 x i8] }>, <{ [5 x i8] }>* @alloc324, i32 0, i32 0, i32 0), [8 x i8] c"\05\00\00\00\00\00\00\00", i8* getelementptr inbounds (<{ [14 x i8] }>, <{ [14 x i8] }>* @alloc326, i32 0, i32 0, i32 0), [8 x i8] c"\0E\00\00\00\00\00\00\00", i8* getelementptr inbounds (<{ [8 x i8] }>, <{ [8 x i8] }>* @alloc327, i32 0, i32 0, i32 0), [8 x i8] c"\08\00\00\00\00\00\00\00", i8* getelementptr inbounds (<{ [8 x i8] }>, <{ [8 x i8] }>* @alloc328, i32 0, i32 0, i32 0), [8 x i8] c"\08\00\00\00\00\00\00\00", i8* getelementptr inbounds (<{ [12 x i8] }>, <{ [12 x i8] }>* @alloc329, i32 0, i32 0, i32 0), [8 x i8] c"\0C\00\00\00\00\00\00\00", i8* getelementptr inbounds (<{ [11 x i8] }>, <{ [11 x i8] }>* @alloc330, i32 0, i32 0, i32 0), [8 x i8] c"\0B\00\00\00\00\00\00\00" }>, align 8
@alloc411 = private unnamed_addr constant <{ [280 x i8] }> <{ [280 x i8] c"\00\00\00\00\00\00\00\00\02\00\00\00\00\00\00\00\00\00\00\00\00\00\00\00\00\00\00\00\00\00\00\00\03\00\00\00\00\00\00\00 \00\00\00\00\00\00\00\01\00\00\00\00\00\00\00\01\00\00\00\00\00\00\00\02\00\00\00\00\00\00\00\00\00\00\00\00\00\00\00\00\00\00\00\00\00\00\00\03\00\00\00\00\00\00\00 \00\00\00\00\00\00\00\01\00\00\00\00\00\00\00\02\00\00\00\00\00\00\00\02\00\00\00\00\00\00\00\00\00\00\00\00\00\00\00\00\00\00\00\00\00\00\00\04\00\00\00\00\00\00\00 \00\00\00\00\00\00\00\01\00\00\00\00\00\00\00\03\00\00\00\00\00\00\00\02\00\00\00\00\00\00\00\00\00\00\00\00\00\00\00\00\00\00\00\00\00\00\00\08\00\00\00\00\00\00\00 \00\00\00\00\00\00\00\01\00\00\00\00\00\00\00\04\00\00\00\00\00\00\00\02\00\00\00\00\00\00\00\00\00\00\00\00\00\00\00\00\00\00\00\00\00\00\00\03\00\00\00\00\00\00\00 \00\00\00\00\00\00\00\01\00\00\00\00\00\00\00" }>, align 8
@alloc667 = private unnamed_addr constant <{ i8*, [16 x i8] }> <{ i8* getelementptr inbounds (<{ [20 x i8] }>, <{ [20 x i8] }>* @alloc680, i32 0, i32 0, i32 0), [16 x i8] c"\14\00\00\00\00\00\00\00\DF\00\00\006\00\00\00" }>, align 8
@alloc669 = private unnamed_addr constant <{ i8*, [16 x i8] }> <{ i8* getelementptr inbounds (<{ [20 x i8] }>, <{ [20 x i8] }>* @alloc680, i32 0, i32 0, i32 0), [16 x i8] c"\14\00\00\00\00\00\00\00\E1\00\00\00/\00\00\00" }>, align 8
@alloc671 = private unnamed_addr constant <{ i8*, [16 x i8] }> <{ i8* getelementptr inbounds (<{ [20 x i8] }>, <{ [20 x i8] }>* @alloc680, i32 0, i32 0, i32 0), [16 x i8] c"\14\00\00\00\00\00\00\00\EC\00\00\00'\00\00\00" }>, align 8
@alloc673 = private unnamed_addr constant <{ i8*, [16 x i8] }> <{ i8* getelementptr inbounds (<{ [20 x i8] }>, <{ [20 x i8] }>* @alloc680, i32 0, i32 0, i32 0), [16 x i8] c"\14\00\00\00\00\00\00\00\ED\00\00\007\00\00\00" }>, align 8
@alloc675 = private unnamed_addr constant <{ i8*, [16 x i8] }> <{ i8* getelementptr inbounds (<{ [20 x i8] }>, <{ [20 x i8] }>* @alloc680, i32 0, i32 0, i32 0), [16 x i8] c"\14\00\00\00\00\00\00\00\F0\00\00\00+\00\00\00" }>, align 8
@alloc677 = private unnamed_addr constant <{ i8*, [16 x i8] }> <{ i8* getelementptr inbounds (<{ [20 x i8] }>, <{ [20 x i8] }>* @alloc680, i32 0, i32 0, i32 0), [16 x i8] c"\14\00\00\00\00\00\00\00\F1\00\00\003\00\00\00" }>, align 8
@alloc679 = private unnamed_addr constant <{ i8*, [16 x i8] }> <{ i8* getelementptr inbounds (<{ [20 x i8] }>, <{ [20 x i8] }>* @alloc680, i32 0, i32 0, i32 0), [16 x i8] c"\14\00\00\00\00\00\00\00\F6\00\00\001\00\00\00" }>, align 8
@alloc681 = private unnamed_addr constant <{ i8*, [16 x i8] }> <{ i8* getelementptr inbounds (<{ [20 x i8] }>, <{ [20 x i8] }>* @alloc680, i32 0, i32 0, i32 0), [16 x i8] c"\14\00\00\00\00\00\00\00\FA\00\00\003\00\00\00" }>, align 8
@alloc682 = private unnamed_addr constant <{ [4 x i8] }> <{ [4 x i8] c"none" }>, align 1
@_ZN9probe_tle3TID7__getit5__KEY17hf86e3cd814c9b041E = internal thread_local global <{ [48 x i8] }> zeroinitializer, align 8
@_ZN9probe_tle8CHILD_ID7__getit5__KEY17h77ab8dfced1ef3b1E = internal thread_local global <{ [32 x i8] }> zeroinitializer, align 8

; <alloc::vec::into_iter::IntoIter<T,A> as core::iter::traits::iterator::Iterator>::next
; Function Attrs: inlinehint nonlazybind uwtable
define { i8*, i64 } @"_ZN103_$LT$alloc..vec..into_iter..IntoIter$LT$T$C$A$GT$$u20$as$u20$core..iter..traits..iterator..Iterator$GT$4next17hb80d59ce6085ce06E"(%"alloc::vec::into_iter::IntoIter<&str>"* align 8 dereferenceable(32) %self) unnamed_addr #0 {
start:
  %0 = alloca { [0 x i8]*, i64 }*, align 8
  %1 = alloca i8*, align 8
  %2 = alloca { i8*, i64 }, align 8
  %3 = getelementptr inbounds %"alloc::vec::into_iter::IntoIter<&str>", %"alloc::vec::into_iter::IntoIter<&str>"* %self, i32 0, i32 4
  %_4 = load { [0 x i8]*, i64 }*, { [0 x i8]*, i64 }** %3, align 8
  %4 = getelementptr inbounds %"alloc::vec::into_iter::IntoIter<&str>", %"alloc::vec::into_iter::IntoIter<&str>"* %self, i32 0, i32 5
  %_5 = load { [0 x i8]*, i64 }*, { [0 x i8]*, i64 }** %4, align 8
  %_2 = icmp eq { [0 x i8]*, i64 }* %_4, %_5
  br i1 %_2, label %bb1, label %bb2

bb2:                                              ; preds = %start
  br label %bb3

bb1:                                              ; preds = %start
  %5 = bitcast { i8*, i64 }* %2 to {}**
  store {}* null, {}** %5, align 8
  br label %bb11

bb11:                                             ; preds = %bb10, %bb1
  %6 = getelementptr inbounds { i8*, i64 }, { i8*, i64 }* %2, i32 0, i32 0
  %7 = load i8*, i8** %6, align 8
  %8 = getelementptr inbounds { i8*, i64 }, { i8*, i64 }* %2, i32 0, i32 1
  %9 = load i64, i64* %8, align 8
  %10 = insertvalue { i8*, i64 } undef, i8* %7, 0
  %11 = insertvalue { i8*, i64 } %10, i64 %9, 1
  ret { i8*, i64 } %11

bb3:                                              ; preds = %bb2
  %12 = icmp eq i64 16, 0
  br i1 %12, label %bb4, label %bb7

bb4:                                              ; preds = %bb3
  %13 = getelementptr inbounds %"alloc::vec::into_iter::IntoIter<&str>", %"alloc::vec::into_iter::IntoIter<&str>"* %self, i32 0, i32 4
  %_11 = load { [0 x i8]*, i64 }*, { [0 x i8]*, i64 }** %13, align 8
  %_10 = bitcast { [0 x i8]*, i64 }* %_11 to i8*
  %14 = getelementptr i8, i8* %_10, i64 1
  store i8* %14, i8** %1, align 8
  %_9 = load i8*, i8** %1, align 8
  br label %bb5

bb7:                                              ; preds = %bb3
  %15 = getelementptr inbounds %"alloc::vec::into_iter::IntoIter<&str>", %"alloc::vec::into_iter::IntoIter<&str>"* %self, i32 0, i32 4
  %old = load { [0 x i8]*, i64 }*, { [0 x i8]*, i64 }** %15, align 8
  %16 = getelementptr inbounds %"alloc::vec::into_iter::IntoIter<&str>", %"alloc::vec::into_iter::IntoIter<&str>"* %self, i32 0, i32 4
  %_15 = load { [0 x i8]*, i64 }*, { [0 x i8]*, i64 }** %16, align 8
  %17 = getelementptr inbounds { [0 x i8]*, i64 }, { [0 x i8]*, i64 }* %_15, i64 1
  store { [0 x i8]*, i64 }* %17, { [0 x i8]*, i64 }** %0, align 8
  %18 = load { [0 x i8]*, i64 }*, { [0 x i8]*, i64 }** %0, align 8
  br label %bb8

bb8:                                              ; preds = %bb7
  %19 = getelementptr inbounds %"alloc::vec::into_iter::IntoIter<&str>", %"alloc::vec::into_iter::IntoIter<&str>"* %self, i32 0, i32 4
  store { [0 x i8]*, i64 }* %18, { [0 x i8]*, i64 }** %19, align 8
; call core::ptr::read
  %20 = call { [0 x i8]*, i64 } @_ZN4core3ptr4read17h7c06b2d66da0217bE({ [0 x i8]*, i64 }* %old)
  %_16.0 = extractvalue { [0 x i8]*, i64 } %20, 0
  %_16.1 = extractvalue { [0 x i8]*, i64 } %20, 1
  br label %bb9

bb9:                                              ; preds = %bb8
  %21 = bitcast { i8*, i64 }* %2 to { [0 x i8]*, i64 }*
  %22 = getelementptr inbounds { [0 x i8]*, i64 }, { [0 x i8]*, i64 }* %21, i32 0, i32 0
  store [0 x i8]* %_16.0, [0 x i8]** %22, align 8
  %23 = getelementptr inbounds { [0 x i8]*, i64 }, { [0 x i8]*, i64 }* %21, i32 0, i32 1
  store i64 %_16.1, i64* %23, align 8
  br label %bb10

bb10:                                             ; preds = %bb6, %bb9
  br label %bb11

bb5:                                              ; preds = %bb4
  %_8 = bitcast i8* %_9 to { [0 x i8]*, i64 }*
  %24 = getelementptr inbounds %"alloc::vec::into_iter::IntoIter<&str>", %"alloc::vec::into_iter::IntoIter<&str>"* %self, i32 0, i32 4
  store { [0 x i8]*, i64 }* %_8, { [0 x i8]*, i64 }** %24, align 8
; call core::panicking::panic
  call void @_ZN4core9panicking5panic17ha5ca6c77bd7d16dbE([0 x i8]* nonnull align 1 bitcast ([58 x i8]* @str.3 to [0 x i8]*), i64 58, %"core::panic::location::Location"* align 8 dereferenceable(24) bitcast (<{ i8*, [16 x i8] }>* @alloc422 to %"core::panic::location::Location"*)) #18
; call core::mem::maybe_uninit::MaybeUninit<T>::zeroed
  %25 = call { i8*, i64 } @"_ZN4core3mem12maybe_uninit20MaybeUninit$LT$T$GT$6zeroed17h90f18cb591a9721fE"()
  %_2.0.i = extractvalue { i8*, i64 } %25, 0
  %_2.1.i = extractvalue { i8*, i64 } %25, 1
  %26 = bitcast i8* %_2.0.i to [0 x i8]*
  %27 = insertvalue { [0 x i8]*, i64 } undef, [0 x i8]* %26, 0
  %28 = insertvalue { [0 x i8]*, i64 } %27, i64 %_2.1.i, 1
  %29 = insertvalue { [0 x i8]*, i64 } undef, [0 x i8]* %26, 0
  %30 = insertvalue { [0 x i8]*, i64 } %29, i64 %_2.1.i, 1
  %31 = insertvalue { [0 x i8]*, i64 } undef, [0 x i8]* %26, 0
  %32 = insertvalue { [0 x i8]*, i64 } %31, i64 %_2.1.i, 1
  %_12.0 = extractvalue { [0 x i8]*, i64 } %32, 0
  %_12.1 = extractvalue { [0 x i8]*, i64 } %32, 1
  br label %bb6

bb6:                                              ; preds = %bb5
  %33 = bitcast { i8*, i64 }* %2 to { [0 x i8]*, i64 }*
  %34 = getelementptr inbounds { [0 x i8]*, i64 }, { [0 x i8]*, i64 }* %33, i32 0, i32 0
  store [0 x i8]* %_12.0, [0 x i8]** %34, align 8
  %35 = getelementptr inbounds { [0 x i8]*, i64 }, { [0 x i8]*, i64 }* %33, i32 0, i32 1
  store i64 %_12.1, i64* %35, align 8
  br label %bb10
}

; <alloc::vec::into_iter::IntoIter<T,A> as core::iter::traits::iterator::Iterator>::size_hint
; Function Attrs: inlinehint nonlazybind uwtable
define void @"_ZN103_$LT$alloc..vec..into_iter..IntoIter$LT$T$C$A$GT$$u20$as$u20$core..iter..traits..iterator..Iterator$GT$9size_hint17hebf9b9aee7f87936E"({ i64, { i64, i64 } }* noalias nocapture sret({ i64, { i64, i64 } }) dereferenceable(24) %0, %"alloc::vec::into_iter::IntoIter<&str>"* align 8 dereferenceable(32) %self) unnamed_addr #0 {
start:
  %_12 = alloca { i64, i64 }, align 8
  %exact = alloca i64, align 8
  br label %bb1

bb1:                                              ; preds = %start
  %1 = icmp eq i64 16, 0
  br i1 %1, label %bb2, label %bb4

bb2:                                              ; preds = %bb1
  %2 = getelementptr inbounds %"alloc::vec::into_iter::IntoIter<&str>", %"alloc::vec::into_iter::IntoIter<&str>"* %self, i32 0, i32 5
  %_5 = load { [0 x i8]*, i64 }*, { [0 x i8]*, i64 }** %2, align 8
  %_4 = ptrtoint { [0 x i8]*, i64 }* %_5 to i64
  %3 = getelementptr inbounds %"alloc::vec::into_iter::IntoIter<&str>", %"alloc::vec::into_iter::IntoIter<&str>"* %self, i32 0, i32 4
  %_7 = load { [0 x i8]*, i64 }*, { [0 x i8]*, i64 }** %3, align 8
  %_6 = ptrtoint { [0 x i8]*, i64 }* %_7 to i64
  %4 = sub i64 %_4, %_6
  store i64 %4, i64* %exact, align 8
  br label %bb3

bb4:                                              ; preds = %bb1
  %5 = getelementptr inbounds %"alloc::vec::into_iter::IntoIter<&str>", %"alloc::vec::into_iter::IntoIter<&str>"* %self, i32 0, i32 5
  %_9 = load { [0 x i8]*, i64 }*, { [0 x i8]*, i64 }** %5, align 8
  %6 = getelementptr inbounds %"alloc::vec::into_iter::IntoIter<&str>", %"alloc::vec::into_iter::IntoIter<&str>"* %self, i32 0, i32 4
  %_10 = load { [0 x i8]*, i64 }*, { [0 x i8]*, i64 }** %6, align 8
; call core::ptr::const_ptr::<impl *const T>::offset_from
  %_8 = call i64 @"_ZN4core3ptr9const_ptr33_$LT$impl$u20$$BP$const$u20$T$GT$11offset_from17hc698d6e1696f1f87E"({ [0 x i8]*, i64 }* %_9, { [0 x i8]*, i64 }* %_10)
  br label %bb5

bb5:                                              ; preds = %bb4
  store i64 %_8, i64* %exact, align 8
  br label %bb6

bb6:                                              ; preds = %bb3, %bb5
  %_11 = load i64, i64* %exact, align 8
  %_13 = load i64, i64* %exact, align 8
  %7 = bitcast { i64, i64 }* %_12 to %"core::option::Option<usize>::Some"*
  %8 = getelementptr inbounds %"core::option::Option<usize>::Some", %"core::option::Option<usize>::Some"* %7, i32 0, i32 1
  store i64 %_13, i64* %8, align 8
  %9 = bitcast { i64, i64 }* %_12 to i64*
  store i64 1, i64* %9, align 8
  %10 = bitcast { i64, { i64, i64 } }* %0 to i64*
  store i64 %_11, i64* %10, align 8
  %11 = getelementptr inbounds { i64, { i64, i64 } }, { i64, { i64, i64 } }* %0, i32 0, i32 1
  %12 = getelementptr inbounds { i64, i64 }, { i64, i64 }* %_12, i32 0, i32 0
  %13 = load i64, i64* %12, align 8, !range !2
  %14 = getelementptr inbounds { i64, i64 }, { i64, i64 }* %_12, i32 0, i32 1
  %15 = load i64, i64* %14, align 8
  %16 = getelementptr inbounds { i64, i64 }, { i64, i64 }* %11, i32 0, i32 0
  store i64 %13, i64* %16, align 8
  %17 = getelementptr inbounds { i64, i64 }, { i64, i64 }* %11, i32 0, i32 1
  store i64 %15, i64* %17, align 8
  ret void

bb3:                                              ; preds = %bb2
  br label %bb6
}

; <core::ops::control_flow::ControlFlow<B,C> as core::ops::try_trait::FromResidual>::from_residual
; Function Attrs: inlinehint nonlazybind uwtable
define { i8*, i64 } @"_ZN104_$LT$core..ops..control_flow..ControlFlow$LT$B$C$C$GT$$u20$as$u20$core..ops..try_trait..FromResidual$GT$13from_residual17h36b3a97f8b378da0E"(i8* nonnull align 1 %0, i64 %1) unnamed_addr #0 {
start:
  %2 = alloca { i8*, i64 }, align 8
  %residual = alloca { i8*, i64 }, align 8
  %3 = getelementptr inbounds { i8*, i64 }, { i8*, i64 }* %residual, i32 0, i32 0
  store i8* %0, i8** %3, align 8
  %4 = getelementptr inbounds { i8*, i64 }, { i8*, i64 }* %residual, i32 0, i32 1
  store i64 %1, i64* %4, align 8
  %5 = bitcast { i8*, i64 }* %residual to { [0 x i8]*, i64 }*
  %6 = getelementptr inbounds { [0 x i8]*, i64 }, { [0 x i8]*, i64 }* %5, i32 0, i32 0
  %b.0 = load [0 x i8]*, [0 x i8]** %6, align 8, !nonnull !3
  %7 = getelementptr inbounds { [0 x i8]*, i64 }, { [0 x i8]*, i64 }* %5, i32 0, i32 1
  %b.1 = load i64, i64* %7, align 8
  %8 = bitcast { i8*, i64 }* %2 to { [0 x i8]*, i64 }*
  %9 = getelementptr inbounds { [0 x i8]*, i64 }, { [0 x i8]*, i64 }* %8, i32 0, i32 0
  store [0 x i8]* %b.0, [0 x i8]** %9, align 8
  %10 = getelementptr inbounds { [0 x i8]*, i64 }, { [0 x i8]*, i64 }* %8, i32 0, i32 1
  store i64 %b.1, i64* %10, align 8
  %11 = getelementptr inbounds { i8*, i64 }, { i8*, i64 }* %2, i32 0, i32 0
  %12 = load i8*, i8** %11, align 8
  %13 = getelementptr inbounds { i8*, i64 }, { i8*, i64 }* %2, i32 0, i32 1
  %14 = load i64, i64* %13, align 8
  %15 = insertvalue { i8*, i64 } undef, i8* %12, 0
  %16 = insertvalue { i8*, i64 } %15, i64 %14, 1
  ret { i8*, i64 } %16
}

; <core::ops::range::Range<usize> as core::slice::index::SliceIndex<[T]>>::get_unchecked
; Function Attrs: inlinehint nonlazybind uwtable
define { [0 x i8]*, i64 } @"_ZN106_$LT$core..ops..range..Range$LT$usize$GT$$u20$as$u20$core..slice..index..SliceIndex$LT$$u5b$T$u5d$$GT$$GT$13get_unchecked17ha5ca05359a49f10eE"(i64 %self.0, i64 %self.1, [0 x i8]* %slice.0, i64 %slice.1) unnamed_addr #0 {
start:
  %0 = alloca i8*, align 8
; call core::ptr::const_ptr::<impl *const [T]>::as_ptr
  %_4 = call i8* @"_ZN4core3ptr9const_ptr43_$LT$impl$u20$$BP$const$u20$$u5b$T$u5d$$GT$6as_ptr17hb143949bde6f761eE"([0 x i8]* %slice.0, i64 %slice.1)
  br label %bb1

bb1:                                              ; preds = %start
  %1 = getelementptr inbounds i8, i8* %_4, i64 %self.0
  store i8* %1, i8** %0, align 8
  %2 = load i8*, i8** %0, align 8
  br label %bb2

bb2:                                              ; preds = %bb1
  %_7 = sub i64 %self.1, %self.0
; call core::ptr::slice_from_raw_parts
  %3 = call { [0 x i8]*, i64 } @_ZN4core3ptr20slice_from_raw_parts17h0ad27f302787a75bE(i8* %2, i64 %_7)
  %4 = extractvalue { [0 x i8]*, i64 } %3, 0
  %5 = extractvalue { [0 x i8]*, i64 } %3, 1
  br label %bb3

bb3:                                              ; preds = %bb2
  %6 = insertvalue { [0 x i8]*, i64 } undef, [0 x i8]* %4, 0
  %7 = insertvalue { [0 x i8]*, i64 } %6, i64 %5, 1
  ret { [0 x i8]*, i64 } %7
}

; <core::ops::range::Range<usize> as core::slice::index::SliceIndex<[T]>>::get_unchecked_mut
; Function Attrs: inlinehint nonlazybind uwtable
define { [0 x i32]*, i64 } @"_ZN106_$LT$core..ops..range..Range$LT$usize$GT$$u20$as$u20$core..slice..index..SliceIndex$LT$$u5b$T$u5d$$GT$$GT$17get_unchecked_mut17h14087f0c0976df23E"(i64 %self.0, i64 %self.1, [0 x i32]* %slice.0, i64 %slice.1) unnamed_addr #0 {
start:
  %0 = alloca i32*, align 8
  %1 = bitcast [0 x i32]* %slice.0 to i32*
  br label %bb1

bb1:                                              ; preds = %start
  %2 = getelementptr inbounds i32, i32* %1, i64 %self.0
  store i32* %2, i32** %0, align 8
  %_3.i.i = load i32*, i32** %0, align 8
  br label %bb2

bb2:                                              ; preds = %bb1
  %_7 = sub i64 %self.1, %self.0
; call core::ptr::slice_from_raw_parts_mut
  %3 = call { [0 x i32]*, i64 } @_ZN4core3ptr24slice_from_raw_parts_mut17hadb1fd8ce09fb23bE(i32* %_3.i.i, i64 %_7)
  %4 = extractvalue { [0 x i32]*, i64 } %3, 0
  %5 = extractvalue { [0 x i32]*, i64 } %3, 1
  br label %bb3

bb3:                                              ; preds = %bb2
  %6 = insertvalue { [0 x i32]*, i64 } undef, [0 x i32]* %4, 0
  %7 = insertvalue { [0 x i32]*, i64 } %6, i64 %5, 1
  ret { [0 x i32]*, i64 } %7
}

; <core::ops::range::Range<usize> as core::slice::index::SliceIndex<[T]>>::get_unchecked_mut
; Function Attrs: inlinehint nonlazybind uwtable
define { [0 x i8]*, i64 } @"_ZN106_$LT$core..ops..range..Range$LT$usize$GT$$u20$as$u20$core..slice..index..SliceIndex$LT$$u5b$T$u5d$$GT$$GT$17get_unchecked_mut17h6f4e8b334ba6770dE"(i64 %self.0, i64 %self.1, [0 x i8]* %slice.0, i64 %slice.1) unnamed_addr #0 {
start:
  %0 = alloca i8*, align 8
  %1 = bitcast [0 x i8]* %slice.0 to i8*
  br label %bb1

bb1:                                              ; preds = %start
  %2 = getelementptr inbounds i8, i8* %1, i64 %self.0
  store i8* %2, i8** %0, align 8
  %_3.i.i = load i8*, i8** %0, align 8
  br label %bb2

bb2:                                              ; preds = %bb1
  %_7 = sub i64 %self.1, %self.0
; call core::ptr::slice_from_raw_parts_mut
  %3 = call { [0 x i8]*, i64 } @_ZN4core3ptr24slice_from_raw_parts_mut17he9459e820dc6fd6fE(i8* %_3.i.i, i64 %_7)
  %4 = extractvalue { [0 x i8]*, i64 } %3, 0
  %5 = extractvalue { [0 x i8]*, i64 } %3, 1
  br label %bb3

bb3:                                              ; preds = %bb2
  %6 = insertvalue { [0 x i8]*, i64 } undef, [0 x i8]* %4, 0
  %7 = insertvalue { [0 x i8]*, i64 } %6, i64 %5, 1
  ret { [0 x i8]*, i64 } %7
}

; <core::ops::range::Range<usize> as core::slice::index::SliceIndex<[T]>>::index_mut
; Function Attrs: inlinehint nonlazybind uwtable
define { [0 x i8]*, i64 } @"_ZN106_$LT$core..ops..range..Range$LT$usize$GT$$u20$as$u20$core..slice..index..SliceIndex$LT$$u5b$T$u5d$$GT$$GT$9index_mut17h291b6b03bd225418E"(i64 %self.0, i64 %self.1, [0 x i8]* nonnull align 1 %slice.0, i64 %slice.1, %"core::panic::location::Location"* align 8 dereferenceable(24) %0) unnamed_addr #0 {
start:
  %_4 = icmp ugt i64 %self.0, %self.1
  br i1 %_4, label %bb1, label %bb2

bb2:                                              ; preds = %start
  %_9 = icmp ugt i64 %self.1, %slice.1
  br i1 %_9, label %bb3, label %bb4

bb1:                                              ; preds = %start
; call core::slice::index::slice_index_order_fail
  call void @_ZN4core5slice5index22slice_index_order_fail17hf6d6ed6dae21e8e9E(i64 %self.0, i64 %self.1, %"core::panic::location::Location"* align 8 dereferenceable(24) %0) #18
  unreachable

bb4:                                              ; preds = %bb2
; call <core::ops::range::Range<usize> as core::slice::index::SliceIndex<[T]>>::get_unchecked_mut
  %1 = call { [0 x i8]*, i64 } @"_ZN106_$LT$core..ops..range..Range$LT$usize$GT$$u20$as$u20$core..slice..index..SliceIndex$LT$$u5b$T$u5d$$GT$$GT$17get_unchecked_mut17h6f4e8b334ba6770dE"(i64 %self.0, i64 %self.1, [0 x i8]* %slice.0, i64 %slice.1)
  %_18.0 = extractvalue { [0 x i8]*, i64 } %1, 0
  %_18.1 = extractvalue { [0 x i8]*, i64 } %1, 1
  br label %bb5

bb3:                                              ; preds = %bb2
; call core::slice::index::slice_end_index_len_fail
  call void @_ZN4core5slice5index24slice_end_index_len_fail17h811b684e8de6a021E(i64 %self.1, i64 %slice.1, %"core::panic::location::Location"* align 8 dereferenceable(24) %0) #18
  unreachable

bb5:                                              ; preds = %bb4
  %2 = insertvalue { [0 x i8]*, i64 } undef, [0 x i8]* %_18.0, 0
  %3 = insertvalue { [0 x i8]*, i64 } %2, i64 %_18.1, 1
  ret { [0 x i8]*, i64 } %3
}

; <core::ops::range::Range<usize> as core::slice::index::SliceIndex<[T]>>::index_mut
; Function Attrs: inlinehint nonlazybind uwtable
define { [0 x i32]*, i64 } @"_ZN106_$LT$core..ops..range..Range$LT$usize$GT$$u20$as$u20$core..slice..index..SliceIndex$LT$$u5b$T$u5d$$GT$$GT$9index_mut17h445c8b0cfcb8a89cE"(i64 %self.0, i64 %self.1, [0 x i32]* nonnull align 4 %slice.0, i64 %slice.1, %"core::panic::location::Location"* align 8 dereferenceable(24) %0) unnamed_addr #0 {
start:
  %_4 = icmp ugt i64 %self.0, %self.1
  br i1 %_4, label %bb1, label %bb2

bb2:                                              ; preds = %start
  %_9 = icmp ugt i64 %self.1, %slice.1
  br i1 %_9, label %bb3, label %bb4

bb1:                                              ; preds = %start
; call core::slice::index::slice_index_order_fail
  call void @_ZN4core5slice5index22slice_index_order_fail17hf6d6ed6dae21e8e9E(i64 %self.0, i64 %self.1, %"core::panic::location::Location"* align 8 dereferenceable(24) %0) #18
  unreachable

bb4:                                              ; preds = %bb2
; call <core::ops::range::Range<usize> as core::slice::index::SliceIndex<[T]>>::get_unchecked_mut
  %1 = call { [0 x i32]*, i64 } @"_ZN106_$LT$core..ops..range..Range$LT$usize$GT$$u20$as$u20$core..slice..index..SliceIndex$LT$$u5b$T$u5d$$GT$$GT$17get_unchecked_mut17h14087f0c0976df23E"(i64 %self.0, i64 %self.1, [0 x i32]* %slice.0, i64 %slice.1)
  %_18.0 = extractvalue { [0 x i32]*, i64 } %1, 0
  %_18.1 = extractvalue { [0 x i32]*, i64 } %1, 1
  br label %bb5

bb3:                                              ; preds = %bb2
; call core::slice::index::slice_end_index_len_fail
  call void @_ZN4core5slice5index24slice_end_index_len_fail17h811b684e8de6a021E(i64 %self.1, i64 %slice.1, %"core::panic::location::Location"* align 8 dereferenceable(24) %0) #18
  unreachable

bb5:                                              ; preds = %bb4
  %2 = insertvalue { [0 x i32]*, i64 } undef, [0 x i32]* %_18.0, 0
  %3 = insertvalue { [0 x i32]*, i64 } %2, i64 %_18.1, 1
  ret { [0 x i32]*, i64 } %3
}

; <core::iter::adapters::filter::Filter<I,P> as core::iter::traits::iterator::Iterator>::next
; Function Attrs: inlinehint nonlazybind uwtable
define { i8*, i64 } @"_ZN108_$LT$core..iter..adapters..filter..Filter$LT$I$C$P$GT$$u20$as$u20$core..iter..traits..iterator..Iterator$GT$4next17h047d6a2026768a41E"(%"core::iter::adapters::filter::Filter<core::str::iter::Split<core::str::IsWhitespace>, core::str::IsNotEmpty>"* align 8 dereferenceable(64) %self) unnamed_addr #0 {
start:
  %_2 = bitcast %"core::iter::adapters::filter::Filter<core::str::iter::Split<core::str::IsWhitespace>, core::str::IsNotEmpty>"* %self to %"core::str::iter::Split<core::str::IsWhitespace>"*
  %_3 = bitcast %"core::iter::adapters::filter::Filter<core::str::iter::Split<core::str::IsWhitespace>, core::str::IsNotEmpty>"* %self to %"core::str::IsNotEmpty"*
; call core::iter::traits::iterator::Iterator::find
  %0 = call { i8*, i64 } @_ZN4core4iter6traits8iterator8Iterator4find17h1588069a85c7d88fE(%"core::str::iter::Split<core::str::IsWhitespace>"* align 8 dereferenceable(64) %_2, %"core::str::IsNotEmpty"* nonnull align 1 %_3)
  %1 = extractvalue { i8*, i64 } %0, 0
  %2 = extractvalue { i8*, i64 } %0, 1
  br label %bb1

bb1:                                              ; preds = %start
  %3 = insertvalue { i8*, i64 } undef, i8* %1, 0
  %4 = insertvalue { i8*, i64 } %3, i64 %2, 1
  ret { i8*, i64 } %4
}

; <core::iter::adapters::filter::Filter<I,P> as core::iter::traits::iterator::Iterator>::size_hint
; Function Attrs: inlinehint nonlazybind uwtable
define void @"_ZN108_$LT$core..iter..adapters..filter..Filter$LT$I$C$P$GT$$u20$as$u20$core..iter..traits..iterator..Iterator$GT$9size_hint17h840acd41ec4d9802E"({ i64, { i64, i64 } }* noalias nocapture sret({ i64, { i64, i64 } }) dereferenceable(24) %0, %"core::iter::adapters::filter::Filter<core::str::iter::Split<core::str::IsWhitespace>, core::str::IsNotEmpty>"* align 8 dereferenceable(64) %self) unnamed_addr #0 {
start:
  %_3 = alloca { i64, { i64, i64 } }, align 8
  %_4 = bitcast %"core::iter::adapters::filter::Filter<core::str::iter::Split<core::str::IsWhitespace>, core::str::IsNotEmpty>"* %self to %"core::str::iter::Split<core::str::IsWhitespace>"*
; call core::iter::traits::iterator::Iterator::size_hint
  call void @_ZN4core4iter6traits8iterator8Iterator9size_hint17hcb23d572a12c4f89E({ i64, { i64, i64 } }* noalias nocapture sret({ i64, { i64, i64 } }) dereferenceable(24) %_3, %"core::str::iter::Split<core::str::IsWhitespace>"* align 8 dereferenceable(64) %_4)
  br label %bb1

bb1:                                              ; preds = %start
  %1 = getelementptr inbounds { i64, { i64, i64 } }, { i64, { i64, i64 } }* %_3, i32 0, i32 1
  %2 = getelementptr inbounds { i64, i64 }, { i64, i64 }* %1, i32 0, i32 0
  %upper.0 = load i64, i64* %2, align 8, !range !2
  %3 = getelementptr inbounds { i64, i64 }, { i64, i64 }* %1, i32 0, i32 1
  %upper.1 = load i64, i64* %3, align 8
  %4 = bitcast { i64, { i64, i64 } }* %0 to i64*
  store i64 0, i64* %4, align 8
  %5 = getelementptr inbounds { i64, { i64, i64 } }, { i64, { i64, i64 } }* %0, i32 0, i32 1
  %6 = getelementptr inbounds { i64, i64 }, { i64, i64 }* %5, i32 0, i32 0
  store i64 %upper.0, i64* %6, align 8
  %7 = getelementptr inbounds { i64, i64 }, { i64, i64 }* %5, i32 0, i32 1
  store i64 %upper.1, i64* %7, align 8
  ret void
}

; <core::ops::range::RangeTo<usize> as core::slice::index::SliceIndex<[T]>>::index_mut
; Function Attrs: inlinehint nonlazybind uwtable
define { [0 x i8]*, i64 } @"_ZN108_$LT$core..ops..range..RangeTo$LT$usize$GT$$u20$as$u20$core..slice..index..SliceIndex$LT$$u5b$T$u5d$$GT$$GT$9index_mut17h9b78542be0462365E"(i64 %self, [0 x i8]* nonnull align 1 %slice.0, i64 %slice.1, %"core::panic::location::Location"* align 8 dereferenceable(24) %0) unnamed_addr #0 {
start:
  %_5 = alloca { i64, i64 }, align 8
  %1 = bitcast { i64, i64 }* %_5 to i64*
  store i64 0, i64* %1, align 8
  %2 = getelementptr inbounds { i64, i64 }, { i64, i64 }* %_5, i32 0, i32 1
  store i64 %self, i64* %2, align 8
  %3 = getelementptr inbounds { i64, i64 }, { i64, i64 }* %_5, i32 0, i32 0
  %4 = load i64, i64* %3, align 8
  %5 = getelementptr inbounds { i64, i64 }, { i64, i64 }* %_5, i32 0, i32 1
  %6 = load i64, i64* %5, align 8
; call <core::ops::range::Range<usize> as core::slice::index::SliceIndex<[T]>>::index_mut
  %7 = call { [0 x i8]*, i64 } @"_ZN106_$LT$core..ops..range..Range$LT$usize$GT$$u20$as$u20$core..slice..index..SliceIndex$LT$$u5b$T$u5d$$GT$$GT$9index_mut17h291b6b03bd225418E"(i64 %4, i64 %6, [0 x i8]* nonnull align 1 %slice.0, i64 %slice.1, %"core::panic::location::Location"* align 8 dereferenceable(24) %0)
  %_4.0 = extractvalue { [0 x i8]*, i64 } %7, 0
  %_4.1 = extractvalue { [0 x i8]*, i64 } %7, 1
  br label %bb1

bb1:                                              ; preds = %start
  %8 = insertvalue { [0 x i8]*, i64 } undef, [0 x i8]* %_4.0, 0
  %9 = insertvalue { [0 x i8]*, i64 } %8, i64 %_4.1, 1
  ret { [0 x i8]*, i64 } %9
}

; <core::ops::range::RangeFrom<usize> as core::slice::index::SliceIndex<[T]>>::get_unchecked
; Function Attrs: inlinehint nonlazybind uwtable
define { [0 x i8]*, i64 } @"_ZN110_$LT$core..ops..range..RangeFrom$LT$usize$GT$$u20$as$u20$core..slice..index..SliceIndex$LT$$u5b$T$u5d$$GT$$GT$13get_unchecked17hd858dd49c8869485E"(i64 %self, [0 x i8]* %slice.0, i64 %slice.1) unnamed_addr #0 {
start:
  %_3 = alloca { i64, i64 }, align 8
; call core::ptr::const_ptr::<impl *const [T]>::len
  %_5 = call i64 @"_ZN4core3ptr9const_ptr43_$LT$impl$u20$$BP$const$u20$$u5b$T$u5d$$GT$3len17h3289d9651df5d157E"([0 x i8]* %slice.0, i64 %slice.1)
  br label %bb1

bb1:                                              ; preds = %start
  %0 = bitcast { i64, i64 }* %_3 to i64*
  store i64 %self, i64* %0, align 8
  %1 = getelementptr inbounds { i64, i64 }, { i64, i64 }* %_3, i32 0, i32 1
  store i64 %_5, i64* %1, align 8
  %2 = getelementptr inbounds { i64, i64 }, { i64, i64 }* %_3, i32 0, i32 0
  %3 = load i64, i64* %2, align 8
  %4 = getelementptr inbounds { i64, i64 }, { i64, i64 }* %_3, i32 0, i32 1
  %5 = load i64, i64* %4, align 8
; call <core::ops::range::Range<usize> as core::slice::index::SliceIndex<[T]>>::get_unchecked
  %6 = call { [0 x i8]*, i64 } @"_ZN106_$LT$core..ops..range..Range$LT$usize$GT$$u20$as$u20$core..slice..index..SliceIndex$LT$$u5b$T$u5d$$GT$$GT$13get_unchecked17ha5ca05359a49f10eE"(i64 %3, i64 %5, [0 x i8]* %slice.0, i64 %slice.1)
  %7 = extractvalue { [0 x i8]*, i64 } %6, 0
  %8 = extractvalue { [0 x i8]*, i64 } %6, 1
  br label %bb2

bb2:                                              ; preds = %bb1
  %9 = insertvalue { [0 x i8]*, i64 } undef, [0 x i8]* %7, 0
  %10 = insertvalue { [0 x i8]*, i64 } %9, i64 %8, 1
  ret { [0 x i8]*, i64 } %10
}

; <core::ops::range::RangeFrom<usize> as core::slice::index::SliceIndex<[T]>>::index
; Function Attrs: inlinehint nonlazybind uwtable
define { [0 x i8]*, i64 } @"_ZN110_$LT$core..ops..range..RangeFrom$LT$usize$GT$$u20$as$u20$core..slice..index..SliceIndex$LT$$u5b$T$u5d$$GT$$GT$5index17h7f403350a4144d33E"(i64 %self, [0 x i8]* nonnull align 1 %slice.0, i64 %slice.1, %"core::panic::location::Location"* align 8 dereferenceable(24) %0) unnamed_addr #0 {
start:
  %_3 = icmp ugt i64 %self, %slice.1
  br i1 %_3, label %bb1, label %bb2

bb2:                                              ; preds = %start
; call <core::ops::range::RangeFrom<usize> as core::slice::index::SliceIndex<[T]>>::get_unchecked
  %1 = call { [0 x i8]*, i64 } @"_ZN110_$LT$core..ops..range..RangeFrom$LT$usize$GT$$u20$as$u20$core..slice..index..SliceIndex$LT$$u5b$T$u5d$$GT$$GT$13get_unchecked17hd858dd49c8869485E"(i64 %self, [0 x i8]* %slice.0, i64 %slice.1)
  %_10.0 = extractvalue { [0 x i8]*, i64 } %1, 0
  %_10.1 = extractvalue { [0 x i8]*, i64 } %1, 1
  br label %bb3

bb1:                                              ; preds = %start
; call core::slice::index::slice_start_index_len_fail
  call void @_ZN4core5slice5index26slice_start_index_len_fail17h429384a76db70f0fE(i64 %self, i64 %slice.1, %"core::panic::location::Location"* align 8 dereferenceable(24) %0) #18
  unreachable

bb3:                                              ; preds = %bb2
  %2 = insertvalue { [0 x i8]*, i64 } undef, [0 x i8]* %_10.0, 0
  %3 = insertvalue { [0 x i8]*, i64 } %2, i64 %_10.1, 1
  ret { [0 x i8]*, i64 } %3
}

; <alloc::vec::Vec<T> as alloc::vec::spec_from_iter_nested::SpecFromIterNested<T,I>>::from_iter
; Function Attrs: nonlazybind uwtable
define void @"_ZN111_$LT$alloc..vec..Vec$LT$T$GT$$u20$as$u20$alloc..vec..spec_from_iter_nested..SpecFromIterNested$LT$T$C$I$GT$$GT$9from_iter17h6f3b455cc3283eecE"(%"alloc::vec::Vec<&str>"* noalias nocapture sret(%"alloc::vec::Vec<&str>") dereferenceable(24) %0, %"core::str::iter::SplitWhitespace"* noalias nocapture dereferenceable(64) %iterator) unnamed_addr #1 personality i32 (i32, i32, i64, %"unwind::libunwind::_Unwind_Exception"*, %"unwind::libunwind::_Unwind_Context"*)* @rust_eh_personality {
start:
  %1 = alloca i64, align 8
  %2 = alloca { i8*, i32 }, align 8
  %_24 = alloca i8, align 1
  %_23 = alloca i8, align 1
  %_22 = alloca %"core::str::iter::SplitWhitespace", align 8
  %vector1 = alloca %"alloc::vec::Vec<&str>", align 8
  %_8 = alloca { i64, { i64, i64 } }, align 8
  %_3 = alloca { i8*, i64 }, align 8
  %vector = alloca %"alloc::vec::Vec<&str>", align 8
  store i8 0, i8* %_24, align 1
  store i8 0, i8* %_23, align 1
  store i8 1, i8* %_24, align 1
; invoke <core::str::iter::SplitWhitespace as core::iter::traits::iterator::Iterator>::next
  %3 = invoke { i8*, i64 } @"_ZN91_$LT$core..str..iter..SplitWhitespace$u20$as$u20$core..iter..traits..iterator..Iterator$GT$4next17hae7398579b2a0071E"(%"core::str::iter::SplitWhitespace"* align 8 dereferenceable(64) %iterator)
          to label %bb1 unwind label %cleanup

bb1:                                              ; preds = %start
  store { i8*, i64 } %3, { i8*, i64 }* %_3, align 8
  %4 = bitcast { i8*, i64 }* %_3 to {}**
  %5 = load {}*, {}** %4, align 8
  %6 = icmp eq {}* %5, null
  %_5 = select i1 %6, i64 0, i64 1
  switch i64 %_5, label %bb3 [
    i64 0, label %bb4
    i64 1, label %bb2
  ]

bb21:                                             ; preds = %bb19, %bb13, %cleanup
  %7 = load i8, i8* %_24, align 1, !range !4
  %8 = trunc i8 %7 to i1
  br i1 %8, label %bb20, label %bb15

cleanup:                                          ; preds = %start
  %9 = landingpad { i8*, i32 }
          cleanup
  %10 = extractvalue { i8*, i32 } %9, 0
  %11 = extractvalue { i8*, i32 } %9, 1
  %12 = getelementptr inbounds { i8*, i32 }, { i8*, i32 }* %2, i32 0, i32 0
  store i8* %10, i8** %12, align 8
  %13 = getelementptr inbounds { i8*, i32 }, { i8*, i32 }* %2, i32 0, i32 1
  store i32 %11, i32* %13, align 8
  br label %bb21

bb3:                                              ; preds = %bb1
  unreachable

bb4:                                              ; preds = %bb1
; invoke alloc::vec::Vec<T>::new
  invoke void @"_ZN5alloc3vec12Vec$LT$T$GT$3new17h0bda1a8261c8fe23E"(%"alloc::vec::Vec<&str>"* noalias nocapture sret(%"alloc::vec::Vec<&str>") dereferenceable(24) %0)
          to label %bb16 unwind label %cleanup5

bb2:                                              ; preds = %bb1
  store i8 1, i8* %_23, align 1
  %14 = bitcast { i8*, i64 }* %_3 to { [0 x i8]*, i64 }*
  %15 = getelementptr inbounds { [0 x i8]*, i64 }, { [0 x i8]*, i64 }* %14, i32 0, i32 0
  %element.0 = load [0 x i8]*, [0 x i8]** %15, align 8, !nonnull !3
  %16 = getelementptr inbounds { [0 x i8]*, i64 }, { [0 x i8]*, i64 }* %14, i32 0, i32 1
  %element.1 = load i64, i64* %16, align 8
; invoke <core::str::iter::SplitWhitespace as core::iter::traits::iterator::Iterator>::size_hint
  invoke void @"_ZN91_$LT$core..str..iter..SplitWhitespace$u20$as$u20$core..iter..traits..iterator..Iterator$GT$9size_hint17h4b880ed25504de35E"({ i64, { i64, i64 } }* noalias nocapture sret({ i64, { i64, i64 } }) dereferenceable(24) %_8, %"core::str::iter::SplitWhitespace"* align 8 dereferenceable(64) %iterator)
          to label %bb5 unwind label %cleanup2

bb5:                                              ; preds = %bb2
  %17 = bitcast { i64, { i64, i64 } }* %_8 to i64*
  %lower = load i64, i64* %17, align 8
  %18 = call i64 @llvm.uadd.sat.i64(i64 %lower, i64 1)
  store i64 %18, i64* %1, align 8
  %19 = load i64, i64* %1, align 8
  br label %bb6

bb18:                                             ; preds = %bb14, %cleanup2
  %20 = load i8, i8* %_23, align 1, !range !4
  %21 = trunc i8 %20 to i1
  br i1 %21, label %bb17, label %bb19

cleanup2:                                         ; preds = %bb6, %bb2
  %22 = landingpad { i8*, i32 }
          cleanup
  %23 = extractvalue { i8*, i32 } %22, 0
  %24 = extractvalue { i8*, i32 } %22, 1
  %25 = getelementptr inbounds { i8*, i32 }, { i8*, i32 }* %2, i32 0, i32 0
  store i8* %23, i8** %25, align 8
  %26 = getelementptr inbounds { i8*, i32 }, { i8*, i32 }* %2, i32 0, i32 1
  store i32 %24, i32* %26, align 8
  br label %bb18

bb6:                                              ; preds = %bb5
; invoke alloc::vec::Vec<T>::with_capacity
  invoke void @"_ZN5alloc3vec12Vec$LT$T$GT$13with_capacity17hb6f6f8b3d20e5973E"(%"alloc::vec::Vec<&str>"* noalias nocapture sret(%"alloc::vec::Vec<&str>") dereferenceable(24) %vector1, i64 %19)
          to label %bb7 unwind label %cleanup2

bb7:                                              ; preds = %bb6
; invoke alloc::vec::Vec<T,A>::as_mut_ptr
  %_14 = invoke { [0 x i8]*, i64 }* @"_ZN5alloc3vec16Vec$LT$T$C$A$GT$10as_mut_ptr17h56a927d1ddf002baE"(%"alloc::vec::Vec<&str>"* align 8 dereferenceable(24) %vector1)
          to label %bb8 unwind label %cleanup3

bb8:                                              ; preds = %bb7
  store i8 0, i8* %_23, align 1
; invoke core::ptr::write
  invoke void @_ZN4core3ptr5write17hcd3f32d9859e1eaeE({ [0 x i8]*, i64 }* %_14, [0 x i8]* nonnull align 1 %element.0, i64 %element.1)
          to label %bb9 unwind label %cleanup3

bb14:                                             ; preds = %cleanup3
; call core::ptr::drop_in_place<alloc::vec::Vec<&str>>
  call void @"_ZN4core3ptr51drop_in_place$LT$alloc..vec..Vec$LT$$RF$str$GT$$GT$17hddd125c81345c4d3E"(%"alloc::vec::Vec<&str>"* %vector1) #19
  br label %bb18

cleanup3:                                         ; preds = %bb9, %bb8, %bb7
  %27 = landingpad { i8*, i32 }
          cleanup
  %28 = extractvalue { i8*, i32 } %27, 0
  %29 = extractvalue { i8*, i32 } %27, 1
  %30 = getelementptr inbounds { i8*, i32 }, { i8*, i32 }* %2, i32 0, i32 0
  store i8* %28, i8** %30, align 8
  %31 = getelementptr inbounds { i8*, i32 }, { i8*, i32 }* %2, i32 0, i32 1
  store i32 %29, i32* %31, align 8
  br label %bb14

bb9:                                              ; preds = %bb8
; invoke alloc::vec::Vec<T,A>::set_len
  invoke void @"_ZN5alloc3vec16Vec$LT$T$C$A$GT$7set_len17ha146557e890ec883E"(%"alloc::vec::Vec<&str>"* align 8 dereferenceable(24) %vector1, i64 1)
          to label %bb10 unwind label %cleanup3

bb10:                                             ; preds = %bb9
  %32 = bitcast %"alloc::vec::Vec<&str>"* %vector to i8*
  %33 = bitcast %"alloc::vec::Vec<&str>"* %vector1 to i8*
  call void @llvm.memcpy.p0i8.p0i8.i64(i8* align 8 %32, i8* align 8 %33, i64 24, i1 false)
  store i8 0, i8* %_23, align 1
  store i8 0, i8* %_24, align 1
  %34 = bitcast %"core::str::iter::SplitWhitespace"* %_22 to i8*
  %35 = bitcast %"core::str::iter::SplitWhitespace"* %iterator to i8*
  call void @llvm.memcpy.p0i8.p0i8.i64(i8* align 8 %34, i8* align 8 %35, i64 64, i1 false)
; invoke <alloc::vec::Vec<T,A> as alloc::vec::spec_extend::SpecExtend<T,I>>::spec_extend
  invoke void @"_ZN97_$LT$alloc..vec..Vec$LT$T$C$A$GT$$u20$as$u20$alloc..vec..spec_extend..SpecExtend$LT$T$C$I$GT$$GT$11spec_extend17h34cf22cd7063e45dE"(%"alloc::vec::Vec<&str>"* align 8 dereferenceable(24) %vector, %"core::str::iter::SplitWhitespace"* noalias nocapture dereferenceable(64) %_22)
          to label %bb11 unwind label %cleanup4

bb19:                                             ; preds = %cleanup5, %bb17, %bb18
  br label %bb21

bb17:                                             ; preds = %bb18
  br label %bb19

bb11:                                             ; preds = %bb10
  %36 = bitcast %"alloc::vec::Vec<&str>"* %0 to i8*
  %37 = bitcast %"alloc::vec::Vec<&str>"* %vector to i8*
  call void @llvm.memcpy.p0i8.p0i8.i64(i8* align 8 %36, i8* align 8 %37, i64 24, i1 false)
  br label %bb12

bb13:                                             ; preds = %cleanup4
; call core::ptr::drop_in_place<alloc::vec::Vec<&str>>
  call void @"_ZN4core3ptr51drop_in_place$LT$alloc..vec..Vec$LT$$RF$str$GT$$GT$17hddd125c81345c4d3E"(%"alloc::vec::Vec<&str>"* %vector) #19
  br label %bb21

cleanup4:                                         ; preds = %bb10
  %38 = landingpad { i8*, i32 }
          cleanup
  %39 = extractvalue { i8*, i32 } %38, 0
  %40 = extractvalue { i8*, i32 } %38, 1
  %41 = getelementptr inbounds { i8*, i32 }, { i8*, i32 }* %2, i32 0, i32 0
  store i8* %39, i8** %41, align 8
  %42 = getelementptr inbounds { i8*, i32 }, { i8*, i32 }* %2, i32 0, i32 1
  store i32 %40, i32* %42, align 8
  br label %bb13

bb12:                                             ; preds = %bb16, %bb11
  ret void

bb16:                                             ; preds = %bb4
  br label %bb12

cleanup5:                                         ; preds = %bb4
  %43 = landingpad { i8*, i32 }
          cleanup
  %44 = extractvalue { i8*, i32 } %43, 0
  %45 = extractvalue { i8*, i32 } %43, 1
  %46 = getelementptr inbounds { i8*, i32 }, { i8*, i32 }* %2, i32 0, i32 0
  store i8* %44, i8** %46, align 8
  %47 = getelementptr inbounds { i8*, i32 }, { i8*, i32 }* %2, i32 0, i32 1
  store i32 %45, i32* %47, align 8
  br label %bb19

bb15:                                             ; preds = %bb20, %bb21
  %48 = bitcast { i8*, i32 }* %2 to i8**
  %49 = load i8*, i8** %48, align 8
  %50 = getelementptr inbounds { i8*, i32 }, { i8*, i32 }* %2, i32 0, i32 1
  %51 = load i32, i32* %50, align 8
  %52 = insertvalue { i8*, i32 } undef, i8* %49, 0
  %53 = insertvalue { i8*, i32 } %52, i32 %51, 1
  resume { i8*, i32 } %53

bb20:                                             ; preds = %bb21
  br label %bb15
}

; <core::ptr::non_null::NonNull<T> as core::convert::From<core::ptr::unique::Unique<T>>>::from
; Function Attrs: inlinehint nonlazybind uwtable
define nonnull i8* @"_ZN119_$LT$core..ptr..non_null..NonNull$LT$T$GT$$u20$as$u20$core..convert..From$LT$core..ptr..unique..Unique$LT$T$GT$$GT$$GT$4from17h66cb4df4a0e28509E"(i8* nonnull %unique) unnamed_addr #0 {
start:
; call core::ptr::unique::Unique<T>::as_ptr
  %_2 = call i8* @"_ZN4core3ptr6unique15Unique$LT$T$GT$6as_ptr17hd1bf3f18bda5738cE"(i8* nonnull %unique)
  br label %bb1

bb1:                                              ; preds = %start
; call core::ptr::non_null::NonNull<T>::new_unchecked
  %0 = call nonnull i8* @"_ZN4core3ptr8non_null16NonNull$LT$T$GT$13new_unchecked17hf8d7b6265503ad0eE"(i8* %_2)
  br label %bb2

bb2:                                              ; preds = %bb1
  ret i8* %0
}

; <alloc::collections::TryReserveError as core::convert::From<alloc::collections::TryReserveErrorKind>>::from
; Function Attrs: inlinehint nonlazybind uwtable
define internal { i64, i64 } @"_ZN122_$LT$alloc..collections..TryReserveError$u20$as$u20$core..convert..From$LT$alloc..collections..TryReserveErrorKind$GT$$GT$4from17hb23a4b01080d49d6E"(i64 %kind.0, i64 %kind.1) unnamed_addr #0 {
start:
  %0 = alloca { i64, i64 }, align 8
  %1 = getelementptr inbounds { i64, i64 }, { i64, i64 }* %0, i32 0, i32 0
  store i64 %kind.0, i64* %1, align 8
  %2 = getelementptr inbounds { i64, i64 }, { i64, i64 }* %0, i32 0, i32 1
  store i64 %kind.1, i64* %2, align 8
  %3 = getelementptr inbounds { i64, i64 }, { i64, i64 }* %0, i32 0, i32 0
  %4 = load i64, i64* %3, align 8
  %5 = getelementptr inbounds { i64, i64 }, { i64, i64 }* %0, i32 0, i32 1
  %6 = load i64, i64* %5, align 8
  %7 = insertvalue { i64, i64 } undef, i64 %4, 0
  %8 = insertvalue { i64, i64 } %7, i64 %6, 1
  ret { i64, i64 } %8
}

; <core::result::Result<T,F> as core::ops::try_trait::FromResidual<core::result::Result<core::convert::Infallible,E>>>::from_residual
; Function Attrs: inlinehint nonlazybind uwtable
define void @"_ZN153_$LT$core..result..Result$LT$T$C$F$GT$$u20$as$u20$core..ops..try_trait..FromResidual$LT$core..result..Result$LT$core..convert..Infallible$C$E$GT$$GT$$GT$13from_residual17h171823e31cc97e76E"(%"core::result::Result<(), alloc::collections::TryReserveError>"* noalias nocapture sret(%"core::result::Result<(), alloc::collections::TryReserveError>") dereferenceable(24) %0, i64 %1, i64 %2) unnamed_addr #0 {
start:
  %residual = alloca { i64, i64 }, align 8
  %3 = getelementptr inbounds { i64, i64 }, { i64, i64 }* %residual, i32 0, i32 0
  store i64 %1, i64* %3, align 8
  %4 = getelementptr inbounds { i64, i64 }, { i64, i64 }* %residual, i32 0, i32 1
  store i64 %2, i64* %4, align 8
  %5 = getelementptr inbounds { i64, i64 }, { i64, i64 }* %residual, i32 0, i32 0
  %e.0 = load i64, i64* %5, align 8
  %6 = getelementptr inbounds { i64, i64 }, { i64, i64 }* %residual, i32 0, i32 1
  %e.1 = load i64, i64* %6, align 8
; call <alloc::collections::TryReserveError as core::convert::From<alloc::collections::TryReserveErrorKind>>::from
  %7 = call { i64, i64 } @"_ZN122_$LT$alloc..collections..TryReserveError$u20$as$u20$core..convert..From$LT$alloc..collections..TryReserveErrorKind$GT$$GT$4from17hb23a4b01080d49d6E"(i64 %e.0, i64 %e.1)
  %_3.0 = extractvalue { i64, i64 } %7, 0
  %_3.1 = extractvalue { i64, i64 } %7, 1
  br label %bb1

bb1:                                              ; preds = %start
  %8 = bitcast %"core::result::Result<(), alloc::collections::TryReserveError>"* %0 to %"core::result::Result<(), alloc::collections::TryReserveError>::Err"*
  %9 = getelementptr inbounds %"core::result::Result<(), alloc::collections::TryReserveError>::Err", %"core::result::Result<(), alloc::collections::TryReserveError>::Err"* %8, i32 0, i32 1
  %10 = getelementptr inbounds { i64, i64 }, { i64, i64 }* %9, i32 0, i32 0
  store i64 %_3.0, i64* %10, align 8
  %11 = getelementptr inbounds { i64, i64 }, { i64, i64 }* %9, i32 0, i32 1
  store i64 %_3.1, i64* %11, align 8
  %12 = bitcast %"core::result::Result<(), alloc::collections::TryReserveError>"* %0 to i64*
  store i64 1, i64* %12, align 8
  ret void
}

; <core::result::Result<T,F> as core::ops::try_trait::FromResidual<core::result::Result<core::convert::Infallible,E>>>::from_residual
; Function Attrs: inlinehint nonlazybind uwtable
define zeroext i1 @"_ZN153_$LT$core..result..Result$LT$T$C$F$GT$$u20$as$u20$core..ops..try_trait..FromResidual$LT$core..result..Result$LT$core..convert..Infallible$C$E$GT$$GT$$GT$13from_residual17h658e2f5616f46916E"() unnamed_addr #0 {
start:
  %0 = alloca i8, align 1
; call <T as core::convert::From<T>>::from
  call void @"_ZN50_$LT$T$u20$as$u20$core..convert..From$LT$T$GT$$GT$4from17hbde3f54f004e1b55E"()
  br label %bb1

bb1:                                              ; preds = %start
  %1 = bitcast i8* %0 to %"core::result::Result<(), std::thread::local::AccessError>::Err"*
  %2 = getelementptr inbounds %"core::result::Result<(), std::thread::local::AccessError>::Err", %"core::result::Result<(), std::thread::local::AccessError>::Err"* %1, i32 0, i32 1
  store i8 1, i8* %0, align 1
  %3 = load i8, i8* %0, align 1, !range !4
  %4 = trunc i8 %3 to i1
  ret i1 %4
}

; <core::result::Result<T,F> as core::ops::try_trait::FromResidual<core::result::Result<core::convert::Infallible,E>>>::from_residual
; Function Attrs: inlinehint nonlazybind uwtable
define { i64, i64 } @"_ZN153_$LT$core..result..Result$LT$T$C$F$GT$$u20$as$u20$core..ops..try_trait..FromResidual$LT$core..result..Result$LT$core..convert..Infallible$C$E$GT$$GT$$GT$13from_residual17h658e3eed332e3858E"() unnamed_addr #0 {
start:
  %0 = alloca { i64, i64 }, align 8
; call <T as core::convert::From<T>>::from
  call void @"_ZN50_$LT$T$u20$as$u20$core..convert..From$LT$T$GT$$GT$4from17h6b1f13a124eb5313E"()
  br label %bb1

bb1:                                              ; preds = %start
  %1 = bitcast { i64, i64 }* %0 to %"core::result::Result<core::alloc::layout::Layout, core::alloc::layout::LayoutError>::Err"*
  %2 = bitcast %"core::result::Result<core::alloc::layout::Layout, core::alloc::layout::LayoutError>::Err"* %1 to %"core::alloc::layout::LayoutError"*
  %3 = getelementptr inbounds { i64, i64 }, { i64, i64 }* %0, i32 0, i32 1
  store i64 0, i64* %3, align 8
  %4 = getelementptr inbounds { i64, i64 }, { i64, i64 }* %0, i32 0, i32 0
  %5 = load i64, i64* %4, align 8
  %6 = getelementptr inbounds { i64, i64 }, { i64, i64 }* %0, i32 0, i32 1
  %7 = load i64, i64* %6, align 8
  %8 = insertvalue { i64, i64 } undef, i64 %5, 0
  %9 = insertvalue { i64, i64 } %8, i64 %7, 1
  ret { i64, i64 } %9
}

; <core::result::Result<T,F> as core::ops::try_trait::FromResidual<core::result::Result<core::convert::Infallible,E>>>::from_residual
; Function Attrs: inlinehint nonlazybind uwtable
define { i8*, i64 } @"_ZN153_$LT$core..result..Result$LT$T$C$F$GT$$u20$as$u20$core..ops..try_trait..FromResidual$LT$core..result..Result$LT$core..convert..Infallible$C$E$GT$$GT$$GT$13from_residual17h6cc498ec0cdce594E"() unnamed_addr #0 {
start:
  %0 = alloca { i8*, i64 }, align 8
; call <T as core::convert::From<T>>::from
  call void @"_ZN50_$LT$T$u20$as$u20$core..convert..From$LT$T$GT$$GT$4from17hee7bceaf5dbddff7E"()
  br label %bb1

bb1:                                              ; preds = %start
  %1 = bitcast { i8*, i64 }* %0 to %"core::result::Result<core::ptr::non_null::NonNull<[u8]>, core::alloc::AllocError>::Err"*
  %2 = bitcast %"core::result::Result<core::ptr::non_null::NonNull<[u8]>, core::alloc::AllocError>::Err"* %1 to %"core::alloc::AllocError"*
  %3 = bitcast { i8*, i64 }* %0 to {}**
  store {}* null, {}** %3, align 8
  %4 = getelementptr inbounds { i8*, i64 }, { i8*, i64 }* %0, i32 0, i32 0
  %5 = load i8*, i8** %4, align 8
  %6 = getelementptr inbounds { i8*, i64 }, { i8*, i64 }* %0, i32 0, i32 1
  %7 = load i64, i64* %6, align 8
  %8 = insertvalue { i8*, i64 } undef, i8* %5, 0
  %9 = insertvalue { i8*, i64 } %8, i64 %7, 1
  ret { i8*, i64 } %9
}

; <core::result::Result<T,F> as core::ops::try_trait::FromResidual<core::result::Result<core::convert::Infallible,E>>>::from_residual
; Function Attrs: inlinehint nonlazybind uwtable
define void @"_ZN153_$LT$core..result..Result$LT$T$C$F$GT$$u20$as$u20$core..ops..try_trait..FromResidual$LT$core..result..Result$LT$core..convert..Infallible$C$E$GT$$GT$$GT$13from_residual17h8bf2ec286f265f70E"(%"core::result::Result<(core::alloc::layout::Layout, usize), core::alloc::layout::LayoutError>"* noalias nocapture sret(%"core::result::Result<(core::alloc::layout::Layout, usize), core::alloc::layout::LayoutError>") dereferenceable(24) %0) unnamed_addr #0 {
start:
; call <T as core::convert::From<T>>::from
  call void @"_ZN50_$LT$T$u20$as$u20$core..convert..From$LT$T$GT$$GT$4from17h6b1f13a124eb5313E"()
  br label %bb1

bb1:                                              ; preds = %start
  %1 = bitcast %"core::result::Result<(core::alloc::layout::Layout, usize), core::alloc::layout::LayoutError>"* %0 to %"core::result::Result<(core::alloc::layout::Layout, usize), core::alloc::layout::LayoutError>::Err"*
  %2 = bitcast %"core::result::Result<(core::alloc::layout::Layout, usize), core::alloc::layout::LayoutError>::Err"* %1 to %"core::alloc::layout::LayoutError"*
  %3 = getelementptr inbounds %"core::result::Result<(core::alloc::layout::Layout, usize), core::alloc::layout::LayoutError>", %"core::result::Result<(core::alloc::layout::Layout, usize), core::alloc::layout::LayoutError>"* %0, i32 0, i32 1
  store i64 0, i64* %3, align 8
  ret void
}

; <core::result::Result<T,F> as core::ops::try_trait::FromResidual<core::result::Result<core::convert::Infallible,E>>>::from_residual
; Function Attrs: inlinehint nonlazybind uwtable
define void @"_ZN153_$LT$core..result..Result$LT$T$C$F$GT$$u20$as$u20$core..ops..try_trait..FromResidual$LT$core..result..Result$LT$core..convert..Infallible$C$E$GT$$GT$$GT$13from_residual17hc428c001cb2fcb9bE"(%"core::result::Result<core::ptr::non_null::NonNull<[u8]>, alloc::collections::TryReserveError>"* noalias nocapture sret(%"core::result::Result<core::ptr::non_null::NonNull<[u8]>, alloc::collections::TryReserveError>") dereferenceable(24) %0, i64 %1, i64 %2) unnamed_addr #0 {
start:
  %residual = alloca { i64, i64 }, align 8
  %3 = getelementptr inbounds { i64, i64 }, { i64, i64 }* %residual, i32 0, i32 0
  store i64 %1, i64* %3, align 8
  %4 = getelementptr inbounds { i64, i64 }, { i64, i64 }* %residual, i32 0, i32 1
  store i64 %2, i64* %4, align 8
  %5 = getelementptr inbounds { i64, i64 }, { i64, i64 }* %residual, i32 0, i32 0
  %e.0 = load i64, i64* %5, align 8
  %6 = getelementptr inbounds { i64, i64 }, { i64, i64 }* %residual, i32 0, i32 1
  %e.1 = load i64, i64* %6, align 8
; call <T as core::convert::From<T>>::from
  %7 = call { i64, i64 } @"_ZN50_$LT$T$u20$as$u20$core..convert..From$LT$T$GT$$GT$4from17hdf6cf1c952f216eeE"(i64 %e.0, i64 %e.1)
  %_3.0 = extractvalue { i64, i64 } %7, 0
  %_3.1 = extractvalue { i64, i64 } %7, 1
  br label %bb1

bb1:                                              ; preds = %start
  %8 = bitcast %"core::result::Result<core::ptr::non_null::NonNull<[u8]>, alloc::collections::TryReserveError>"* %0 to %"core::result::Result<core::ptr::non_null::NonNull<[u8]>, alloc::collections::TryReserveError>::Err"*
  %9 = getelementptr inbounds %"core::result::Result<core::ptr::non_null::NonNull<[u8]>, alloc::collections::TryReserveError>::Err", %"core::result::Result<core::ptr::non_null::NonNull<[u8]>, alloc::collections::TryReserveError>::Err"* %8, i32 0, i32 1
  %10 = getelementptr inbounds { i64, i64 }, { i64, i64 }* %9, i32 0, i32 0
  store i64 %_3.0, i64* %10, align 8
  %11 = getelementptr inbounds { i64, i64 }, { i64, i64 }* %9, i32 0, i32 1
  store i64 %_3.1, i64* %11, align 8
  %12 = bitcast %"core::result::Result<core::ptr::non_null::NonNull<[u8]>, alloc::collections::TryReserveError>"* %0 to i64*
  store i64 1, i64* %12, align 8
  ret void
}

; <core::result::Result<T,F> as core::ops::try_trait::FromResidual<core::result::Result<core::convert::Infallible,E>>>::from_residual
; Function Attrs: inlinehint nonlazybind uwtable
define void @"_ZN153_$LT$core..result..Result$LT$T$C$F$GT$$u20$as$u20$core..ops..try_trait..FromResidual$LT$core..result..Result$LT$core..convert..Infallible$C$E$GT$$GT$$GT$13from_residual17hce0ee3d6dea7375eE"(%"core::result::Result<(), alloc::collections::TryReserveError>"* noalias nocapture sret(%"core::result::Result<(), alloc::collections::TryReserveError>") dereferenceable(24) %0, i64 %1, i64 %2) unnamed_addr #0 {
start:
  %residual = alloca { i64, i64 }, align 8
  %3 = getelementptr inbounds { i64, i64 }, { i64, i64 }* %residual, i32 0, i32 0
  store i64 %1, i64* %3, align 8
  %4 = getelementptr inbounds { i64, i64 }, { i64, i64 }* %residual, i32 0, i32 1
  store i64 %2, i64* %4, align 8
  %5 = getelementptr inbounds { i64, i64 }, { i64, i64 }* %residual, i32 0, i32 0
  %e.0 = load i64, i64* %5, align 8
  %6 = getelementptr inbounds { i64, i64 }, { i64, i64 }* %residual, i32 0, i32 1
  %e.1 = load i64, i64* %6, align 8
; call <T as core::convert::From<T>>::from
  %7 = call { i64, i64 } @"_ZN50_$LT$T$u20$as$u20$core..convert..From$LT$T$GT$$GT$4from17hdf6cf1c952f216eeE"(i64 %e.0, i64 %e.1)
  %_3.0 = extractvalue { i64, i64 } %7, 0
  %_3.1 = extractvalue { i64, i64 } %7, 1
  br label %bb1

bb1:                                              ; preds = %start
  %8 = bitcast %"core::result::Result<(), alloc::collections::TryReserveError>"* %0 to %"core::result::Result<(), alloc::collections::TryReserveError>::Err"*
  %9 = getelementptr inbounds %"core::result::Result<(), alloc::collections::TryReserveError>::Err", %"core::result::Result<(), alloc::collections::TryReserveError>::Err"* %8, i32 0, i32 1
  %10 = getelementptr inbounds { i64, i64 }, { i64, i64 }* %9, i32 0, i32 0
  store i64 %_3.0, i64* %10, align 8
  %11 = getelementptr inbounds { i64, i64 }, { i64, i64 }* %9, i32 0, i32 1
  store i64 %_3.1, i64* %11, align 8
  %12 = bitcast %"core::result::Result<(), alloc::collections::TryReserveError>"* %0 to i64*
  store i64 1, i64* %12, align 8
  ret void
}

; <core::result::Result<T,F> as core::ops::try_trait::FromResidual<core::result::Result<core::convert::Infallible,E>>>::from_residual
; Function Attrs: inlinehint nonlazybind uwtable
define void @"_ZN153_$LT$core..result..Result$LT$T$C$F$GT$$u20$as$u20$core..ops..try_trait..FromResidual$LT$core..result..Result$LT$core..convert..Infallible$C$E$GT$$GT$$GT$13from_residual17hd34d6402dbe179a3E"(%"core::result::Result<core::ptr::non_null::NonNull<[u8]>, alloc::collections::TryReserveError>"* noalias nocapture sret(%"core::result::Result<core::ptr::non_null::NonNull<[u8]>, alloc::collections::TryReserveError>") dereferenceable(24) %0, i64 %1, i64 %2) unnamed_addr #0 {
start:
  %residual = alloca { i64, i64 }, align 8
  %3 = getelementptr inbounds { i64, i64 }, { i64, i64 }* %residual, i32 0, i32 0
  store i64 %1, i64* %3, align 8
  %4 = getelementptr inbounds { i64, i64 }, { i64, i64 }* %residual, i32 0, i32 1
  store i64 %2, i64* %4, align 8
  %5 = getelementptr inbounds { i64, i64 }, { i64, i64 }* %residual, i32 0, i32 0
  %e.0 = load i64, i64* %5, align 8
  %6 = getelementptr inbounds { i64, i64 }, { i64, i64 }* %residual, i32 0, i32 1
  %e.1 = load i64, i64* %6, align 8
; call <alloc::collections::TryReserveError as core::convert::From<alloc::collections::TryReserveErrorKind>>::from
  %7 = call { i64, i64 } @"_ZN122_$LT$alloc..collections..TryReserveError$u20$as$u20$core..convert..From$LT$alloc..collections..TryReserveErrorKind$GT$$GT$4from17hb23a4b01080d49d6E"(i64 %e.0, i64 %e.1)
  %_3.0 = extractvalue { i64, i64 } %7, 0
  %_3.1 = extractvalue { i64, i64 } %7, 1
  br label %bb1

bb1:                                              ; preds = %start
  %8 = bitcast %"core::result::Result<core::ptr::non_null::NonNull<[u8]>, alloc::collections::TryReserveError>"* %0 to %"core::result::Result<core::ptr::non_null::NonNull<[u8]>, alloc::collections::TryReserveError>::Err"*
  %9 = getelementptr inbounds %"core::result::Result<core::ptr::non_null::NonNull<[u8]>, alloc::collections::TryReserveError>::Err", %"core::result::Result<core::ptr::non_null::NonNull<[u8]>, alloc::collections::TryReserveError>::Err"* %8, i32 0, i32 1
  %10 = getelementptr inbounds { i64, i64 }, { i64, i64 }* %9, i32 0, i32 0
  store i64 %_3.0, i64* %10, align 8
  %11 = getelementptr inbounds { i64, i64 }, { i64, i64 }* %9, i32 0, i32 1
  store i64 %_3.1, i64* %11, align 8
  %12 = bitcast %"core::result::Result<core::ptr::non_null::NonNull<[u8]>, alloc::collections::TryReserveError>"* %0 to i64*
  store i64 1, i64* %12, align 8
  ret void
}

; <<alloc::vec::into_iter::IntoIter<T,A> as core::ops::drop::Drop>::drop::DropGuard<T,A> as core::ops::drop::Drop>::drop
; Function Attrs: nonlazybind uwtable
define void @"_ZN157_$LT$$LT$alloc..vec..into_iter..IntoIter$LT$T$C$A$GT$$u20$as$u20$core..ops..drop..Drop$GT$..drop..DropGuard$LT$T$C$A$GT$$u20$as$u20$core..ops..drop..Drop$GT$4drop17hddb594ec32be0f49E"(i64** align 8 dereferenceable(8) %self) unnamed_addr #1 personality i32 (i32, i32, i64, %"unwind::libunwind::_Unwind_Exception"*, %"unwind::libunwind::_Unwind_Context"*)* @rust_eh_personality {
start:
  %0 = alloca { i8*, i32 }, align 8
  %_10 = alloca i8, align 1
  %_5 = alloca { i64*, i64 }, align 8
  store i8 0, i8* %_10, align 1
  %1 = bitcast i64** %self to %"alloc::vec::into_iter::IntoIter<&str>"**
  %2 = load %"alloc::vec::into_iter::IntoIter<&str>"*, %"alloc::vec::into_iter::IntoIter<&str>"** %1, align 8, !nonnull !3
  %_4 = bitcast %"alloc::vec::into_iter::IntoIter<&str>"* %2 to %"alloc::alloc::Global"*
  store i8 1, i8* %_10, align 1
; call core::ptr::read
  call void @_ZN4core3ptr4read17h964699b2b6f1dea9E(%"alloc::alloc::Global"* %_4)
  br label %bb1

bb1:                                              ; preds = %start
  %3 = bitcast i64** %self to %"alloc::vec::into_iter::IntoIter<&str>"**
  %4 = load %"alloc::vec::into_iter::IntoIter<&str>"*, %"alloc::vec::into_iter::IntoIter<&str>"** %3, align 8, !nonnull !3
  %5 = bitcast %"alloc::vec::into_iter::IntoIter<&str>"* %4 to i64**
  %_7 = load i64*, i64** %5, align 8, !nonnull !3
; invoke core::ptr::non_null::NonNull<T>::as_ptr
  %_6 = invoke { [0 x i8]*, i64 }* @"_ZN4core3ptr8non_null16NonNull$LT$T$GT$6as_ptr17h7ab75b1de90bb502E"(i64* nonnull %_7)
          to label %bb2 unwind label %cleanup

bb2:                                              ; preds = %bb1
  %6 = bitcast i64** %self to %"alloc::vec::into_iter::IntoIter<&str>"**
  %7 = load %"alloc::vec::into_iter::IntoIter<&str>"*, %"alloc::vec::into_iter::IntoIter<&str>"** %6, align 8, !nonnull !3
  %8 = getelementptr inbounds %"alloc::vec::into_iter::IntoIter<&str>", %"alloc::vec::into_iter::IntoIter<&str>"* %7, i32 0, i32 3
  %_8 = load i64, i64* %8, align 8
  store i8 0, i8* %_10, align 1
; invoke alloc::raw_vec::RawVec<T,A>::from_raw_parts_in
  %9 = invoke { i64*, i64 } @"_ZN5alloc7raw_vec19RawVec$LT$T$C$A$GT$17from_raw_parts_in17h7e68f63690fbe453E"({ [0 x i8]*, i64 }* %_6, i64 %_8)
          to label %bb3 unwind label %cleanup

bb7:                                              ; preds = %cleanup
  %10 = load i8, i8* %_10, align 1, !range !4
  %11 = trunc i8 %10 to i1
  br i1 %11, label %bb6, label %bb5

cleanup:                                          ; preds = %bb3, %bb2, %bb1
  %12 = landingpad { i8*, i32 }
          cleanup
  %13 = extractvalue { i8*, i32 } %12, 0
  %14 = extractvalue { i8*, i32 } %12, 1
  %15 = getelementptr inbounds { i8*, i32 }, { i8*, i32 }* %0, i32 0, i32 0
  store i8* %13, i8** %15, align 8
  %16 = getelementptr inbounds { i8*, i32 }, { i8*, i32 }* %0, i32 0, i32 1
  store i32 %14, i32* %16, align 8
  br label %bb7

bb3:                                              ; preds = %bb2
  store { i64*, i64 } %9, { i64*, i64 }* %_5, align 8
; invoke core::ptr::drop_in_place<alloc::raw_vec::RawVec<&str>>
  invoke void @"_ZN4core3ptr58drop_in_place$LT$alloc..raw_vec..RawVec$LT$$RF$str$GT$$GT$17h545104aaffa70c4fE"({ i64*, i64 }* %_5)
          to label %bb4 unwind label %cleanup

bb4:                                              ; preds = %bb3
  store i8 0, i8* %_10, align 1
  ret void

bb5:                                              ; preds = %bb6, %bb7
  %17 = bitcast { i8*, i32 }* %0 to i8**
  %18 = load i8*, i8** %17, align 8
  %19 = getelementptr inbounds { i8*, i32 }, { i8*, i32 }* %0, i32 0, i32 1
  %20 = load i32, i32* %19, align 8
  %21 = insertvalue { i8*, i32 } undef, i8* %18, 0
  %22 = insertvalue { i8*, i32 } %21, i32 %20, 1
  resume { i8*, i32 } %22

bb6:                                              ; preds = %bb7
  br label %bb5
}

; <<alloc::collections::vec_deque::VecDeque<T,A> as core::ops::drop::Drop>::drop::Dropper<T> as core::ops::drop::Drop>::drop
; Function Attrs: nonlazybind uwtable
define void @"_ZN159_$LT$$LT$alloc..collections..vec_deque..VecDeque$LT$T$C$A$GT$$u20$as$u20$core..ops..drop..Drop$GT$..drop..Dropper$LT$T$GT$$u20$as$u20$core..ops..drop..Drop$GT$4drop17h3fba8f92c1fa0847E"({ i32*, i64 }* align 8 dereferenceable(16) %self) unnamed_addr #1 {
start:
  %0 = bitcast { i32*, i64 }* %self to { [0 x i32]*, i64 }*
  %1 = getelementptr inbounds { [0 x i32]*, i64 }, { [0 x i32]*, i64 }* %0, i32 0, i32 0
  %_3.0 = load [0 x i32]*, [0 x i32]** %1, align 8, !nonnull !3
  %2 = getelementptr inbounds { [0 x i32]*, i64 }, { [0 x i32]*, i64 }* %0, i32 0, i32 1
  %_3.1 = load i64, i64* %2, align 8
  br label %bb1

bb1:                                              ; preds = %start
  ret void
}

; <T as core::any::Any>::type_id
; Function Attrs: nonlazybind uwtable
define i64 @"_ZN36_$LT$T$u20$as$u20$core..any..Any$GT$7type_id17h429444587d557444E"({ [0 x i8]*, i64 }* align 8 dereferenceable(16) %self) unnamed_addr #1 {
start:
; call core::any::TypeId::of
  %0 = call i64 @_ZN4core3any6TypeId2of17h1a13facda8af68cfE()
  br label %bb1

bb1:                                              ; preds = %start
  ret i64 %0
}

; std::sys_common::mutex::MovableMutex::raw_unlock
; Function Attrs: inlinehint nonlazybind uwtable
define internal void @_ZN3std10sys_common5mutex12MovableMutex10raw_unlock17h5f94e28bdda7112aE(i64** align 8 dereferenceable(8) %self) unnamed_addr #0 {
start:
  %0 = bitcast i64** %self to %"std::sys::unix::mutex::Mutex"**
  %_2 = load %"std::sys::unix::mutex::Mutex"*, %"std::sys::unix::mutex::Mutex"** %0, align 8, !nonnull !3
; call std::sys::unix::mutex::Mutex::unlock
  call void @_ZN3std3sys4unix5mutex5Mutex6unlock17h1afb3806ebcc5ea4E(%"std::sys::unix::mutex::Mutex"* align 8 dereferenceable(40) %_2)
  br label %bb1

bb1:                                              ; preds = %start
  ret void
}

; std::sys_common::mutex::MovableMutex::raw_lock
; Function Attrs: inlinehint nonlazybind uwtable
define internal void @_ZN3std10sys_common5mutex12MovableMutex8raw_lock17haed4bb903318d43eE(i64** align 8 dereferenceable(8) %self) unnamed_addr #0 {
start:
  %0 = bitcast i64** %self to %"std::sys::unix::mutex::Mutex"**
  %_2 = load %"std::sys::unix::mutex::Mutex"*, %"std::sys::unix::mutex::Mutex"** %0, align 8, !nonnull !3
; call std::sys::unix::mutex::Mutex::lock
  call void @_ZN3std3sys4unix5mutex5Mutex4lock17h8d4122560abb067dE(%"std::sys::unix::mutex::Mutex"* align 8 dereferenceable(40) %_2)
  br label %bb1

bb1:                                              ; preds = %start
  ret void
}

; std::sys_common::rwlock::MovableRWLock::read_unlock
; Function Attrs: inlinehint nonlazybind uwtable
define internal void @_ZN3std10sys_common6rwlock13MovableRWLock11read_unlock17hfd30b6a702dda1e3E(i64** align 8 dereferenceable(8) %self) unnamed_addr #0 {
start:
  %0 = bitcast i64** %self to %"std::sys::unix::rwlock::RWLock"**
  %_2 = load %"std::sys::unix::rwlock::RWLock"*, %"std::sys::unix::rwlock::RWLock"** %0, align 8, !nonnull !3
; call std::sys::unix::rwlock::RWLock::read_unlock
  call void @_ZN3std3sys4unix6rwlock6RWLock11read_unlock17hdb79f8daad622389E(%"std::sys::unix::rwlock::RWLock"* align 8 dereferenceable(72) %_2)
  br label %bb1

bb1:                                              ; preds = %start
  ret void
}

; std::sys_common::rwlock::MovableRWLock::write_unlock
; Function Attrs: inlinehint nonlazybind uwtable
define internal void @_ZN3std10sys_common6rwlock13MovableRWLock12write_unlock17h852df36d603159b1E(i64** align 8 dereferenceable(8) %self) unnamed_addr #0 {
start:
  %0 = bitcast i64** %self to %"std::sys::unix::rwlock::RWLock"**
  %_2 = load %"std::sys::unix::rwlock::RWLock"*, %"std::sys::unix::rwlock::RWLock"** %0, align 8, !nonnull !3
; call std::sys::unix::rwlock::RWLock::write_unlock
  call void @_ZN3std3sys4unix6rwlock6RWLock12write_unlock17h0c546cbc93360edcE(%"std::sys::unix::rwlock::RWLock"* align 8 dereferenceable(72) %_2)
  br label %bb1

bb1:                                              ; preds = %start
  ret void
}

; std::sys_common::rwlock::MovableRWLock::read
; Function Attrs: inlinehint nonlazybind uwtable
define internal void @_ZN3std10sys_common6rwlock13MovableRWLock4read17h6928ca4ab194e2caE(i64** align 8 dereferenceable(8) %self) unnamed_addr #0 {
start:
  %0 = bitcast i64** %self to %"std::sys::unix::rwlock::RWLock"**
  %_2 = load %"std::sys::unix::rwlock::RWLock"*, %"std::sys::unix::rwlock::RWLock"** %0, align 8, !nonnull !3
; call std::sys::unix::rwlock::RWLock::read
  call void @_ZN3std3sys4unix6rwlock6RWLock4read17h22e9267a9fd4f134E(%"std::sys::unix::rwlock::RWLock"* align 8 dereferenceable(72) %_2)
  br label %bb1

bb1:                                              ; preds = %start
  ret void
}

; std::sys_common::rwlock::MovableRWLock::write
; Function Attrs: inlinehint nonlazybind uwtable
define internal void @_ZN3std10sys_common6rwlock13MovableRWLock5write17h33ae9d0e4116b354E(i64** align 8 dereferenceable(8) %self) unnamed_addr #0 {
start:
  %0 = bitcast i64** %self to %"std::sys::unix::rwlock::RWLock"**
  %_2 = load %"std::sys::unix::rwlock::RWLock"*, %"std::sys::unix::rwlock::RWLock"** %0, align 8, !nonnull !3
; call std::sys::unix::rwlock::RWLock::write
  call void @_ZN3std3sys4unix6rwlock6RWLock5write17h0af39311ab0e1da5E(%"std::sys::unix::rwlock::RWLock"* align 8 dereferenceable(72) %_2)
  br label %bb1

bb1:                                              ; preds = %start
  ret void
}

; std::sys_common::condvar::Condvar::wait
; Function Attrs: inlinehint nonlazybind uwtable
define internal void @_ZN3std10sys_common7condvar7Condvar4wait17h987ab69f5866cb43E(%"std::sys_common::condvar::Condvar"* align 8 dereferenceable(16) %self, i64** align 8 dereferenceable(8) %mutex) unnamed_addr #0 {
start:
  %_4 = getelementptr inbounds %"std::sys_common::condvar::Condvar", %"std::sys_common::condvar::Condvar"* %self, i32 0, i32 1
; call std::sys_common::condvar::check::SameMutexCheck::verify
  call void @_ZN3std10sys_common7condvar5check14SameMutexCheck6verify17h05fd77e152fcfa51E(%"std::sys_common::condvar::check::SameMutexCheck"* align 8 dereferenceable(8) %_4, i64** align 8 dereferenceable(8) %mutex)
  br label %bb1

bb1:                                              ; preds = %start
  %0 = bitcast %"std::sys_common::condvar::Condvar"* %self to %"std::sys::unix::condvar::Condvar"**
  %_6 = load %"std::sys::unix::condvar::Condvar"*, %"std::sys::unix::condvar::Condvar"** %0, align 8, !nonnull !3
; call std::sys_common::mutex::MovableMutex::raw
  %_8 = call align 8 dereferenceable(40) %"std::sys::unix::mutex::Mutex"* @_ZN3std10sys_common5mutex12MovableMutex3raw17h291a5d574400a240E(i64** align 8 dereferenceable(8) %mutex)
  br label %bb2

bb2:                                              ; preds = %bb1
; call std::sys::unix::condvar::Condvar::wait
  call void @_ZN3std3sys4unix7condvar7Condvar4wait17he7f8b748991a0426E(%"std::sys::unix::condvar::Condvar"* align 8 dereferenceable(48) %_6, %"std::sys::unix::mutex::Mutex"* align 8 dereferenceable(40) %_8)
  br label %bb3

bb3:                                              ; preds = %bb2
  ret void
}

; std::sys_common::backtrace::__rust_end_short_backtrace
; Function Attrs: noinline noreturn nonlazybind uwtable
define void @_ZN3std10sys_common9backtrace26__rust_end_short_backtrace17h0760564b8a8a04c7E(%"[closure@std::panicking::begin_panic<&str>::{closure#0}]"* noalias nocapture dereferenceable(24) %f) unnamed_addr #2 personality i32 (i32, i32, i64, %"unwind::libunwind::_Unwind_Exception"*, %"unwind::libunwind::_Unwind_Context"*)* @rust_eh_personality {
start:
  %0 = alloca { i8*, i32 }, align 8
  %_2 = alloca %"[closure@std::panicking::begin_panic<&str>::{closure#0}]", align 8
  %1 = bitcast %"[closure@std::panicking::begin_panic<&str>::{closure#0}]"* %_2 to i8*
  %2 = bitcast %"[closure@std::panicking::begin_panic<&str>::{closure#0}]"* %f to i8*
  call void @llvm.memcpy.p0i8.p0i8.i64(i8* align 8 %1, i8* align 8 %2, i64 24, i1 false)
; call std::panicking::begin_panic::{{closure}}
  call void @"_ZN3std9panicking11begin_panic28_$u7b$$u7b$closure$u7d$$u7d$17he7bb4826521dec23E"(%"[closure@std::panicking::begin_panic<&str>::{closure#0}]"* noalias nocapture dereferenceable(24) %_2) #18
  br label %bb1

bb1:                                              ; preds = %start
; invoke core::hint::black_box
  invoke void @_ZN4core4hint9black_box17hf935e9ccbd4e1b58E()
          to label %bb2 unwind label %cleanup

bb2:                                              ; preds = %bb1
  call void @llvm.trap()
  unreachable

bb3:                                              ; preds = %cleanup
  br label %bb4

cleanup:                                          ; preds = %bb1
  %3 = landingpad { i8*, i32 }
          cleanup
  %4 = extractvalue { i8*, i32 } %3, 0
  %5 = extractvalue { i8*, i32 } %3, 1
  %6 = getelementptr inbounds { i8*, i32 }, { i8*, i32 }* %0, i32 0, i32 0
  store i8* %4, i8** %6, align 8
  %7 = getelementptr inbounds { i8*, i32 }, { i8*, i32 }* %0, i32 0, i32 1
  store i32 %5, i32* %7, align 8
  br label %bb3

bb4:                                              ; preds = %bb3
  %8 = bitcast { i8*, i32 }* %0 to i8**
  %9 = load i8*, i8** %8, align 8
  %10 = getelementptr inbounds { i8*, i32 }, { i8*, i32 }* %0, i32 0, i32 1
  %11 = load i32, i32* %10, align 8
  %12 = insertvalue { i8*, i32 } undef, i8* %9, 0
  %13 = insertvalue { i8*, i32 } %12, i32 %11, 1
  resume { i8*, i32 } %13
}

; std::fs::OpenOptions::open
; Function Attrs: nonlazybind uwtable
define void @_ZN3std2fs11OpenOptions4open17h097803acad1b1380E(%"core::result::Result<std::fs::File, std::io::error::Error>"* noalias nocapture sret(%"core::result::Result<std::fs::File, std::io::error::Error>") dereferenceable(24) %0, %"std::fs::OpenOptions"* align 4 dereferenceable(16) %self, [0 x i8]* nonnull align 1 %1, i64 %2) unnamed_addr #1 personality i32 (i32, i32, i64, %"unwind::libunwind::_Unwind_Exception"*, %"unwind::libunwind::_Unwind_Context"*)* @rust_eh_personality {
start:
  %3 = alloca { i8*, i32 }, align 8
  %path = alloca { [0 x i8]*, i64 }, align 8
  %4 = getelementptr inbounds { [0 x i8]*, i64 }, { [0 x i8]*, i64 }* %path, i32 0, i32 0
  store [0 x i8]* %1, [0 x i8]** %4, align 8
  %5 = getelementptr inbounds { [0 x i8]*, i64 }, { [0 x i8]*, i64 }* %path, i32 0, i32 1
  store i64 %2, i64* %5, align 8
; invoke <&T as core::convert::AsRef<U>>::as_ref
  %6 = invoke { %"std::path::Path"*, i64 } @"_ZN55_$LT$$RF$T$u20$as$u20$core..convert..AsRef$LT$U$GT$$GT$6as_ref17h0484ca0dc3439f02E"({ [0 x i8]*, i64 }* align 8 dereferenceable(16) %path)
          to label %bb1 unwind label %cleanup

bb1:                                              ; preds = %start
  %_5.0 = extractvalue { %"std::path::Path"*, i64 } %6, 0
  %_5.1 = extractvalue { %"std::path::Path"*, i64 } %6, 1
; invoke std::fs::OpenOptions::_open
  invoke void @_ZN3std2fs11OpenOptions5_open17hf9a7f113c14c71dfE(%"core::result::Result<std::fs::File, std::io::error::Error>"* noalias nocapture sret(%"core::result::Result<std::fs::File, std::io::error::Error>") dereferenceable(24) %0, %"std::fs::OpenOptions"* align 4 dereferenceable(16) %self, %"std::path::Path"* nonnull align 1 %_5.0, i64 %_5.1)
          to label %bb2 unwind label %cleanup

bb4:                                              ; preds = %cleanup
  br label %bb5

cleanup:                                          ; preds = %bb1, %start
  %7 = landingpad { i8*, i32 }
          cleanup
  %8 = extractvalue { i8*, i32 } %7, 0
  %9 = extractvalue { i8*, i32 } %7, 1
  %10 = getelementptr inbounds { i8*, i32 }, { i8*, i32 }* %3, i32 0, i32 0
  store i8* %8, i8** %10, align 8
  %11 = getelementptr inbounds { i8*, i32 }, { i8*, i32 }* %3, i32 0, i32 1
  store i32 %9, i32* %11, align 8
  br label %bb4

bb2:                                              ; preds = %bb1
  br label %bb3

bb5:                                              ; preds = %bb4
  %12 = bitcast { i8*, i32 }* %3 to i8**
  %13 = load i8*, i8** %12, align 8
  %14 = getelementptr inbounds { i8*, i32 }, { i8*, i32 }* %3, i32 0, i32 1
  %15 = load i32, i32* %14, align 8
  %16 = insertvalue { i8*, i32 } undef, i8* %13, 0
  %17 = insertvalue { i8*, i32 } %16, i32 %15, 1
  resume { i8*, i32 } %17

bb3:                                              ; preds = %bb2
  ret void
}

; std::io::Write::write_all
; Function Attrs: nonlazybind uwtable
define i128 @_ZN3std2io5Write9write_all17hb9fa382607ad4181E(i32* align 4 dereferenceable(4) %self, [0 x i8]* nonnull align 1 %0, i64 %1) unnamed_addr #1 personality i32 (i32, i32, i64, %"unwind::libunwind::_Unwind_Exception"*, %"unwind::libunwind::_Unwind_Context"*)* @rust_eh_personality {
start:
  %2 = alloca i128, align 8
  %3 = alloca { i8*, i32 }, align 8
  %_32 = alloca i8, align 1
  %_29 = alloca %"std::io::error::Error", align 8
  %e1 = alloca %"std::io::error::Error", align 8
  %_25 = alloca i8, align 1
  %e = alloca %"std::io::error::Error"*, align 8
  %_19 = alloca i64, align 8
  %_11 = alloca i8, align 1
  %_10 = alloca %"std::io::error::Error", align 8
  %_6 = alloca %"core::result::Result<usize, std::io::error::Error>", align 8
  %4 = alloca %"core::result::Result<(), std::io::error::Error>", align 8
  %buf = alloca { [0 x i8]*, i64 }, align 8
  %5 = getelementptr inbounds { [0 x i8]*, i64 }, { [0 x i8]*, i64 }* %buf, i32 0, i32 0
  store [0 x i8]* %0, [0 x i8]** %5, align 8
  %6 = getelementptr inbounds { [0 x i8]*, i64 }, { [0 x i8]*, i64 }* %buf, i32 0, i32 1
  store i64 %1, i64* %6, align 8
  store i8 0, i8* %_32, align 1
  br label %bb1

bb1:                                              ; preds = %bb20, %start
  %7 = getelementptr inbounds { [0 x i8]*, i64 }, { [0 x i8]*, i64 }* %buf, i32 0, i32 0
  %_5.0 = load [0 x i8]*, [0 x i8]** %7, align 8, !nonnull !3
  %8 = getelementptr inbounds { [0 x i8]*, i64 }, { [0 x i8]*, i64 }* %buf, i32 0, i32 1
  %_5.1 = load i64, i64* %8, align 8
; call core::slice::<impl [T]>::is_empty
  %_4 = call zeroext i1 @"_ZN4core5slice29_$LT$impl$u20$$u5b$T$u5d$$GT$8is_empty17h832a0757a2494090E"([0 x i8]* nonnull align 1 %_5.0, i64 %_5.1)
  br label %bb2

bb2:                                              ; preds = %bb1
  %_3 = xor i1 %_4, true
  br i1 %_3, label %bb3, label %bb16

bb16:                                             ; preds = %bb2
  %9 = bitcast %"core::result::Result<(), std::io::error::Error>"* %4 to i8*
  store i8 4, i8* %9, align 8
  br label %bb18

bb3:                                              ; preds = %bb2
  %10 = getelementptr inbounds { [0 x i8]*, i64 }, { [0 x i8]*, i64 }* %buf, i32 0, i32 0
  %_8.0 = load [0 x i8]*, [0 x i8]** %10, align 8, !nonnull !3
  %11 = getelementptr inbounds { [0 x i8]*, i64 }, { [0 x i8]*, i64 }* %buf, i32 0, i32 1
  %_8.1 = load i64, i64* %11, align 8
  store i8 1, i8* %_32, align 1
; call <std::fs::File as std::io::Write>::write
  call void @"_ZN48_$LT$std..fs..File$u20$as$u20$std..io..Write$GT$5write17h03102cc4fd32491dE"(%"core::result::Result<usize, std::io::error::Error>"* noalias nocapture sret(%"core::result::Result<usize, std::io::error::Error>") dereferenceable(24) %_6, i32* align 4 dereferenceable(4) %self, [0 x i8]* nonnull align 1 %_8.0, i64 %_8.1)
  br label %bb4

bb4:                                              ; preds = %bb3
  %12 = bitcast %"core::result::Result<usize, std::io::error::Error>"* %_6 to i64*
  %_9 = load i64, i64* %12, align 8, !range !2
  switch i64 %_9, label %bb6 [
    i64 0, label %bb5
    i64 1, label %bb11
  ]

bb6:                                              ; preds = %bb4
  unreachable

bb5:                                              ; preds = %bb4
  %13 = bitcast %"core::result::Result<usize, std::io::error::Error>"* %_6 to %"core::result::Result<usize, std::io::error::Error>::Ok"*
  %14 = getelementptr inbounds %"core::result::Result<usize, std::io::error::Error>::Ok", %"core::result::Result<usize, std::io::error::Error>::Ok"* %13, i32 0, i32 1
  %15 = load i64, i64* %14, align 8
  %16 = icmp eq i64 %15, 0
  br i1 %16, label %bb7, label %bb9

bb11:                                             ; preds = %bb4
  %17 = bitcast %"core::result::Result<usize, std::io::error::Error>"* %_6 to %"core::result::Result<usize, std::io::error::Error>::Err"*
  %18 = getelementptr inbounds %"core::result::Result<usize, std::io::error::Error>::Err", %"core::result::Result<usize, std::io::error::Error>::Err"* %17, i32 0, i32 1
  store %"std::io::error::Error"* %18, %"std::io::error::Error"** %e, align 8
  %_26 = load %"std::io::error::Error"*, %"std::io::error::Error"** %e, align 8, !nonnull !3
; invoke std::io::error::Error::kind
  %19 = invoke i8 @_ZN3std2io5error5Error4kind17hebbc620e405d939aE(%"std::io::error::Error"* align 8 dereferenceable(16) %_26)
          to label %bb12 unwind label %cleanup, !range !5

bb12:                                             ; preds = %bb11
  store i8 %19, i8* %_25, align 1
; invoke <std::io::error::ErrorKind as core::cmp::PartialEq>::eq
  %_23 = invoke zeroext i1 @"_ZN66_$LT$std..io..error..ErrorKind$u20$as$u20$core..cmp..PartialEq$GT$2eq17h80e77723a301e536E"(i8* align 1 dereferenceable(1) %_25, i8* align 1 dereferenceable(1) getelementptr inbounds (<{ [1 x i8] }>, <{ [1 x i8] }>* @alloc145, i32 0, i32 0, i32 0))
          to label %bb13 unwind label %cleanup

bb26:                                             ; preds = %cleanup
  %20 = bitcast %"core::result::Result<usize, std::io::error::Error>"* %_6 to i64*
  %_34 = load i64, i64* %20, align 8, !range !2
  %21 = icmp eq i64 %_34, 1
  br i1 %21, label %bb24, label %bb19

cleanup:                                          ; preds = %bb7, %bb9, %bb12, %bb11
  %22 = landingpad { i8*, i32 }
          cleanup
  %23 = extractvalue { i8*, i32 } %22, 0
  %24 = extractvalue { i8*, i32 } %22, 1
  %25 = getelementptr inbounds { i8*, i32 }, { i8*, i32 }* %3, i32 0, i32 0
  store i8* %23, i8** %25, align 8
  %26 = getelementptr inbounds { i8*, i32 }, { i8*, i32 }* %3, i32 0, i32 1
  store i32 %24, i32* %26, align 8
  br label %bb26

bb13:                                             ; preds = %bb12
  br i1 %_23, label %bb14, label %bb15

bb15:                                             ; preds = %bb13
  store i8 0, i8* %_32, align 1
  %27 = bitcast %"core::result::Result<usize, std::io::error::Error>"* %_6 to %"core::result::Result<usize, std::io::error::Error>::Err"*
  %28 = getelementptr inbounds %"core::result::Result<usize, std::io::error::Error>::Err", %"core::result::Result<usize, std::io::error::Error>::Err"* %27, i32 0, i32 1
  %29 = bitcast %"std::io::error::Error"* %e1 to i8*
  %30 = bitcast %"std::io::error::Error"* %28 to i8*
  call void @llvm.memcpy.p0i8.p0i8.i64(i8* align 8 %29, i8* align 8 %30, i64 16, i1 false)
  %31 = bitcast %"std::io::error::Error"* %_29 to i8*
  %32 = bitcast %"std::io::error::Error"* %e1 to i8*
  call void @llvm.memcpy.p0i8.p0i8.i64(i8* align 8 %31, i8* align 8 %32, i64 16, i1 false)
  %33 = bitcast %"core::result::Result<(), std::io::error::Error>"* %4 to %"core::result::Result<(), std::io::error::Error>::Err"*
  %34 = bitcast %"core::result::Result<(), std::io::error::Error>::Err"* %33 to %"std::io::error::Error"*
  %35 = bitcast %"std::io::error::Error"* %34 to i8*
  %36 = bitcast %"std::io::error::Error"* %_29 to i8*
  call void @llvm.memcpy.p0i8.p0i8.i64(i8* align 8 %35, i8* align 8 %36, i64 16, i1 false)
  br label %bb17

bb14:                                             ; preds = %bb13
  br label %bb23

bb23:                                             ; preds = %bb10, %bb14
  %37 = bitcast %"core::result::Result<usize, std::io::error::Error>"* %_6 to i64*
  %_33 = load i64, i64* %37, align 8, !range !2
  %38 = icmp eq i64 %_33, 1
  br i1 %38, label %bb21, label %bb20

bb17:                                             ; preds = %bb8, %bb15
  store i8 0, i8* %_32, align 1
  br label %bb18

bb7:                                              ; preds = %bb5
  store i8 23, i8* %_11, align 1
  %39 = load i8, i8* %_11, align 1, !range !5
; invoke std::io::error::Error::new_const
  %40 = invoke i128 @_ZN3std2io5error5Error9new_const17h4ed44353156bf8d5E(i8 %39, { [0 x i8]*, i64 }* align 8 dereferenceable(16) bitcast (<{ i8*, [8 x i8] }>* @alloc143 to { [0 x i8]*, i64 }*))
          to label %bb8 unwind label %cleanup

bb9:                                              ; preds = %bb5
  %41 = bitcast %"core::result::Result<usize, std::io::error::Error>"* %_6 to %"core::result::Result<usize, std::io::error::Error>::Ok"*
  %42 = getelementptr inbounds %"core::result::Result<usize, std::io::error::Error>::Ok", %"core::result::Result<usize, std::io::error::Error>::Ok"* %41, i32 0, i32 1
  %n = load i64, i64* %42, align 8
  %43 = getelementptr inbounds { [0 x i8]*, i64 }, { [0 x i8]*, i64 }* %buf, i32 0, i32 0
  %_18.0 = load [0 x i8]*, [0 x i8]** %43, align 8, !nonnull !3
  %44 = getelementptr inbounds { [0 x i8]*, i64 }, { [0 x i8]*, i64 }* %buf, i32 0, i32 1
  %_18.1 = load i64, i64* %44, align 8
  store i64 %n, i64* %_19, align 8
  %45 = load i64, i64* %_19, align 8
; invoke core::slice::index::<impl core::ops::index::Index<I> for [T]>::index
  %46 = invoke { [0 x i8]*, i64 } @"_ZN4core5slice5index74_$LT$impl$u20$core..ops..index..Index$LT$I$GT$$u20$for$u20$$u5b$T$u5d$$GT$5index17h88570b1ac1839af9E"([0 x i8]* nonnull align 1 %_18.0, i64 %_18.1, i64 %45, %"core::panic::location::Location"* align 8 dereferenceable(24) bitcast (<{ i8*, [16 x i8] }>* @alloc441 to %"core::panic::location::Location"*))
          to label %bb10 unwind label %cleanup

bb10:                                             ; preds = %bb9
  %_17.0 = extractvalue { [0 x i8]*, i64 } %46, 0
  %_17.1 = extractvalue { [0 x i8]*, i64 } %46, 1
  %47 = getelementptr inbounds { [0 x i8]*, i64 }, { [0 x i8]*, i64 }* %buf, i32 0, i32 0
  store [0 x i8]* %_17.0, [0 x i8]** %47, align 8
  %48 = getelementptr inbounds { [0 x i8]*, i64 }, { [0 x i8]*, i64 }* %buf, i32 0, i32 1
  store i64 %_17.1, i64* %48, align 8
  br label %bb23

bb21:                                             ; preds = %bb23
  %49 = load i8, i8* %_32, align 1, !range !4
  %50 = trunc i8 %49 to i1
  br i1 %50, label %bb22, label %bb20

bb20:                                             ; preds = %bb22, %bb21, %bb23
  store i8 0, i8* %_32, align 1
  br label %bb1

bb22:                                             ; preds = %bb21
  %51 = bitcast %"core::result::Result<usize, std::io::error::Error>"* %_6 to %"core::result::Result<usize, std::io::error::Error>::Err"*
  %52 = getelementptr inbounds %"core::result::Result<usize, std::io::error::Error>::Err", %"core::result::Result<usize, std::io::error::Error>::Err"* %51, i32 0, i32 1
; call core::ptr::drop_in_place<std::io::error::Error>
  call void @"_ZN4core3ptr42drop_in_place$LT$std..io..error..Error$GT$17hda7771387f347390E"(%"std::io::error::Error"* %52)
  br label %bb20

bb8:                                              ; preds = %bb7
  store i128 %40, i128* %2, align 8
  %53 = bitcast %"std::io::error::Error"* %_10 to i8*
  %54 = bitcast i128* %2 to i8*
  call void @llvm.memcpy.p0i8.p0i8.i64(i8* align 8 %53, i8* align 8 %54, i64 16, i1 false)
  %55 = bitcast %"core::result::Result<(), std::io::error::Error>"* %4 to %"core::result::Result<(), std::io::error::Error>::Err"*
  %56 = bitcast %"core::result::Result<(), std::io::error::Error>::Err"* %55 to %"std::io::error::Error"*
  %57 = bitcast %"std::io::error::Error"* %56 to i8*
  %58 = bitcast %"std::io::error::Error"* %_10 to i8*
  call void @llvm.memcpy.p0i8.p0i8.i64(i8* align 8 %57, i8* align 8 %58, i64 16, i1 false)
  br label %bb17

bb24:                                             ; preds = %bb26
  %59 = load i8, i8* %_32, align 1, !range !4
  %60 = trunc i8 %59 to i1
  br i1 %60, label %bb25, label %bb19

bb19:                                             ; preds = %bb25, %bb24, %bb26
  %61 = bitcast { i8*, i32 }* %3 to i8**
  %62 = load i8*, i8** %61, align 8
  %63 = getelementptr inbounds { i8*, i32 }, { i8*, i32 }* %3, i32 0, i32 1
  %64 = load i32, i32* %63, align 8
  %65 = insertvalue { i8*, i32 } undef, i8* %62, 0
  %66 = insertvalue { i8*, i32 } %65, i32 %64, 1
  resume { i8*, i32 } %66

bb25:                                             ; preds = %bb24
  %67 = bitcast %"core::result::Result<usize, std::io::error::Error>"* %_6 to %"core::result::Result<usize, std::io::error::Error>::Err"*
  %68 = getelementptr inbounds %"core::result::Result<usize, std::io::error::Error>::Err", %"core::result::Result<usize, std::io::error::Error>::Err"* %67, i32 0, i32 1
; call core::ptr::drop_in_place<std::io::error::Error>
  call void @"_ZN4core3ptr42drop_in_place$LT$std..io..error..Error$GT$17hda7771387f347390E"(%"std::io::error::Error"* %68) #19
  br label %bb19

bb18:                                             ; preds = %bb16, %bb17
  %69 = bitcast %"core::result::Result<(), std::io::error::Error>"* %4 to i128*
  %70 = load i128, i128* %69, align 8
  ret i128 %70
}

; std::io::Write::write_fmt
; Function Attrs: nonlazybind uwtable
define i128 @_ZN3std2io5Write9write_fmt17h85f0732d49b4061dE(i32* align 4 dereferenceable(4) %self, %"core::fmt::Arguments"* noalias nocapture dereferenceable(48) %fmt) unnamed_addr #1 personality i32 (i32, i32, i64, %"unwind::libunwind::_Unwind_Exception"*, %"unwind::libunwind::_Unwind_Context"*)* @rust_eh_personality {
start:
  %0 = alloca i128, align 8
  %1 = alloca { i8*, i32 }, align 8
  %_19 = alloca i8, align 1
  %_15 = alloca i8, align 1
  %_14 = alloca %"std::io::error::Error", align 8
  %_10 = alloca %"core::fmt::Arguments", align 8
  %_6 = alloca i8, align 1
  %_5 = alloca %"core::result::Result<(), std::io::error::Error>", align 8
  %output = alloca %"std::io::Write::write_fmt::Adapter<std::fs::File>", align 8
  %2 = alloca %"core::result::Result<(), std::io::error::Error>", align 8
  store i8 0, i8* %_19, align 1
  %3 = bitcast %"core::result::Result<(), std::io::error::Error>"* %_5 to i8*
  store i8 4, i8* %3, align 8
  store i8 1, i8* %_19, align 1
  %4 = bitcast %"std::io::Write::write_fmt::Adapter<std::fs::File>"* %output to i32**
  store i32* %self, i32** %4, align 8
  %5 = getelementptr inbounds %"std::io::Write::write_fmt::Adapter<std::fs::File>", %"std::io::Write::write_fmt::Adapter<std::fs::File>"* %output, i32 0, i32 1
  %6 = bitcast %"core::result::Result<(), std::io::error::Error>"* %5 to i8*
  %7 = bitcast %"core::result::Result<(), std::io::error::Error>"* %_5 to i8*
  call void @llvm.memcpy.p0i8.p0i8.i64(i8* align 8 %6, i8* align 8 %7, i64 16, i1 false)
  %_7.0 = bitcast %"std::io::Write::write_fmt::Adapter<std::fs::File>"* %output to {}*
  %8 = bitcast %"core::fmt::Arguments"* %_10 to i8*
  %9 = bitcast %"core::fmt::Arguments"* %fmt to i8*
  call void @llvm.memcpy.p0i8.p0i8.i64(i8* align 8 %8, i8* align 8 %9, i64 48, i1 false)
; invoke core::fmt::write
  %10 = invoke zeroext i1 @_ZN4core3fmt5write17h182b3dab33fa727dE({}* nonnull align 1 %_7.0, [3 x i64]* align 8 dereferenceable(24) bitcast (<{ i8*, [16 x i8], i8*, i8*, i8*, [0 x i8] }>* @vtable.0 to [3 x i64]*), %"core::fmt::Arguments"* noalias nocapture dereferenceable(48) %_10)
          to label %bb1 unwind label %cleanup

bb1:                                              ; preds = %start
  %11 = zext i1 %10 to i8
  store i8 %11, i8* %_6, align 1
  %12 = load i8, i8* %_6, align 1, !range !4
  %13 = trunc i8 %12 to i1
  %_11 = zext i1 %13 to i64
  switch i64 %_11, label %bb3 [
    i64 0, label %bb4
    i64 1, label %bb2
  ]

bb10:                                             ; preds = %cleanup
; call core::ptr::drop_in_place<std::io::Write::write_fmt::Adapter<std::fs::File>>
  call void @"_ZN4core3ptr76drop_in_place$LT$std..io..Write..write_fmt..Adapter$LT$std..fs..File$GT$$GT$17h0c0b82882c1b1196E"(%"std::io::Write::write_fmt::Adapter<std::fs::File>"* %output) #19
  br label %bb11

cleanup:                                          ; preds = %bb7, %bb2, %start
  %14 = landingpad { i8*, i32 }
          cleanup
  %15 = extractvalue { i8*, i32 } %14, 0
  %16 = extractvalue { i8*, i32 } %14, 1
  %17 = getelementptr inbounds { i8*, i32 }, { i8*, i32 }* %1, i32 0, i32 0
  store i8* %15, i8** %17, align 8
  %18 = getelementptr inbounds { i8*, i32 }, { i8*, i32 }* %1, i32 0, i32 1
  store i32 %16, i32* %18, align 8
  br label %bb10

bb3:                                              ; preds = %bb1
  unreachable

bb4:                                              ; preds = %bb1
  %19 = bitcast %"core::result::Result<(), std::io::error::Error>"* %2 to i8*
  store i8 4, i8* %19, align 8
  br label %bb14

bb2:                                              ; preds = %bb1
  %_13 = getelementptr inbounds %"std::io::Write::write_fmt::Adapter<std::fs::File>", %"std::io::Write::write_fmt::Adapter<std::fs::File>"* %output, i32 0, i32 1
; invoke core::result::Result<T,E>::is_err
  %_12 = invoke zeroext i1 @"_ZN4core6result19Result$LT$T$C$E$GT$6is_err17h8f18556c2787f4eaE"(%"core::result::Result<(), std::io::error::Error>"* align 8 dereferenceable(16) %_13)
          to label %bb5 unwind label %cleanup

bb5:                                              ; preds = %bb2
  br i1 %_12, label %bb6, label %bb7

bb7:                                              ; preds = %bb5
  store i8 40, i8* %_15, align 1
  %20 = load i8, i8* %_15, align 1, !range !5
; invoke std::io::error::Error::new_const
  %21 = invoke i128 @_ZN3std2io5error5Error9new_const17h4ed44353156bf8d5E(i8 %20, { [0 x i8]*, i64 }* align 8 dereferenceable(16) bitcast (<{ i8*, [8 x i8] }>* @alloc140 to { [0 x i8]*, i64 }*))
          to label %bb8 unwind label %cleanup

bb6:                                              ; preds = %bb5
  store i8 0, i8* %_19, align 1
  %22 = getelementptr inbounds %"std::io::Write::write_fmt::Adapter<std::fs::File>", %"std::io::Write::write_fmt::Adapter<std::fs::File>"* %output, i32 0, i32 1
  %23 = bitcast %"core::result::Result<(), std::io::error::Error>"* %2 to i8*
  %24 = bitcast %"core::result::Result<(), std::io::error::Error>"* %22 to i8*
  call void @llvm.memcpy.p0i8.p0i8.i64(i8* align 8 %23, i8* align 8 %24, i64 16, i1 false)
  br label %bb9

bb9:                                              ; preds = %bb8, %bb6
  br label %bb14

bb8:                                              ; preds = %bb7
  store i128 %21, i128* %0, align 8
  %25 = bitcast %"std::io::error::Error"* %_14 to i8*
  %26 = bitcast i128* %0 to i8*
  call void @llvm.memcpy.p0i8.p0i8.i64(i8* align 8 %25, i8* align 8 %26, i64 16, i1 false)
  %27 = bitcast %"core::result::Result<(), std::io::error::Error>"* %2 to %"core::result::Result<(), std::io::error::Error>::Err"*
  %28 = bitcast %"core::result::Result<(), std::io::error::Error>::Err"* %27 to %"std::io::error::Error"*
  %29 = bitcast %"std::io::error::Error"* %28 to i8*
  %30 = bitcast %"std::io::error::Error"* %_14 to i8*
  call void @llvm.memcpy.p0i8.p0i8.i64(i8* align 8 %29, i8* align 8 %30, i64 16, i1 false)
  br label %bb9

bb11:                                             ; preds = %bb10
  %31 = bitcast { i8*, i32 }* %1 to i8**
  %32 = load i8*, i8** %31, align 8
  %33 = getelementptr inbounds { i8*, i32 }, { i8*, i32 }* %1, i32 0, i32 1
  %34 = load i32, i32* %33, align 8
  %35 = insertvalue { i8*, i32 } undef, i8* %32, 0
  %36 = insertvalue { i8*, i32 } %35, i32 %34, 1
  resume { i8*, i32 } %36

bb14:                                             ; preds = %bb4, %bb9
  %37 = load i8, i8* %_19, align 1, !range !4
  %38 = trunc i8 %37 to i1
  br i1 %38, label %bb13, label %bb12

bb12:                                             ; preds = %bb13, %bb14
  store i8 0, i8* %_19, align 1
  %39 = bitcast %"core::result::Result<(), std::io::error::Error>"* %2 to i128*
  %40 = load i128, i128* %39, align 8
  ret i128 %40

bb13:                                             ; preds = %bb14
  %41 = getelementptr inbounds %"std::io::Write::write_fmt::Adapter<std::fs::File>", %"std::io::Write::write_fmt::Adapter<std::fs::File>"* %output, i32 0, i32 1
; call core::ptr::drop_in_place<core::result::Result<(),std::io::error::Error>>
  call void @"_ZN4core3ptr81drop_in_place$LT$core..result..Result$LT$$LP$$RP$$C$std..io..error..Error$GT$$GT$17ha3b6bcf921980c34E"(%"core::result::Result<(), std::io::error::Error>"* %41)
  br label %bb12
}

; std::io::error::Error::kind
; Function Attrs: inlinehint nonlazybind uwtable
define internal i8 @_ZN3std2io5error5Error4kind17hebbc620e405d939aE(%"std::io::error::Error"* align 8 dereferenceable(16) %self) unnamed_addr #0 {
start:
  %0 = alloca i8, align 1
  %1 = bitcast %"std::io::error::Error"* %self to %"std::io::error::Repr"*
  %2 = bitcast %"std::io::error::Repr"* %1 to i8*
  %3 = load i8, i8* %2, align 8, !range !6
  %_2 = zext i8 %3 to i64
  switch i64 %_2, label %bb2 [
    i64 0, label %bb3
    i64 1, label %bb6
    i64 2, label %bb1
    i64 3, label %bb5
  ]

bb2:                                              ; preds = %start
  unreachable

bb3:                                              ; preds = %start
  %4 = bitcast %"std::io::error::Error"* %self to %"std::io::error::Repr"*
  %5 = bitcast %"std::io::error::Repr"* %4 to %"std::io::error::Repr::Os"*
  %6 = getelementptr inbounds %"std::io::error::Repr::Os", %"std::io::error::Repr::Os"* %5, i32 0, i32 1
  %code = load i32, i32* %6, align 4
; call std::sys::unix::decode_error_kind
  %7 = call i8 @_ZN3std3sys4unix17decode_error_kind17h0b4b195659215c25E(i32 %code), !range !5
  store i8 %7, i8* %0, align 1
  br label %bb4

bb6:                                              ; preds = %start
  %8 = bitcast %"std::io::error::Error"* %self to %"std::io::error::Repr"*
  %9 = bitcast %"std::io::error::Repr"* %8 to %"std::io::error::Repr::Simple"*
  %10 = getelementptr inbounds %"std::io::error::Repr::Simple", %"std::io::error::Repr::Simple"* %9, i32 0, i32 1
  %kind1 = load i8, i8* %10, align 1, !range !5
  store i8 %kind1, i8* %0, align 1
  br label %bb7

bb1:                                              ; preds = %start
  %11 = bitcast %"std::io::error::Error"* %self to %"std::io::error::Repr"*
  %12 = bitcast %"std::io::error::Repr"* %11 to %"std::io::error::Repr::SimpleMessage"*
  %13 = getelementptr inbounds %"std::io::error::Repr::SimpleMessage", %"std::io::error::Repr::SimpleMessage"* %12, i32 0, i32 1
  %kind = load i8, i8* %13, align 1, !range !5
  store i8 %kind, i8* %0, align 1
  br label %bb7

bb5:                                              ; preds = %start
  %14 = bitcast %"std::io::error::Error"* %self to %"std::io::error::Repr"*
  %15 = bitcast %"std::io::error::Repr"* %14 to %"std::io::error::Repr::Custom"*
  %c = getelementptr inbounds %"std::io::error::Repr::Custom", %"std::io::error::Repr::Custom"* %15, i32 0, i32 1
  %16 = load %"std::io::error::Custom"*, %"std::io::error::Custom"** %c, align 8, !nonnull !3
  %17 = getelementptr inbounds %"std::io::error::Custom", %"std::io::error::Custom"* %16, i32 0, i32 1
  %18 = load i8, i8* %17, align 8, !range !5
  store i8 %18, i8* %0, align 1
  br label %bb7

bb7:                                              ; preds = %bb4, %bb6, %bb1, %bb5
  %19 = load i8, i8* %0, align 1, !range !5
  ret i8 %19

bb4:                                              ; preds = %bb3
  br label %bb7
}

; std::io::error::Error::new_const
; Function Attrs: inlinehint nonlazybind uwtable
define internal i128 @_ZN3std2io5error5Error9new_const17h4ed44353156bf8d5E(i8 %kind, { [0 x i8]*, i64 }* align 8 dereferenceable(16) %message) unnamed_addr #0 {
start:
  %_3 = alloca %"std::io::error::Repr", align 8
  %0 = alloca %"std::io::error::Error", align 8
  %1 = bitcast %"std::io::error::Repr"* %_3 to %"std::io::error::Repr::SimpleMessage"*
  %2 = getelementptr inbounds %"std::io::error::Repr::SimpleMessage", %"std::io::error::Repr::SimpleMessage"* %1, i32 0, i32 1
  store i8 %kind, i8* %2, align 1
  %3 = bitcast %"std::io::error::Repr"* %_3 to %"std::io::error::Repr::SimpleMessage"*
  %4 = getelementptr inbounds %"std::io::error::Repr::SimpleMessage", %"std::io::error::Repr::SimpleMessage"* %3, i32 0, i32 3
  store { [0 x i8]*, i64 }* %message, { [0 x i8]*, i64 }** %4, align 8
  %5 = bitcast %"std::io::error::Repr"* %_3 to i8*
  store i8 2, i8* %5, align 8
  %6 = bitcast %"std::io::error::Error"* %0 to %"std::io::error::Repr"*
  %7 = bitcast %"std::io::error::Repr"* %6 to i8*
  %8 = bitcast %"std::io::error::Repr"* %_3 to i8*
  call void @llvm.memcpy.p0i8.p0i8.i64(i8* align 8 %7, i8* align 8 %8, i64 16, i1 false)
  %9 = bitcast %"std::io::error::Error"* %0 to i128*
  %10 = load i128, i128* %9, align 8
  ret i128 %10
}

; std::ffi::os_str::OsStr::from_inner
; Function Attrs: inlinehint nonlazybind uwtable
define internal { %"std::ffi::os_str::OsStr"*, i64 } @_ZN3std3ffi6os_str5OsStr10from_inner17ha08c5008ac9647a5E(%"std::sys::unix::os_str::Slice"* nonnull align 1 %inner.0, i64 %inner.1) unnamed_addr #0 {
start:
  %_2.0 = bitcast %"std::sys::unix::os_str::Slice"* %inner.0 to %"std::ffi::os_str::OsStr"*
  %0 = insertvalue { %"std::ffi::os_str::OsStr"*, i64 } undef, %"std::ffi::os_str::OsStr"* %_2.0, 0
  %1 = insertvalue { %"std::ffi::os_str::OsStr"*, i64 } %0, i64 %inner.1, 1
  ret { %"std::ffi::os_str::OsStr"*, i64 } %1
}

; std::ffi::os_str::<impl core::convert::AsRef<std::ffi::os_str::OsStr> for str>::as_ref
; Function Attrs: inlinehint nonlazybind uwtable
define internal { %"std::ffi::os_str::OsStr"*, i64 } @"_ZN3std3ffi6os_str85_$LT$impl$u20$core..convert..AsRef$LT$std..ffi..os_str..OsStr$GT$$u20$for$u20$str$GT$6as_ref17h6ed3165b5f2415c4E"([0 x i8]* nonnull align 1 %self.0, i64 %self.1) unnamed_addr #0 {
start:
; call std::sys::unix::os_str::Slice::from_str
  %0 = call { %"std::sys::unix::os_str::Slice"*, i64 } @_ZN3std3sys4unix6os_str5Slice8from_str17h9c8fc03daeea6907E([0 x i8]* nonnull align 1 %self.0, i64 %self.1)
  %_3.0 = extractvalue { %"std::sys::unix::os_str::Slice"*, i64 } %0, 0
  %_3.1 = extractvalue { %"std::sys::unix::os_str::Slice"*, i64 } %0, 1
  br label %bb1

bb1:                                              ; preds = %start
; call std::ffi::os_str::OsStr::from_inner
  %1 = call { %"std::ffi::os_str::OsStr"*, i64 } @_ZN3std3ffi6os_str5OsStr10from_inner17ha08c5008ac9647a5E(%"std::sys::unix::os_str::Slice"* nonnull align 1 %_3.0, i64 %_3.1)
  %2 = extractvalue { %"std::ffi::os_str::OsStr"*, i64 } %1, 0
  %3 = extractvalue { %"std::ffi::os_str::OsStr"*, i64 } %1, 1
  br label %bb2

bb2:                                              ; preds = %bb1
  %4 = insertvalue { %"std::ffi::os_str::OsStr"*, i64 } undef, %"std::ffi::os_str::OsStr"* %2, 0
  %5 = insertvalue { %"std::ffi::os_str::OsStr"*, i64 } %4, i64 %3, 1
  ret { %"std::ffi::os_str::OsStr"*, i64 } %5
}

; std::sys::unix::mutex::raw
; Function Attrs: inlinehint nonlazybind uwtable
define internal %"libc::unix::linux_like::linux::pthread_mutex_t"* @_ZN3std3sys4unix5mutex3raw17h325051196e052154E(%"std::sys::unix::mutex::Mutex"* align 8 dereferenceable(40) %m) unnamed_addr #0 {
start:
  %_2 = bitcast %"std::sys::unix::mutex::Mutex"* %m to %"core::cell::UnsafeCell<libc::unix::linux_like::linux::pthread_mutex_t>"*
  %_2.i = bitcast %"core::cell::UnsafeCell<libc::unix::linux_like::linux::pthread_mutex_t>"* %_2 to %"libc::unix::linux_like::linux::pthread_mutex_t"*
  br label %bb1

bb1:                                              ; preds = %start
  ret %"libc::unix::linux_like::linux::pthread_mutex_t"* %_2.i
}

; std::sys::unix::mutex::Mutex::lock
; Function Attrs: inlinehint nonlazybind uwtable
define internal void @_ZN3std3sys4unix5mutex5Mutex4lock17h8d4122560abb067dE(%"std::sys::unix::mutex::Mutex"* align 8 dereferenceable(40) %self) unnamed_addr #0 {
start:
  %_4 = bitcast %"std::sys::unix::mutex::Mutex"* %self to %"core::cell::UnsafeCell<libc::unix::linux_like::linux::pthread_mutex_t>"*
  %_2.i = bitcast %"core::cell::UnsafeCell<libc::unix::linux_like::linux::pthread_mutex_t>"* %_4 to %"libc::unix::linux_like::linux::pthread_mutex_t"*
  br label %bb1

bb1:                                              ; preds = %start
  %r = call i32 @pthread_mutex_lock(%"libc::unix::linux_like::linux::pthread_mutex_t"* %_2.i)
  br label %bb2

bb2:                                              ; preds = %bb1
  ret void
}

; std::sys::unix::mutex::Mutex::unlock
; Function Attrs: inlinehint nonlazybind uwtable
define internal void @_ZN3std3sys4unix5mutex5Mutex6unlock17h1afb3806ebcc5ea4E(%"std::sys::unix::mutex::Mutex"* align 8 dereferenceable(40) %self) unnamed_addr #0 {
start:
  %_4 = bitcast %"std::sys::unix::mutex::Mutex"* %self to %"core::cell::UnsafeCell<libc::unix::linux_like::linux::pthread_mutex_t>"*
  %_2.i = bitcast %"core::cell::UnsafeCell<libc::unix::linux_like::linux::pthread_mutex_t>"* %_4 to %"libc::unix::linux_like::linux::pthread_mutex_t"*
  br label %bb1

bb1:                                              ; preds = %start
  %r = call i32 @pthread_mutex_unlock(%"libc::unix::linux_like::linux::pthread_mutex_t"* %_2.i)
  br label %bb2

bb2:                                              ; preds = %bb1
  ret void
}

; std::sys::unix::os_str::Slice::from_u8_slice
; Function Attrs: inlinehint nonlazybind uwtable
define internal { %"std::sys::unix::os_str::Slice"*, i64 } @_ZN3std3sys4unix6os_str5Slice13from_u8_slice17h5ee8d6a8f3bd210fE([0 x i8]* nonnull align 1 %s.0, i64 %s.1) unnamed_addr #0 {
start:
  %0 = alloca { %"std::sys::unix::os_str::Slice"*, i64 }, align 8
  %1 = bitcast { %"std::sys::unix::os_str::Slice"*, i64 }* %0 to { [0 x i8]*, i64 }*
  %2 = getelementptr inbounds { [0 x i8]*, i64 }, { [0 x i8]*, i64 }* %1, i32 0, i32 0
  store [0 x i8]* %s.0, [0 x i8]** %2, align 8
  %3 = getelementptr inbounds { [0 x i8]*, i64 }, { [0 x i8]*, i64 }* %1, i32 0, i32 1
  store i64 %s.1, i64* %3, align 8
  %4 = getelementptr inbounds { %"std::sys::unix::os_str::Slice"*, i64 }, { %"std::sys::unix::os_str::Slice"*, i64 }* %0, i32 0, i32 0
  %5 = load %"std::sys::unix::os_str::Slice"*, %"std::sys::unix::os_str::Slice"** %4, align 8, !nonnull !3
  %6 = getelementptr inbounds { %"std::sys::unix::os_str::Slice"*, i64 }, { %"std::sys::unix::os_str::Slice"*, i64 }* %0, i32 0, i32 1
  %7 = load i64, i64* %6, align 8
  br label %bb1

bb1:                                              ; preds = %start
  %8 = insertvalue { %"std::sys::unix::os_str::Slice"*, i64 } undef, %"std::sys::unix::os_str::Slice"* %5, 0
  %9 = insertvalue { %"std::sys::unix::os_str::Slice"*, i64 } %8, i64 %7, 1
  ret { %"std::sys::unix::os_str::Slice"*, i64 } %9
}

; std::sys::unix::os_str::Slice::from_str
; Function Attrs: inlinehint nonlazybind uwtable
define internal { %"std::sys::unix::os_str::Slice"*, i64 } @_ZN3std3sys4unix6os_str5Slice8from_str17h9c8fc03daeea6907E([0 x i8]* nonnull align 1 %s.0, i64 %s.1) unnamed_addr #0 {
start:
  %0 = alloca { [0 x i8]*, i64 }, align 8
  %1 = getelementptr inbounds { [0 x i8]*, i64 }, { [0 x i8]*, i64 }* %0, i32 0, i32 0
  store [0 x i8]* %s.0, [0 x i8]** %1, align 8
  %2 = getelementptr inbounds { [0 x i8]*, i64 }, { [0 x i8]*, i64 }* %0, i32 0, i32 1
  store i64 %s.1, i64* %2, align 8
  %3 = getelementptr inbounds { [0 x i8]*, i64 }, { [0 x i8]*, i64 }* %0, i32 0, i32 0
  %4 = load [0 x i8]*, [0 x i8]** %3, align 8, !nonnull !3
  %5 = getelementptr inbounds { [0 x i8]*, i64 }, { [0 x i8]*, i64 }* %0, i32 0, i32 1
  %6 = load i64, i64* %5, align 8
  %7 = insertvalue { [0 x i8]*, i64 } undef, [0 x i8]* %4, 0
  %8 = insertvalue { [0 x i8]*, i64 } %7, i64 %6, 1
  %_3.0 = extractvalue { [0 x i8]*, i64 } %8, 0
  %_3.1 = extractvalue { [0 x i8]*, i64 } %8, 1
  br label %bb1

bb1:                                              ; preds = %start
; call std::sys::unix::os_str::Slice::from_u8_slice
  %9 = call { %"std::sys::unix::os_str::Slice"*, i64 } @_ZN3std3sys4unix6os_str5Slice13from_u8_slice17h5ee8d6a8f3bd210fE([0 x i8]* nonnull align 1 %_3.0, i64 %_3.1)
  %10 = extractvalue { %"std::sys::unix::os_str::Slice"*, i64 } %9, 0
  %11 = extractvalue { %"std::sys::unix::os_str::Slice"*, i64 } %9, 1
  br label %bb2

bb2:                                              ; preds = %bb1
  %12 = insertvalue { %"std::sys::unix::os_str::Slice"*, i64 } undef, %"std::sys::unix::os_str::Slice"* %10, 0
  %13 = insertvalue { %"std::sys::unix::os_str::Slice"*, i64 } %12, i64 %11, 1
  ret { %"std::sys::unix::os_str::Slice"*, i64 } %13
}

; std::sys::unix::rwlock::RWLock::raw_unlock
; Function Attrs: inlinehint nonlazybind uwtable
define internal void @_ZN3std3sys4unix6rwlock6RWLock10raw_unlock17hda2c1cf00605ac34E(%"std::sys::unix::rwlock::RWLock"* align 8 dereferenceable(72) %self) unnamed_addr #0 {
start:
  %_4 = bitcast %"std::sys::unix::rwlock::RWLock"* %self to %"core::cell::UnsafeCell<libc::unix::linux_like::linux::pthread_rwlock_t>"*
  %_2.i = bitcast %"core::cell::UnsafeCell<libc::unix::linux_like::linux::pthread_rwlock_t>"* %_4 to %"libc::unix::linux_like::linux::pthread_rwlock_t"*
  br label %bb1

bb1:                                              ; preds = %start
  %r = call i32 @pthread_rwlock_unlock(%"libc::unix::linux_like::linux::pthread_rwlock_t"* %_2.i)
  br label %bb2

bb2:                                              ; preds = %bb1
  ret void
}

; std::sys::unix::rwlock::RWLock::read_unlock
; Function Attrs: inlinehint nonlazybind uwtable
define internal void @_ZN3std3sys4unix6rwlock6RWLock11read_unlock17hdb79f8daad622389E(%"std::sys::unix::rwlock::RWLock"* align 8 dereferenceable(72) %self) unnamed_addr #0 {
start:
  %_4 = alloca i8, align 1
  %_3 = getelementptr inbounds %"std::sys::unix::rwlock::RWLock", %"std::sys::unix::rwlock::RWLock"* %self, i32 0, i32 1
  store i8 0, i8* %_4, align 1
  %0 = load i8, i8* %_4, align 1, !range !7
; call core::sync::atomic::AtomicUsize::fetch_sub
  %_2 = call i64 @_ZN4core4sync6atomic11AtomicUsize9fetch_sub17h4de5bdca29faa70cE(%"core::sync::atomic::AtomicUsize"* align 8 dereferenceable(8) %_3, i64 1, i8 %0)
  br label %bb1

bb1:                                              ; preds = %start
; call std::sys::unix::rwlock::RWLock::raw_unlock
  call void @_ZN3std3sys4unix6rwlock6RWLock10raw_unlock17hda2c1cf00605ac34E(%"std::sys::unix::rwlock::RWLock"* align 8 dereferenceable(72) %self)
  br label %bb2

bb2:                                              ; preds = %bb1
  ret void
}

; std::sys::unix::rwlock::RWLock::write_unlock
; Function Attrs: inlinehint nonlazybind uwtable
define internal void @_ZN3std3sys4unix6rwlock6RWLock12write_unlock17h0c546cbc93360edcE(%"std::sys::unix::rwlock::RWLock"* align 8 dereferenceable(72) %self) unnamed_addr #0 {
start:
  %_6 = getelementptr inbounds %"std::sys::unix::rwlock::RWLock", %"std::sys::unix::rwlock::RWLock"* %self, i32 0, i32 2
  br label %bb1

bb1:                                              ; preds = %start
  store i8 0, i8* %_6, align 1
; call std::sys::unix::rwlock::RWLock::raw_unlock
  call void @_ZN3std3sys4unix6rwlock6RWLock10raw_unlock17hda2c1cf00605ac34E(%"std::sys::unix::rwlock::RWLock"* align 8 dereferenceable(72) %self)
  br label %bb2

bb2:                                              ; preds = %bb1
  ret void
}

; std::sys::unix::rwlock::RWLock::read
; Function Attrs: inlinehint nonlazybind uwtable
define internal void @_ZN3std3sys4unix6rwlock6RWLock4read17h22e9267a9fd4f134E(%"std::sys::unix::rwlock::RWLock"* align 8 dereferenceable(72) %self) unnamed_addr #0 {
start:
  %_23 = alloca i8, align 1
  %_10 = alloca i8, align 1
  %_7 = alloca i8, align 1
  %_4 = bitcast %"std::sys::unix::rwlock::RWLock"* %self to %"core::cell::UnsafeCell<libc::unix::linux_like::linux::pthread_rwlock_t>"*
  %_2.i = bitcast %"core::cell::UnsafeCell<libc::unix::linux_like::linux::pthread_rwlock_t>"* %_4 to %"libc::unix::linux_like::linux::pthread_rwlock_t"*
  br label %bb1

bb1:                                              ; preds = %start
  %r = call i32 @pthread_rwlock_rdlock(%"libc::unix::linux_like::linux::pthread_rwlock_t"* %_2.i)
  br label %bb2

bb2:                                              ; preds = %bb1
  %_5 = icmp eq i32 %r, 11
  br i1 %_5, label %bb3, label %bb4

bb4:                                              ; preds = %bb2
  %_8 = icmp eq i32 %r, 35
  br i1 %_8, label %bb5, label %bb6

bb3:                                              ; preds = %bb2
; call std::panicking::begin_panic
  call void @_ZN3std9panicking11begin_panic17h87a6b8f3b352b2c2E([0 x i8]* nonnull align 1 bitcast (<{ [36 x i8] }>* @alloc447 to [0 x i8]*), i64 36, %"core::panic::location::Location"* align 8 dereferenceable(24) bitcast (<{ i8*, [16 x i8] }>* @alloc449 to %"core::panic::location::Location"*)) #18
  unreachable

bb6:                                              ; preds = %bb4
  %0 = icmp eq i32 %r, 0
  br i1 %0, label %bb9, label %bb8

bb5:                                              ; preds = %bb4
  store i8 1, i8* %_7, align 1
  br label %bb7

bb7:                                              ; preds = %bb10, %bb5
  %1 = load i8, i8* %_7, align 1, !range !4
  %2 = trunc i8 %1 to i1
  br i1 %2, label %bb12, label %bb17

bb9:                                              ; preds = %bb6
  %_14 = getelementptr inbounds %"std::sys::unix::rwlock::RWLock", %"std::sys::unix::rwlock::RWLock"* %self, i32 0, i32 2
  br label %bb11

bb8:                                              ; preds = %bb6
  store i8 0, i8* %_10, align 1
  br label %bb10

bb10:                                             ; preds = %bb11, %bb8
  %3 = load i8, i8* %_10, align 1, !range !4
  %4 = trunc i8 %3 to i1
  %5 = zext i1 %4 to i8
  store i8 %5, i8* %_7, align 1
  br label %bb7

bb11:                                             ; preds = %bb9
  %6 = load i8, i8* %_14, align 1, !range !4
  %_12 = trunc i8 %6 to i1
  %7 = zext i1 %_12 to i8
  store i8 %7, i8* %_10, align 1
  br label %bb10

bb17:                                             ; preds = %bb7
  %_22 = getelementptr inbounds %"std::sys::unix::rwlock::RWLock", %"std::sys::unix::rwlock::RWLock"* %self, i32 0, i32 1
  store i8 0, i8* %_23, align 1
  %8 = load i8, i8* %_23, align 1, !range !7
; call core::sync::atomic::AtomicUsize::fetch_add
  %_21 = call i64 @_ZN4core4sync6atomic11AtomicUsize9fetch_add17h3955efa3ec429adbE(%"core::sync::atomic::AtomicUsize"* align 8 dereferenceable(8) %_22, i64 1, i8 %8)
  br label %bb18

bb12:                                             ; preds = %bb7
  %9 = icmp eq i32 %r, 0
  br i1 %9, label %bb13, label %bb15

bb13:                                             ; preds = %bb12
; call std::sys::unix::rwlock::RWLock::raw_unlock
  call void @_ZN3std3sys4unix6rwlock6RWLock10raw_unlock17hda2c1cf00605ac34E(%"std::sys::unix::rwlock::RWLock"* align 8 dereferenceable(72) %self)
  br label %bb14

bb15:                                             ; preds = %bb12
  br label %bb16

bb16:                                             ; preds = %bb14, %bb15
; call std::panicking::begin_panic
  call void @_ZN3std9panicking11begin_panic17h87a6b8f3b352b2c2E([0 x i8]* nonnull align 1 bitcast (<{ [41 x i8] }>* @alloc450 to [0 x i8]*), i64 41, %"core::panic::location::Location"* align 8 dereferenceable(24) bitcast (<{ i8*, [16 x i8] }>* @alloc452 to %"core::panic::location::Location"*)) #18
  unreachable

bb14:                                             ; preds = %bb13
  br label %bb16

bb18:                                             ; preds = %bb17
  ret void
}

; std::sys::unix::rwlock::RWLock::write
; Function Attrs: inlinehint nonlazybind uwtable
define internal void @_ZN3std3sys4unix6rwlock6RWLock5write17h0af39311ab0e1da5E(%"std::sys::unix::rwlock::RWLock"* align 8 dereferenceable(72) %self) unnamed_addr #0 {
start:
  %_17 = alloca i8, align 1
  %_9 = alloca i8, align 1
  %_6 = alloca i8, align 1
  %_5 = alloca i8, align 1
  %_4 = bitcast %"std::sys::unix::rwlock::RWLock"* %self to %"core::cell::UnsafeCell<libc::unix::linux_like::linux::pthread_rwlock_t>"*
  %_2.i = bitcast %"core::cell::UnsafeCell<libc::unix::linux_like::linux::pthread_rwlock_t>"* %_4 to %"libc::unix::linux_like::linux::pthread_rwlock_t"*
  br label %bb1

bb1:                                              ; preds = %start
  %r = call i32 @pthread_rwlock_wrlock(%"libc::unix::linux_like::linux::pthread_rwlock_t"* %_2.i)
  br label %bb2

bb2:                                              ; preds = %bb1
  %_7 = icmp eq i32 %r, 35
  br i1 %_7, label %bb6, label %bb7

bb7:                                              ; preds = %bb2
  %0 = icmp eq i32 %r, 0
  br i1 %0, label %bb10, label %bb9

bb6:                                              ; preds = %bb2
  store i8 1, i8* %_6, align 1
  br label %bb8

bb8:                                              ; preds = %bb11, %bb6
  %1 = load i8, i8* %_6, align 1, !range !4
  %2 = trunc i8 %1 to i1
  br i1 %2, label %bb3, label %bb4

bb10:                                             ; preds = %bb7
  %_13 = getelementptr inbounds %"std::sys::unix::rwlock::RWLock", %"std::sys::unix::rwlock::RWLock"* %self, i32 0, i32 2
  br label %bb12

bb9:                                              ; preds = %bb7
  store i8 0, i8* %_9, align 1
  br label %bb11

bb11:                                             ; preds = %bb12, %bb9
  %3 = load i8, i8* %_9, align 1, !range !4
  %4 = trunc i8 %3 to i1
  %5 = zext i1 %4 to i8
  store i8 %5, i8* %_6, align 1
  br label %bb8

bb12:                                             ; preds = %bb10
  %6 = load i8, i8* %_13, align 1, !range !4
  %_11 = trunc i8 %6 to i1
  %7 = zext i1 %_11 to i8
  store i8 %7, i8* %_9, align 1
  br label %bb11

bb4:                                              ; preds = %bb8
  %_16 = getelementptr inbounds %"std::sys::unix::rwlock::RWLock", %"std::sys::unix::rwlock::RWLock"* %self, i32 0, i32 1
  store i8 0, i8* %_17, align 1
  %8 = load i8, i8* %_17, align 1, !range !7
; call core::sync::atomic::AtomicUsize::load
  %_15 = call i64 @_ZN4core4sync6atomic11AtomicUsize4load17h3bd2c95b5cfe9b6eE(%"core::sync::atomic::AtomicUsize"* align 8 dereferenceable(8) %_16, i8 %8)
  br label %bb13

bb3:                                              ; preds = %bb8
  store i8 1, i8* %_5, align 1
  br label %bb5

bb5:                                              ; preds = %bb13, %bb3
  %9 = load i8, i8* %_5, align 1, !range !4
  %10 = trunc i8 %9 to i1
  br i1 %10, label %bb14, label %bb19

bb13:                                             ; preds = %bb4
  %_14 = icmp ne i64 %_15, 0
  %11 = zext i1 %_14 to i8
  store i8 %11, i8* %_5, align 1
  br label %bb5

bb19:                                             ; preds = %bb5
  %_25 = getelementptr inbounds %"std::sys::unix::rwlock::RWLock", %"std::sys::unix::rwlock::RWLock"* %self, i32 0, i32 2
  br label %bb20

bb14:                                             ; preds = %bb5
  %12 = icmp eq i32 %r, 0
  br i1 %12, label %bb15, label %bb17

bb15:                                             ; preds = %bb14
; call std::sys::unix::rwlock::RWLock::raw_unlock
  call void @_ZN3std3sys4unix6rwlock6RWLock10raw_unlock17hda2c1cf00605ac34E(%"std::sys::unix::rwlock::RWLock"* align 8 dereferenceable(72) %self)
  br label %bb16

bb17:                                             ; preds = %bb14
  br label %bb18

bb18:                                             ; preds = %bb16, %bb17
; call std::panicking::begin_panic
  call void @_ZN3std9panicking11begin_panic17h87a6b8f3b352b2c2E([0 x i8]* nonnull align 1 bitcast (<{ [42 x i8] }>* @alloc453 to [0 x i8]*), i64 42, %"core::panic::location::Location"* align 8 dereferenceable(24) bitcast (<{ i8*, [16 x i8] }>* @alloc455 to %"core::panic::location::Location"*)) #18
  unreachable

bb16:                                             ; preds = %bb15
  br label %bb18

bb20:                                             ; preds = %bb19
  store i8 1, i8* %_25, align 1
  ret void
}

; std::sys::unix::condvar::Condvar::wait
; Function Attrs: inlinehint nonlazybind uwtable
define internal void @_ZN3std3sys4unix7condvar7Condvar4wait17he7f8b748991a0426E(%"std::sys::unix::condvar::Condvar"* align 8 dereferenceable(48) %self, %"std::sys::unix::mutex::Mutex"* align 8 dereferenceable(40) %mutex) unnamed_addr #0 {
start:
  %_5 = bitcast %"std::sys::unix::condvar::Condvar"* %self to %"core::cell::UnsafeCell<libc::unix::linux_like::linux::pthread_cond_t>"*
  %_2.i = bitcast %"core::cell::UnsafeCell<libc::unix::linux_like::linux::pthread_cond_t>"* %_5 to %"libc::unix::linux_like::linux::pthread_cond_t"*
  br label %bb1

bb1:                                              ; preds = %start
; call std::sys::unix::mutex::raw
  %_6 = call %"libc::unix::linux_like::linux::pthread_mutex_t"* @_ZN3std3sys4unix5mutex3raw17h325051196e052154E(%"std::sys::unix::mutex::Mutex"* align 8 dereferenceable(40) %mutex)
  br label %bb2

bb2:                                              ; preds = %bb1
  %r = call i32 @pthread_cond_wait(%"libc::unix::linux_like::linux::pthread_cond_t"* %_2.i, %"libc::unix::linux_like::linux::pthread_mutex_t"* %_6)
  br label %bb3

bb3:                                              ; preds = %bb2
  ret void
}

; std::path::Path::new
; Function Attrs: nonlazybind uwtable
define { %"std::path::Path"*, i64 } @_ZN3std4path4Path3new17h737202e083c9bfbcE([0 x i8]* nonnull align 1 %s.0, i64 %s.1) unnamed_addr #1 {
start:
; call std::ffi::os_str::<impl core::convert::AsRef<std::ffi::os_str::OsStr> for str>::as_ref
  %0 = call { %"std::ffi::os_str::OsStr"*, i64 } @"_ZN3std3ffi6os_str85_$LT$impl$u20$core..convert..AsRef$LT$std..ffi..os_str..OsStr$GT$$u20$for$u20$str$GT$6as_ref17h6ed3165b5f2415c4E"([0 x i8]* nonnull align 1 %s.0, i64 %s.1)
  %_4.0 = extractvalue { %"std::ffi::os_str::OsStr"*, i64 } %0, 0
  %_4.1 = extractvalue { %"std::ffi::os_str::OsStr"*, i64 } %0, 1
  br label %bb1

bb1:                                              ; preds = %start
  %_2.0 = bitcast %"std::ffi::os_str::OsStr"* %_4.0 to %"std::path::Path"*
  %1 = insertvalue { %"std::path::Path"*, i64 } undef, %"std::path::Path"* %_2.0, 0
  %2 = insertvalue { %"std::path::Path"*, i64 } %1, i64 %_4.1, 1
  ret { %"std::path::Path"*, i64 } %2
}

; std::path::<impl core::convert::AsRef<std::path::Path> for str>::as_ref
; Function Attrs: inlinehint nonlazybind uwtable
define internal { %"std::path::Path"*, i64 } @"_ZN3std4path77_$LT$impl$u20$core..convert..AsRef$LT$std..path..Path$GT$$u20$for$u20$str$GT$6as_ref17h979cf03aca93174cE"([0 x i8]* nonnull align 1 %self.0, i64 %self.1) unnamed_addr #0 {
start:
; call std::path::Path::new
  %0 = call { %"std::path::Path"*, i64 } @_ZN3std4path4Path3new17h737202e083c9bfbcE([0 x i8]* nonnull align 1 %self.0, i64 %self.1)
  %1 = extractvalue { %"std::path::Path"*, i64 } %0, 0
  %2 = extractvalue { %"std::path::Path"*, i64 } %0, 1
  br label %bb1

bb1:                                              ; preds = %start
  %3 = insertvalue { %"std::path::Path"*, i64 } undef, %"std::path::Path"* %1, 0
  %4 = insertvalue { %"std::path::Path"*, i64 } %3, i64 %2, 1
  ret { %"std::path::Path"*, i64 } %4
}

; std::sync::mutex::guard_lock
; Function Attrs: nonlazybind uwtable
define align 8 dereferenceable(8) i64** @_ZN3std4sync5mutex10guard_lock17hc8e071d2dc1ae69cE({ i64*, i8 }* align 8 dereferenceable(16) %guard) unnamed_addr #1 {
start:
  %0 = bitcast { i64*, i8 }* %guard to %"std::sync::mutex::Mutex<i32>"**
  %1 = load %"std::sync::mutex::Mutex<i32>"*, %"std::sync::mutex::Mutex<i32>"** %0, align 8, !nonnull !3
  %2 = bitcast %"std::sync::mutex::Mutex<i32>"* %1 to i64**
  ret i64** %2
}

; std::sync::mutex::guard_lock
; Function Attrs: nonlazybind uwtable
define align 8 dereferenceable(8) i64** @_ZN3std4sync5mutex10guard_lock17hd008107fcac947e4E({ i64*, i8 }* align 8 dereferenceable(16) %guard) unnamed_addr #1 {
start:
  %0 = bitcast { i64*, i8 }* %guard to %"std::sync::mutex::Mutex<()>"**
  %1 = load %"std::sync::mutex::Mutex<()>"*, %"std::sync::mutex::Mutex<()>"** %0, align 8, !nonnull !3
  %2 = bitcast %"std::sync::mutex::Mutex<()>"* %1 to i64**
  ret i64** %2
}

; std::sync::mutex::guard_poison
; Function Attrs: nonlazybind uwtable
define align 1 dereferenceable(1) %"std::sync::poison::Flag"* @_ZN3std4sync5mutex12guard_poison17h2e69530a735f9983E({ i64*, i8 }* align 8 dereferenceable(16) %guard) unnamed_addr #1 {
start:
  %0 = bitcast { i64*, i8 }* %guard to %"std::sync::mutex::Mutex<i32>"**
  %1 = load %"std::sync::mutex::Mutex<i32>"*, %"std::sync::mutex::Mutex<i32>"** %0, align 8, !nonnull !3
  %2 = getelementptr inbounds %"std::sync::mutex::Mutex<i32>", %"std::sync::mutex::Mutex<i32>"* %1, i32 0, i32 1
  ret %"std::sync::poison::Flag"* %2
}

; std::sync::mutex::guard_poison
; Function Attrs: nonlazybind uwtable
define align 1 dereferenceable(1) %"std::sync::poison::Flag"* @_ZN3std4sync5mutex12guard_poison17h6502048b6b41fc9fE({ i64*, i8 }* align 8 dereferenceable(16) %guard) unnamed_addr #1 {
start:
  %0 = bitcast { i64*, i8 }* %guard to %"std::sync::mutex::Mutex<()>"**
  %1 = load %"std::sync::mutex::Mutex<()>"*, %"std::sync::mutex::Mutex<()>"** %0, align 8, !nonnull !3
  %2 = getelementptr inbounds %"std::sync::mutex::Mutex<()>", %"std::sync::mutex::Mutex<()>"* %1, i32 0, i32 1
  ret %"std::sync::poison::Flag"* %2
}

; std::sync::mutex::Mutex<T>::new
; Function Attrs: nonlazybind uwtable
define i128 @"_ZN3std4sync5mutex14Mutex$LT$T$GT$3new17h32482af0c51d975fE"() unnamed_addr #1 personality i32 (i32, i32, i64, %"unwind::libunwind::_Unwind_Exception"*, %"unwind::libunwind::_Unwind_Context"*)* @rust_eh_personality {
start:
  %0 = alloca %"core::cell::UnsafeCell<()>", align 1
  %1 = alloca i8, align 1
  %2 = alloca { i8*, i32 }, align 8
  %_6 = alloca i8, align 1
  %_3 = alloca %"std::sync::poison::Flag", align 1
  %_2 = alloca i64*, align 8
  %3 = alloca %"std::sync::mutex::Mutex<()>", align 8
  store i8 0, i8* %_6, align 1
  store i8 1, i8* %_6, align 1
; invoke std::sys_common::mutex::MovableMutex::new
  %4 = invoke noalias nonnull align 8 i64* @_ZN3std10sys_common5mutex12MovableMutex3new17h2bb8f0e9b979bf81E()
          to label %bb1 unwind label %cleanup

bb1:                                              ; preds = %start
  store i64* %4, i64** %_2, align 8
; invoke std::sync::poison::Flag::new
  %5 = invoke i8 @_ZN3std4sync6poison4Flag3new17h47827b134c610a5eE()
          to label %bb2 unwind label %cleanup1

bb7:                                              ; preds = %bb4, %cleanup
  %6 = load i8, i8* %_6, align 1, !range !4
  %7 = trunc i8 %6 to i1
  br i1 %7, label %bb6, label %bb5

cleanup:                                          ; preds = %start
  %8 = landingpad { i8*, i32 }
          cleanup
  %9 = extractvalue { i8*, i32 } %8, 0
  %10 = extractvalue { i8*, i32 } %8, 1
  %11 = getelementptr inbounds { i8*, i32 }, { i8*, i32 }* %2, i32 0, i32 0
  store i8* %9, i8** %11, align 8
  %12 = getelementptr inbounds { i8*, i32 }, { i8*, i32 }* %2, i32 0, i32 1
  store i32 %10, i32* %12, align 8
  br label %bb7

bb2:                                              ; preds = %bb1
  store i8 %5, i8* %1, align 1
  %13 = bitcast %"std::sync::poison::Flag"* %_3 to i8*
  call void @llvm.memcpy.p0i8.p0i8.i64(i8* align 1 %13, i8* align 1 %1, i64 1, i1 false)
  store i8 0, i8* %_6, align 1
  %14 = bitcast %"core::cell::UnsafeCell<()>"* %0 to {}*
  br label %bb3

bb4:                                              ; preds = %cleanup1
; call core::ptr::drop_in_place<std::sys_common::mutex::MovableMutex>
  call void @"_ZN4core3ptr57drop_in_place$LT$std..sys_common..mutex..MovableMutex$GT$17h46e122904241ac1cE"(i64** %_2) #19
  br label %bb7

cleanup1:                                         ; preds = %bb1
  %15 = landingpad { i8*, i32 }
          cleanup
  %16 = extractvalue { i8*, i32 } %15, 0
  %17 = extractvalue { i8*, i32 } %15, 1
  %18 = getelementptr inbounds { i8*, i32 }, { i8*, i32 }* %2, i32 0, i32 0
  store i8* %16, i8** %18, align 8
  %19 = getelementptr inbounds { i8*, i32 }, { i8*, i32 }* %2, i32 0, i32 1
  store i32 %17, i32* %19, align 8
  br label %bb4

bb3:                                              ; preds = %bb2
  %20 = bitcast %"std::sync::mutex::Mutex<()>"* %3 to i64**
  %21 = load i64*, i64** %_2, align 8, !nonnull !3
  store i64* %21, i64** %20, align 8
  %22 = getelementptr inbounds %"std::sync::mutex::Mutex<()>", %"std::sync::mutex::Mutex<()>"* %3, i32 0, i32 1
  %23 = bitcast %"std::sync::poison::Flag"* %22 to i8*
  %24 = bitcast %"std::sync::poison::Flag"* %_3 to i8*
  call void @llvm.memcpy.p0i8.p0i8.i64(i8* align 8 %23, i8* align 1 %24, i64 1, i1 false)
  %25 = getelementptr inbounds %"std::sync::mutex::Mutex<()>", %"std::sync::mutex::Mutex<()>"* %3, i32 0, i32 2
  %26 = bitcast %"std::sync::mutex::Mutex<()>"* %3 to i128*
  %27 = load i128, i128* %26, align 8
  ret i128 %27

bb5:                                              ; preds = %bb6, %bb7
  %28 = bitcast { i8*, i32 }* %2 to i8**
  %29 = load i8*, i8** %28, align 8
  %30 = getelementptr inbounds { i8*, i32 }, { i8*, i32 }* %2, i32 0, i32 1
  %31 = load i32, i32* %30, align 8
  %32 = insertvalue { i8*, i32 } undef, i8* %29, 0
  %33 = insertvalue { i8*, i32 } %32, i32 %31, 1
  resume { i8*, i32 } %33

bb6:                                              ; preds = %bb7
  br label %bb5
}

; std::sync::mutex::Mutex<T>::new
; Function Attrs: nonlazybind uwtable
define i128 @"_ZN3std4sync5mutex14Mutex$LT$T$GT$3new17h41c993713127bdb7E"(i32 %t) unnamed_addr #1 personality i32 (i32, i32, i64, %"unwind::libunwind::_Unwind_Exception"*, %"unwind::libunwind::_Unwind_Context"*)* @rust_eh_personality {
start:
  %0 = alloca i32, align 4
  %1 = alloca i8, align 1
  %2 = alloca { i8*, i32 }, align 8
  %_6 = alloca i8, align 1
  %_3 = alloca %"std::sync::poison::Flag", align 1
  %_2 = alloca i64*, align 8
  %3 = alloca %"std::sync::mutex::Mutex<i32>", align 8
  store i8 0, i8* %_6, align 1
  store i8 1, i8* %_6, align 1
; invoke std::sys_common::mutex::MovableMutex::new
  %4 = invoke noalias nonnull align 8 i64* @_ZN3std10sys_common5mutex12MovableMutex3new17h2bb8f0e9b979bf81E()
          to label %bb1 unwind label %cleanup

bb1:                                              ; preds = %start
  store i64* %4, i64** %_2, align 8
; invoke std::sync::poison::Flag::new
  %5 = invoke i8 @_ZN3std4sync6poison4Flag3new17h47827b134c610a5eE()
          to label %bb2 unwind label %cleanup1

bb7:                                              ; preds = %bb4, %cleanup
  %6 = load i8, i8* %_6, align 1, !range !4
  %7 = trunc i8 %6 to i1
  br i1 %7, label %bb6, label %bb5

cleanup:                                          ; preds = %start
  %8 = landingpad { i8*, i32 }
          cleanup
  %9 = extractvalue { i8*, i32 } %8, 0
  %10 = extractvalue { i8*, i32 } %8, 1
  %11 = getelementptr inbounds { i8*, i32 }, { i8*, i32 }* %2, i32 0, i32 0
  store i8* %9, i8** %11, align 8
  %12 = getelementptr inbounds { i8*, i32 }, { i8*, i32 }* %2, i32 0, i32 1
  store i32 %10, i32* %12, align 8
  br label %bb7

bb2:                                              ; preds = %bb1
  store i8 %5, i8* %1, align 1
  %13 = bitcast %"std::sync::poison::Flag"* %_3 to i8*
  call void @llvm.memcpy.p0i8.p0i8.i64(i8* align 1 %13, i8* align 1 %1, i64 1, i1 false)
  store i8 0, i8* %_6, align 1
  store i32 %t, i32* %0, align 4
  %14 = load i32, i32* %0, align 4
  br label %bb3

bb4:                                              ; preds = %cleanup1
; call core::ptr::drop_in_place<std::sys_common::mutex::MovableMutex>
  call void @"_ZN4core3ptr57drop_in_place$LT$std..sys_common..mutex..MovableMutex$GT$17h46e122904241ac1cE"(i64** %_2) #19
  br label %bb7

cleanup1:                                         ; preds = %bb1
  %15 = landingpad { i8*, i32 }
          cleanup
  %16 = extractvalue { i8*, i32 } %15, 0
  %17 = extractvalue { i8*, i32 } %15, 1
  %18 = getelementptr inbounds { i8*, i32 }, { i8*, i32 }* %2, i32 0, i32 0
  store i8* %16, i8** %18, align 8
  %19 = getelementptr inbounds { i8*, i32 }, { i8*, i32 }* %2, i32 0, i32 1
  store i32 %17, i32* %19, align 8
  br label %bb4

bb3:                                              ; preds = %bb2
  %20 = bitcast %"std::sync::mutex::Mutex<i32>"* %3 to i64**
  %21 = load i64*, i64** %_2, align 8, !nonnull !3
  store i64* %21, i64** %20, align 8
  %22 = getelementptr inbounds %"std::sync::mutex::Mutex<i32>", %"std::sync::mutex::Mutex<i32>"* %3, i32 0, i32 1
  %23 = bitcast %"std::sync::poison::Flag"* %22 to i8*
  %24 = bitcast %"std::sync::poison::Flag"* %_3 to i8*
  call void @llvm.memcpy.p0i8.p0i8.i64(i8* align 8 %23, i8* align 1 %24, i64 1, i1 false)
  %25 = getelementptr inbounds %"std::sync::mutex::Mutex<i32>", %"std::sync::mutex::Mutex<i32>"* %3, i32 0, i32 3
  store i32 %14, i32* %25, align 4
  %26 = bitcast %"std::sync::mutex::Mutex<i32>"* %3 to i128*
  %27 = load i128, i128* %26, align 8
  ret i128 %27

bb5:                                              ; preds = %bb6, %bb7
  %28 = bitcast { i8*, i32 }* %2 to i8**
  %29 = load i8*, i8** %28, align 8
  %30 = getelementptr inbounds { i8*, i32 }, { i8*, i32 }* %2, i32 0, i32 1
  %31 = load i32, i32* %30, align 8
  %32 = insertvalue { i8*, i32 } undef, i8* %29, 0
  %33 = insertvalue { i8*, i32 } %32, i32 %31, 1
  resume { i8*, i32 } %33

bb6:                                              ; preds = %bb7
  br label %bb5
}

; std::sync::mutex::Mutex<T>::new
; Function Attrs: nonlazybind uwtable
define i128 @"_ZN3std4sync5mutex14Mutex$LT$T$GT$3new17h59d989b87025e1e2E"(i32 %0) unnamed_addr #1 personality i32 (i32, i32, i64, %"unwind::libunwind::_Unwind_Exception"*, %"unwind::libunwind::_Unwind_Context"*)* @rust_eh_personality {
start:
  %1 = alloca i32, align 4
  %2 = alloca i8, align 1
  %3 = alloca { i8*, i32 }, align 8
  %_6 = alloca i8, align 1
  %_3 = alloca %"std::sync::poison::Flag", align 1
  %_2 = alloca i64*, align 8
  %4 = alloca %"std::sync::mutex::Mutex<std::fs::File>", align 8
  %t = alloca i32, align 4
  store i32 %0, i32* %t, align 4
  store i8 0, i8* %_6, align 1
  store i8 1, i8* %_6, align 1
; invoke std::sys_common::mutex::MovableMutex::new
  %5 = invoke noalias nonnull align 8 i64* @_ZN3std10sys_common5mutex12MovableMutex3new17h2bb8f0e9b979bf81E()
          to label %bb1 unwind label %cleanup

bb1:                                              ; preds = %start
  store i64* %5, i64** %_2, align 8
; invoke std::sync::poison::Flag::new
  %6 = invoke i8 @_ZN3std4sync6poison4Flag3new17h47827b134c610a5eE()
          to label %bb2 unwind label %cleanup1

bb7:                                              ; preds = %bb4, %cleanup
  %7 = load i8, i8* %_6, align 1, !range !4
  %8 = trunc i8 %7 to i1
  br i1 %8, label %bb6, label %bb5

cleanup:                                          ; preds = %start
  %9 = landingpad { i8*, i32 }
          cleanup
  %10 = extractvalue { i8*, i32 } %9, 0
  %11 = extractvalue { i8*, i32 } %9, 1
  %12 = getelementptr inbounds { i8*, i32 }, { i8*, i32 }* %3, i32 0, i32 0
  store i8* %10, i8** %12, align 8
  %13 = getelementptr inbounds { i8*, i32 }, { i8*, i32 }* %3, i32 0, i32 1
  store i32 %11, i32* %13, align 8
  br label %bb7

bb2:                                              ; preds = %bb1
  store i8 %6, i8* %2, align 1
  %14 = bitcast %"std::sync::poison::Flag"* %_3 to i8*
  call void @llvm.memcpy.p0i8.p0i8.i64(i8* align 1 %14, i8* align 1 %2, i64 1, i1 false)
  store i8 0, i8* %_6, align 1
  %_5 = load i32, i32* %t, align 4, !range !8
  store i32 %_5, i32* %1, align 4
  %15 = load i32, i32* %1, align 4, !range !8
  br label %bb3

bb4:                                              ; preds = %cleanup1
; call core::ptr::drop_in_place<std::sys_common::mutex::MovableMutex>
  call void @"_ZN4core3ptr57drop_in_place$LT$std..sys_common..mutex..MovableMutex$GT$17h46e122904241ac1cE"(i64** %_2) #19
  br label %bb7

cleanup1:                                         ; preds = %bb1
  %16 = landingpad { i8*, i32 }
          cleanup
  %17 = extractvalue { i8*, i32 } %16, 0
  %18 = extractvalue { i8*, i32 } %16, 1
  %19 = getelementptr inbounds { i8*, i32 }, { i8*, i32 }* %3, i32 0, i32 0
  store i8* %17, i8** %19, align 8
  %20 = getelementptr inbounds { i8*, i32 }, { i8*, i32 }* %3, i32 0, i32 1
  store i32 %18, i32* %20, align 8
  br label %bb4

bb3:                                              ; preds = %bb2
  %21 = bitcast %"std::sync::mutex::Mutex<std::fs::File>"* %4 to i64**
  %22 = load i64*, i64** %_2, align 8, !nonnull !3
  store i64* %22, i64** %21, align 8
  %23 = getelementptr inbounds %"std::sync::mutex::Mutex<std::fs::File>", %"std::sync::mutex::Mutex<std::fs::File>"* %4, i32 0, i32 1
  %24 = bitcast %"std::sync::poison::Flag"* %23 to i8*
  %25 = bitcast %"std::sync::poison::Flag"* %_3 to i8*
  call void @llvm.memcpy.p0i8.p0i8.i64(i8* align 8 %24, i8* align 1 %25, i64 1, i1 false)
  %26 = getelementptr inbounds %"std::sync::mutex::Mutex<std::fs::File>", %"std::sync::mutex::Mutex<std::fs::File>"* %4, i32 0, i32 3
  store i32 %15, i32* %26, align 4
  %27 = bitcast %"std::sync::mutex::Mutex<std::fs::File>"* %4 to i128*
  %28 = load i128, i128* %27, align 8
  ret i128 %28

bb5:                                              ; preds = %bb6, %bb7
  %29 = bitcast { i8*, i32 }* %3 to i8**
  %30 = load i8*, i8** %29, align 8
  %31 = getelementptr inbounds { i8*, i32 }, { i8*, i32 }* %3, i32 0, i32 1
  %32 = load i32, i32* %31, align 8
  %33 = insertvalue { i8*, i32 } undef, i8* %30, 0
  %34 = insertvalue { i8*, i32 } %33, i32 %32, 1
  resume { i8*, i32 } %34

bb6:                                              ; preds = %bb7
; call core::ptr::drop_in_place<std::fs::File>
  call void @"_ZN4core3ptr34drop_in_place$LT$std..fs..File$GT$17he584526ff1bb905aE"(i32* %t) #19
  br label %bb5
}

; std::sync::mutex::Mutex<T>::new
; Function Attrs: nonlazybind uwtable
define void @"_ZN3std4sync5mutex14Mutex$LT$T$GT$3new17hc898baebc73826dbE"(%"std::sync::mutex::Mutex<alloc::collections::vec_deque::VecDeque<i32>>"* noalias nocapture sret(%"std::sync::mutex::Mutex<alloc::collections::vec_deque::VecDeque<i32>>") dereferenceable(48) %0, %"alloc::collections::vec_deque::VecDeque<i32>"* noalias nocapture dereferenceable(32) %t) unnamed_addr #1 personality i32 (i32, i32, i64, %"unwind::libunwind::_Unwind_Exception"*, %"unwind::libunwind::_Unwind_Context"*)* @rust_eh_personality {
start:
  %_2.i = alloca %"alloc::collections::vec_deque::VecDeque<i32>", align 8
  %1 = alloca i8, align 1
  %2 = alloca { i8*, i32 }, align 8
  %_6 = alloca i8, align 1
  %_5 = alloca %"alloc::collections::vec_deque::VecDeque<i32>", align 8
  %_4 = alloca %"core::cell::UnsafeCell<alloc::collections::vec_deque::VecDeque<i32>>", align 8
  %_3 = alloca %"std::sync::poison::Flag", align 1
  %_2 = alloca i64*, align 8
  store i8 0, i8* %_6, align 1
  store i8 1, i8* %_6, align 1
; invoke std::sys_common::mutex::MovableMutex::new
  %3 = invoke noalias nonnull align 8 i64* @_ZN3std10sys_common5mutex12MovableMutex3new17h2bb8f0e9b979bf81E()
          to label %bb1 unwind label %cleanup

bb1:                                              ; preds = %start
  store i64* %3, i64** %_2, align 8
; invoke std::sync::poison::Flag::new
  %4 = invoke i8 @_ZN3std4sync6poison4Flag3new17h47827b134c610a5eE()
          to label %bb2 unwind label %cleanup1

bb7:                                              ; preds = %bb4, %cleanup
  %5 = load i8, i8* %_6, align 1, !range !4
  %6 = trunc i8 %5 to i1
  br i1 %6, label %bb6, label %bb5

cleanup:                                          ; preds = %start
  %7 = landingpad { i8*, i32 }
          cleanup
  %8 = extractvalue { i8*, i32 } %7, 0
  %9 = extractvalue { i8*, i32 } %7, 1
  %10 = getelementptr inbounds { i8*, i32 }, { i8*, i32 }* %2, i32 0, i32 0
  store i8* %8, i8** %10, align 8
  %11 = getelementptr inbounds { i8*, i32 }, { i8*, i32 }* %2, i32 0, i32 1
  store i32 %9, i32* %11, align 8
  br label %bb7

bb2:                                              ; preds = %bb1
  store i8 %4, i8* %1, align 1
  %12 = bitcast %"std::sync::poison::Flag"* %_3 to i8*
  call void @llvm.memcpy.p0i8.p0i8.i64(i8* align 1 %12, i8* align 1 %1, i64 1, i1 false)
  store i8 0, i8* %_6, align 1
  %13 = bitcast %"alloc::collections::vec_deque::VecDeque<i32>"* %_5 to i8*
  %14 = bitcast %"alloc::collections::vec_deque::VecDeque<i32>"* %t to i8*
  call void @llvm.memcpy.p0i8.p0i8.i64(i8* align 8 %13, i8* align 8 %14, i64 32, i1 false)
  call void @llvm.experimental.noalias.scope.decl(metadata !9)
  call void @llvm.experimental.noalias.scope.decl(metadata !12)
  %15 = bitcast %"alloc::collections::vec_deque::VecDeque<i32>"* %_2.i to i8*
  %16 = bitcast %"alloc::collections::vec_deque::VecDeque<i32>"* %_5 to i8*
  call void @llvm.memcpy.p0i8.p0i8.i64(i8* align 8 %15, i8* align 8 %16, i64 32, i1 false), !noalias !9
  %17 = bitcast %"core::cell::UnsafeCell<alloc::collections::vec_deque::VecDeque<i32>>"* %_4 to %"alloc::collections::vec_deque::VecDeque<i32>"*
  %18 = bitcast %"alloc::collections::vec_deque::VecDeque<i32>"* %17 to i8*
  %19 = bitcast %"alloc::collections::vec_deque::VecDeque<i32>"* %_2.i to i8*
  call void @llvm.memcpy.p0i8.p0i8.i64(i8* align 8 %18, i8* align 8 %19, i64 32, i1 false), !noalias !12
  br label %bb3

bb4:                                              ; preds = %cleanup1
; call core::ptr::drop_in_place<std::sys_common::mutex::MovableMutex>
  call void @"_ZN4core3ptr57drop_in_place$LT$std..sys_common..mutex..MovableMutex$GT$17h46e122904241ac1cE"(i64** %_2) #19
  br label %bb7

cleanup1:                                         ; preds = %bb1
  %20 = landingpad { i8*, i32 }
          cleanup
  %21 = extractvalue { i8*, i32 } %20, 0
  %22 = extractvalue { i8*, i32 } %20, 1
  %23 = getelementptr inbounds { i8*, i32 }, { i8*, i32 }* %2, i32 0, i32 0
  store i8* %21, i8** %23, align 8
  %24 = getelementptr inbounds { i8*, i32 }, { i8*, i32 }* %2, i32 0, i32 1
  store i32 %22, i32* %24, align 8
  br label %bb4

bb3:                                              ; preds = %bb2
  %25 = bitcast %"std::sync::mutex::Mutex<alloc::collections::vec_deque::VecDeque<i32>>"* %0 to i64**
  %26 = load i64*, i64** %_2, align 8, !nonnull !3
  store i64* %26, i64** %25, align 8
  %27 = getelementptr inbounds %"std::sync::mutex::Mutex<alloc::collections::vec_deque::VecDeque<i32>>", %"std::sync::mutex::Mutex<alloc::collections::vec_deque::VecDeque<i32>>"* %0, i32 0, i32 1
  %28 = bitcast %"std::sync::poison::Flag"* %27 to i8*
  %29 = bitcast %"std::sync::poison::Flag"* %_3 to i8*
  call void @llvm.memcpy.p0i8.p0i8.i64(i8* align 8 %28, i8* align 1 %29, i64 1, i1 false)
  %30 = getelementptr inbounds %"std::sync::mutex::Mutex<alloc::collections::vec_deque::VecDeque<i32>>", %"std::sync::mutex::Mutex<alloc::collections::vec_deque::VecDeque<i32>>"* %0, i32 0, i32 3
  %31 = bitcast %"core::cell::UnsafeCell<alloc::collections::vec_deque::VecDeque<i32>>"* %30 to i8*
  %32 = bitcast %"core::cell::UnsafeCell<alloc::collections::vec_deque::VecDeque<i32>>"* %_4 to i8*
  call void @llvm.memcpy.p0i8.p0i8.i64(i8* align 8 %31, i8* align 8 %32, i64 32, i1 false)
  ret void

bb5:                                              ; preds = %bb6, %bb7
  %33 = bitcast { i8*, i32 }* %2 to i8**
  %34 = load i8*, i8** %33, align 8
  %35 = getelementptr inbounds { i8*, i32 }, { i8*, i32 }* %2, i32 0, i32 1
  %36 = load i32, i32* %35, align 8
  %37 = insertvalue { i8*, i32 } undef, i8* %34, 0
  %38 = insertvalue { i8*, i32 } %37, i32 %36, 1
  resume { i8*, i32 } %38

bb6:                                              ; preds = %bb7
; call core::ptr::drop_in_place<alloc::collections::vec_deque::VecDeque<i32>>
  call void @"_ZN4core3ptr71drop_in_place$LT$alloc..collections..vec_deque..VecDeque$LT$i32$GT$$GT$17had6f692e017e6505E"(%"alloc::collections::vec_deque::VecDeque<i32>"* %t) #19
  br label %bb5
}

; std::sync::mutex::Mutex<T>::lock
; Function Attrs: nonlazybind uwtable
define void @"_ZN3std4sync5mutex14Mutex$LT$T$GT$4lock17h03604a269a5c308fE"(%"core::result::Result<std::sync::mutex::MutexGuard<std::fs::File>, std::sync::poison::PoisonError<std::sync::mutex::MutexGuard<std::fs::File>>>"* noalias nocapture sret(%"core::result::Result<std::sync::mutex::MutexGuard<std::fs::File>, std::sync::poison::PoisonError<std::sync::mutex::MutexGuard<std::fs::File>>>") dereferenceable(24) %0, %"std::sync::mutex::Mutex<std::fs::File>"* align 8 dereferenceable(16) %self) unnamed_addr #1 {
start:
  %_3 = bitcast %"std::sync::mutex::Mutex<std::fs::File>"* %self to i64**
; call std::sys_common::mutex::MovableMutex::raw_lock
  call void @_ZN3std10sys_common5mutex12MovableMutex8raw_lock17haed4bb903318d43eE(i64** align 8 dereferenceable(8) %_3)
  br label %bb1

bb1:                                              ; preds = %start
; call std::sync::mutex::MutexGuard<T>::new
  call void @"_ZN3std4sync5mutex19MutexGuard$LT$T$GT$3new17hc817a89b1402bcebE"(%"core::result::Result<std::sync::mutex::MutexGuard<std::fs::File>, std::sync::poison::PoisonError<std::sync::mutex::MutexGuard<std::fs::File>>>"* noalias nocapture sret(%"core::result::Result<std::sync::mutex::MutexGuard<std::fs::File>, std::sync::poison::PoisonError<std::sync::mutex::MutexGuard<std::fs::File>>>") dereferenceable(24) %0, %"std::sync::mutex::Mutex<std::fs::File>"* align 8 dereferenceable(16) %self)
  br label %bb2

bb2:                                              ; preds = %bb1
  ret void
}

; std::sync::mutex::Mutex<T>::lock
; Function Attrs: nonlazybind uwtable
define void @"_ZN3std4sync5mutex14Mutex$LT$T$GT$4lock17h44d131e16132f29dE"(%"core::result::Result<std::sync::mutex::MutexGuard<()>, std::sync::poison::PoisonError<std::sync::mutex::MutexGuard<()>>>"* noalias nocapture sret(%"core::result::Result<std::sync::mutex::MutexGuard<()>, std::sync::poison::PoisonError<std::sync::mutex::MutexGuard<()>>>") dereferenceable(24) %0, %"std::sync::mutex::Mutex<()>"* align 8 dereferenceable(16) %self) unnamed_addr #1 {
start:
  %_3 = bitcast %"std::sync::mutex::Mutex<()>"* %self to i64**
; call std::sys_common::mutex::MovableMutex::raw_lock
  call void @_ZN3std10sys_common5mutex12MovableMutex8raw_lock17haed4bb903318d43eE(i64** align 8 dereferenceable(8) %_3)
  br label %bb1

bb1:                                              ; preds = %start
; call std::sync::mutex::MutexGuard<T>::new
  call void @"_ZN3std4sync5mutex19MutexGuard$LT$T$GT$3new17h7e63f469c586f95bE"(%"core::result::Result<std::sync::mutex::MutexGuard<()>, std::sync::poison::PoisonError<std::sync::mutex::MutexGuard<()>>>"* noalias nocapture sret(%"core::result::Result<std::sync::mutex::MutexGuard<()>, std::sync::poison::PoisonError<std::sync::mutex::MutexGuard<()>>>") dereferenceable(24) %0, %"std::sync::mutex::Mutex<()>"* align 8 dereferenceable(16) %self)
  br label %bb2

bb2:                                              ; preds = %bb1
  ret void
}

; std::sync::mutex::Mutex<T>::lock
; Function Attrs: nonlazybind uwtable
define void @"_ZN3std4sync5mutex14Mutex$LT$T$GT$4lock17hbc5b1a197ae6de16E"(%"core::result::Result<std::sync::mutex::MutexGuard<alloc::collections::vec_deque::VecDeque<i32>>, std::sync::poison::PoisonError<std::sync::mutex::MutexGuard<alloc::collections::vec_deque::VecDeque<i32>>>>"* noalias nocapture sret(%"core::result::Result<std::sync::mutex::MutexGuard<alloc::collections::vec_deque::VecDeque<i32>>, std::sync::poison::PoisonError<std::sync::mutex::MutexGuard<alloc::collections::vec_deque::VecDeque<i32>>>>") dereferenceable(24) %0, %"std::sync::mutex::Mutex<alloc::collections::vec_deque::VecDeque<i32>>"* align 8 dereferenceable(48) %self) unnamed_addr #1 {
start:
  %_3 = bitcast %"std::sync::mutex::Mutex<alloc::collections::vec_deque::VecDeque<i32>>"* %self to i64**
; call std::sys_common::mutex::MovableMutex::raw_lock
  call void @_ZN3std10sys_common5mutex12MovableMutex8raw_lock17haed4bb903318d43eE(i64** align 8 dereferenceable(8) %_3)
  br label %bb1

bb1:                                              ; preds = %start
; call std::sync::mutex::MutexGuard<T>::new
  call void @"_ZN3std4sync5mutex19MutexGuard$LT$T$GT$3new17hee777091c103a199E"(%"core::result::Result<std::sync::mutex::MutexGuard<alloc::collections::vec_deque::VecDeque<i32>>, std::sync::poison::PoisonError<std::sync::mutex::MutexGuard<alloc::collections::vec_deque::VecDeque<i32>>>>"* noalias nocapture sret(%"core::result::Result<std::sync::mutex::MutexGuard<alloc::collections::vec_deque::VecDeque<i32>>, std::sync::poison::PoisonError<std::sync::mutex::MutexGuard<alloc::collections::vec_deque::VecDeque<i32>>>>") dereferenceable(24) %0, %"std::sync::mutex::Mutex<alloc::collections::vec_deque::VecDeque<i32>>"* align 8 dereferenceable(48) %self)
  br label %bb2

bb2:                                              ; preds = %bb1
  ret void
}

; std::sync::mutex::Mutex<T>::lock
; Function Attrs: nonlazybind uwtable
define void @"_ZN3std4sync5mutex14Mutex$LT$T$GT$4lock17he0d5db2fe08d859aE"(%"core::result::Result<std::sync::mutex::MutexGuard<i32>, std::sync::poison::PoisonError<std::sync::mutex::MutexGuard<i32>>>"* noalias nocapture sret(%"core::result::Result<std::sync::mutex::MutexGuard<i32>, std::sync::poison::PoisonError<std::sync::mutex::MutexGuard<i32>>>") dereferenceable(24) %0, %"std::sync::mutex::Mutex<i32>"* align 8 dereferenceable(16) %self) unnamed_addr #1 {
start:
  %_3 = bitcast %"std::sync::mutex::Mutex<i32>"* %self to i64**
; call std::sys_common::mutex::MovableMutex::raw_lock
  call void @_ZN3std10sys_common5mutex12MovableMutex8raw_lock17haed4bb903318d43eE(i64** align 8 dereferenceable(8) %_3)
  br label %bb1

bb1:                                              ; preds = %start
; call std::sync::mutex::MutexGuard<T>::new
  call void @"_ZN3std4sync5mutex19MutexGuard$LT$T$GT$3new17h6fee6ec9f9b120b3E"(%"core::result::Result<std::sync::mutex::MutexGuard<i32>, std::sync::poison::PoisonError<std::sync::mutex::MutexGuard<i32>>>"* noalias nocapture sret(%"core::result::Result<std::sync::mutex::MutexGuard<i32>, std::sync::poison::PoisonError<std::sync::mutex::MutexGuard<i32>>>") dereferenceable(24) %0, %"std::sync::mutex::Mutex<i32>"* align 8 dereferenceable(16) %self)
  br label %bb2

bb2:                                              ; preds = %bb1
  ret void
}

; std::sync::mutex::MutexGuard<T>::new
; Function Attrs: nonlazybind uwtable
define void @"_ZN3std4sync5mutex19MutexGuard$LT$T$GT$3new17h6fee6ec9f9b120b3E"(%"core::result::Result<std::sync::mutex::MutexGuard<i32>, std::sync::poison::PoisonError<std::sync::mutex::MutexGuard<i32>>>"* noalias nocapture sret(%"core::result::Result<std::sync::mutex::MutexGuard<i32>, std::sync::poison::PoisonError<std::sync::mutex::MutexGuard<i32>>>") dereferenceable(24) %0, %"std::sync::mutex::Mutex<i32>"* align 8 dereferenceable(16) %1) unnamed_addr #1 {
start:
  %_4 = alloca i64*, align 8
  %lock = alloca %"std::sync::mutex::Mutex<i32>"*, align 8
  store %"std::sync::mutex::Mutex<i32>"* %1, %"std::sync::mutex::Mutex<i32>"** %lock, align 8
  %2 = load %"std::sync::mutex::Mutex<i32>"*, %"std::sync::mutex::Mutex<i32>"** %lock, align 8, !nonnull !3
  %_3 = getelementptr inbounds %"std::sync::mutex::Mutex<i32>", %"std::sync::mutex::Mutex<i32>"* %2, i32 0, i32 1
; call std::sync::poison::Flag::borrow
  %3 = call { i8, i8 } @_ZN3std4sync6poison4Flag6borrow17h12283709f1dd750cE(%"std::sync::poison::Flag"* align 1 dereferenceable(1) %_3)
  %4 = extractvalue { i8, i8 } %3, 0
  %_2.0 = trunc i8 %4 to i1
  %_2.1 = extractvalue { i8, i8 } %3, 1
  br label %bb1

bb1:                                              ; preds = %start
  %5 = bitcast i64** %_4 to %"std::sync::mutex::Mutex<i32>"***
  store %"std::sync::mutex::Mutex<i32>"** %lock, %"std::sync::mutex::Mutex<i32>"*** %5, align 8
  %6 = load i64*, i64** %_4, align 8, !nonnull !3
; call std::sync::poison::map_result
  call void @_ZN3std4sync6poison10map_result17h865b3ca950f5fbeaE(%"core::result::Result<std::sync::mutex::MutexGuard<i32>, std::sync::poison::PoisonError<std::sync::mutex::MutexGuard<i32>>>"* noalias nocapture sret(%"core::result::Result<std::sync::mutex::MutexGuard<i32>, std::sync::poison::PoisonError<std::sync::mutex::MutexGuard<i32>>>") dereferenceable(24) %0, i1 zeroext %_2.0, i8 %_2.1, i64* align 8 dereferenceable(8) %6)
  br label %bb2

bb2:                                              ; preds = %bb1
  ret void
}

; std::sync::mutex::MutexGuard<T>::new
; Function Attrs: nonlazybind uwtable
define void @"_ZN3std4sync5mutex19MutexGuard$LT$T$GT$3new17h7e63f469c586f95bE"(%"core::result::Result<std::sync::mutex::MutexGuard<()>, std::sync::poison::PoisonError<std::sync::mutex::MutexGuard<()>>>"* noalias nocapture sret(%"core::result::Result<std::sync::mutex::MutexGuard<()>, std::sync::poison::PoisonError<std::sync::mutex::MutexGuard<()>>>") dereferenceable(24) %0, %"std::sync::mutex::Mutex<()>"* align 8 dereferenceable(16) %1) unnamed_addr #1 {
start:
  %_4 = alloca i64*, align 8
  %lock = alloca %"std::sync::mutex::Mutex<()>"*, align 8
  store %"std::sync::mutex::Mutex<()>"* %1, %"std::sync::mutex::Mutex<()>"** %lock, align 8
  %2 = load %"std::sync::mutex::Mutex<()>"*, %"std::sync::mutex::Mutex<()>"** %lock, align 8, !nonnull !3
  %_3 = getelementptr inbounds %"std::sync::mutex::Mutex<()>", %"std::sync::mutex::Mutex<()>"* %2, i32 0, i32 1
; call std::sync::poison::Flag::borrow
  %3 = call { i8, i8 } @_ZN3std4sync6poison4Flag6borrow17h12283709f1dd750cE(%"std::sync::poison::Flag"* align 1 dereferenceable(1) %_3)
  %4 = extractvalue { i8, i8 } %3, 0
  %_2.0 = trunc i8 %4 to i1
  %_2.1 = extractvalue { i8, i8 } %3, 1
  br label %bb1

bb1:                                              ; preds = %start
  %5 = bitcast i64** %_4 to %"std::sync::mutex::Mutex<()>"***
  store %"std::sync::mutex::Mutex<()>"** %lock, %"std::sync::mutex::Mutex<()>"*** %5, align 8
  %6 = load i64*, i64** %_4, align 8, !nonnull !3
; call std::sync::poison::map_result
  call void @_ZN3std4sync6poison10map_result17h72b4b8124aaa6988E(%"core::result::Result<std::sync::mutex::MutexGuard<()>, std::sync::poison::PoisonError<std::sync::mutex::MutexGuard<()>>>"* noalias nocapture sret(%"core::result::Result<std::sync::mutex::MutexGuard<()>, std::sync::poison::PoisonError<std::sync::mutex::MutexGuard<()>>>") dereferenceable(24) %0, i1 zeroext %_2.0, i8 %_2.1, i64* align 8 dereferenceable(8) %6)
  br label %bb2

bb2:                                              ; preds = %bb1
  ret void
}

; std::sync::mutex::MutexGuard<T>::new
; Function Attrs: nonlazybind uwtable
define void @"_ZN3std4sync5mutex19MutexGuard$LT$T$GT$3new17hc817a89b1402bcebE"(%"core::result::Result<std::sync::mutex::MutexGuard<std::fs::File>, std::sync::poison::PoisonError<std::sync::mutex::MutexGuard<std::fs::File>>>"* noalias nocapture sret(%"core::result::Result<std::sync::mutex::MutexGuard<std::fs::File>, std::sync::poison::PoisonError<std::sync::mutex::MutexGuard<std::fs::File>>>") dereferenceable(24) %0, %"std::sync::mutex::Mutex<std::fs::File>"* align 8 dereferenceable(16) %1) unnamed_addr #1 {
start:
  %_4 = alloca i64*, align 8
  %lock = alloca %"std::sync::mutex::Mutex<std::fs::File>"*, align 8
  store %"std::sync::mutex::Mutex<std::fs::File>"* %1, %"std::sync::mutex::Mutex<std::fs::File>"** %lock, align 8
  %2 = load %"std::sync::mutex::Mutex<std::fs::File>"*, %"std::sync::mutex::Mutex<std::fs::File>"** %lock, align 8, !nonnull !3
  %_3 = getelementptr inbounds %"std::sync::mutex::Mutex<std::fs::File>", %"std::sync::mutex::Mutex<std::fs::File>"* %2, i32 0, i32 1
; call std::sync::poison::Flag::borrow
  %3 = call { i8, i8 } @_ZN3std4sync6poison4Flag6borrow17h12283709f1dd750cE(%"std::sync::poison::Flag"* align 1 dereferenceable(1) %_3)
  %4 = extractvalue { i8, i8 } %3, 0
  %_2.0 = trunc i8 %4 to i1
  %_2.1 = extractvalue { i8, i8 } %3, 1
  br label %bb1

bb1:                                              ; preds = %start
  %5 = bitcast i64** %_4 to %"std::sync::mutex::Mutex<std::fs::File>"***
  store %"std::sync::mutex::Mutex<std::fs::File>"** %lock, %"std::sync::mutex::Mutex<std::fs::File>"*** %5, align 8
  %6 = load i64*, i64** %_4, align 8, !nonnull !3
; call std::sync::poison::map_result
  call void @_ZN3std4sync6poison10map_result17h7451af50b52b67aeE(%"core::result::Result<std::sync::mutex::MutexGuard<std::fs::File>, std::sync::poison::PoisonError<std::sync::mutex::MutexGuard<std::fs::File>>>"* noalias nocapture sret(%"core::result::Result<std::sync::mutex::MutexGuard<std::fs::File>, std::sync::poison::PoisonError<std::sync::mutex::MutexGuard<std::fs::File>>>") dereferenceable(24) %0, i1 zeroext %_2.0, i8 %_2.1, i64* align 8 dereferenceable(8) %6)
  br label %bb2

bb2:                                              ; preds = %bb1
  ret void
}

; std::sync::mutex::MutexGuard<T>::new
; Function Attrs: nonlazybind uwtable
define void @"_ZN3std4sync5mutex19MutexGuard$LT$T$GT$3new17hee777091c103a199E"(%"core::result::Result<std::sync::mutex::MutexGuard<alloc::collections::vec_deque::VecDeque<i32>>, std::sync::poison::PoisonError<std::sync::mutex::MutexGuard<alloc::collections::vec_deque::VecDeque<i32>>>>"* noalias nocapture sret(%"core::result::Result<std::sync::mutex::MutexGuard<alloc::collections::vec_deque::VecDeque<i32>>, std::sync::poison::PoisonError<std::sync::mutex::MutexGuard<alloc::collections::vec_deque::VecDeque<i32>>>>") dereferenceable(24) %0, %"std::sync::mutex::Mutex<alloc::collections::vec_deque::VecDeque<i32>>"* align 8 dereferenceable(48) %1) unnamed_addr #1 {
start:
  %_4 = alloca i64*, align 8
  %lock = alloca %"std::sync::mutex::Mutex<alloc::collections::vec_deque::VecDeque<i32>>"*, align 8
  store %"std::sync::mutex::Mutex<alloc::collections::vec_deque::VecDeque<i32>>"* %1, %"std::sync::mutex::Mutex<alloc::collections::vec_deque::VecDeque<i32>>"** %lock, align 8
  %2 = load %"std::sync::mutex::Mutex<alloc::collections::vec_deque::VecDeque<i32>>"*, %"std::sync::mutex::Mutex<alloc::collections::vec_deque::VecDeque<i32>>"** %lock, align 8, !nonnull !3
  %_3 = getelementptr inbounds %"std::sync::mutex::Mutex<alloc::collections::vec_deque::VecDeque<i32>>", %"std::sync::mutex::Mutex<alloc::collections::vec_deque::VecDeque<i32>>"* %2, i32 0, i32 1
; call std::sync::poison::Flag::borrow
  %3 = call { i8, i8 } @_ZN3std4sync6poison4Flag6borrow17h12283709f1dd750cE(%"std::sync::poison::Flag"* align 1 dereferenceable(1) %_3)
  %4 = extractvalue { i8, i8 } %3, 0
  %_2.0 = trunc i8 %4 to i1
  %_2.1 = extractvalue { i8, i8 } %3, 1
  br label %bb1

bb1:                                              ; preds = %start
  %5 = bitcast i64** %_4 to %"std::sync::mutex::Mutex<alloc::collections::vec_deque::VecDeque<i32>>"***
  store %"std::sync::mutex::Mutex<alloc::collections::vec_deque::VecDeque<i32>>"** %lock, %"std::sync::mutex::Mutex<alloc::collections::vec_deque::VecDeque<i32>>"*** %5, align 8
  %6 = load i64*, i64** %_4, align 8, !nonnull !3
; call std::sync::poison::map_result
  call void @_ZN3std4sync6poison10map_result17h69ad40ebceba847dE(%"core::result::Result<std::sync::mutex::MutexGuard<alloc::collections::vec_deque::VecDeque<i32>>, std::sync::poison::PoisonError<std::sync::mutex::MutexGuard<alloc::collections::vec_deque::VecDeque<i32>>>>"* noalias nocapture sret(%"core::result::Result<std::sync::mutex::MutexGuard<alloc::collections::vec_deque::VecDeque<i32>>, std::sync::poison::PoisonError<std::sync::mutex::MutexGuard<alloc::collections::vec_deque::VecDeque<i32>>>>") dereferenceable(24) %0, i1 zeroext %_2.0, i8 %_2.1, i64* align 8 dereferenceable(8) %6)
  br label %bb2

bb2:                                              ; preds = %bb1
  ret void
}

; std::sync::mutex::MutexGuard<T>::new::{{closure}}
; Function Attrs: inlinehint nonlazybind uwtable
define { i64*, i8 } @"_ZN3std4sync5mutex19MutexGuard$LT$T$GT$3new28_$u7b$$u7b$closure$u7d$$u7d$17h1ece8a7072dd8a9fE"(i64* align 8 dereferenceable(8) %_1, i1 zeroext %guard) unnamed_addr #0 {
start:
  %0 = alloca { i64*, i8 }, align 8
  %1 = bitcast i64* %_1 to %"std::sync::mutex::Mutex<alloc::collections::vec_deque::VecDeque<i32>>"**
  %2 = bitcast i64* %_1 to %"std::sync::mutex::Mutex<alloc::collections::vec_deque::VecDeque<i32>>"**
  %_3 = load %"std::sync::mutex::Mutex<alloc::collections::vec_deque::VecDeque<i32>>"*, %"std::sync::mutex::Mutex<alloc::collections::vec_deque::VecDeque<i32>>"** %2, align 8, !nonnull !3
  %3 = bitcast { i64*, i8 }* %0 to %"std::sync::mutex::Mutex<alloc::collections::vec_deque::VecDeque<i32>>"**
  store %"std::sync::mutex::Mutex<alloc::collections::vec_deque::VecDeque<i32>>"* %_3, %"std::sync::mutex::Mutex<alloc::collections::vec_deque::VecDeque<i32>>"** %3, align 8
  %4 = getelementptr inbounds { i64*, i8 }, { i64*, i8 }* %0, i32 0, i32 1
  %5 = zext i1 %guard to i8
  store i8 %5, i8* %4, align 8
  %6 = getelementptr inbounds { i64*, i8 }, { i64*, i8 }* %0, i32 0, i32 0
  %7 = load i64*, i64** %6, align 8, !nonnull !3
  %8 = getelementptr inbounds { i64*, i8 }, { i64*, i8 }* %0, i32 0, i32 1
  %9 = load i8, i8* %8, align 8, !range !4
  %10 = trunc i8 %9 to i1
  %11 = zext i1 %10 to i8
  %12 = insertvalue { i64*, i8 } undef, i64* %7, 0
  %13 = insertvalue { i64*, i8 } %12, i8 %11, 1
  ret { i64*, i8 } %13
}

; std::sync::mutex::MutexGuard<T>::new::{{closure}}
; Function Attrs: inlinehint nonlazybind uwtable
define { i64*, i8 } @"_ZN3std4sync5mutex19MutexGuard$LT$T$GT$3new28_$u7b$$u7b$closure$u7d$$u7d$17h2c5f902e72a59164E"(i64* align 8 dereferenceable(8) %_1, i1 zeroext %guard) unnamed_addr #0 {
start:
  %0 = alloca { i64*, i8 }, align 8
  %1 = bitcast i64* %_1 to %"std::sync::mutex::Mutex<()>"**
  %2 = bitcast i64* %_1 to %"std::sync::mutex::Mutex<()>"**
  %_3 = load %"std::sync::mutex::Mutex<()>"*, %"std::sync::mutex::Mutex<()>"** %2, align 8, !nonnull !3
  %3 = bitcast { i64*, i8 }* %0 to %"std::sync::mutex::Mutex<()>"**
  store %"std::sync::mutex::Mutex<()>"* %_3, %"std::sync::mutex::Mutex<()>"** %3, align 8
  %4 = getelementptr inbounds { i64*, i8 }, { i64*, i8 }* %0, i32 0, i32 1
  %5 = zext i1 %guard to i8
  store i8 %5, i8* %4, align 8
  %6 = getelementptr inbounds { i64*, i8 }, { i64*, i8 }* %0, i32 0, i32 0
  %7 = load i64*, i64** %6, align 8, !nonnull !3
  %8 = getelementptr inbounds { i64*, i8 }, { i64*, i8 }* %0, i32 0, i32 1
  %9 = load i8, i8* %8, align 8, !range !4
  %10 = trunc i8 %9 to i1
  %11 = zext i1 %10 to i8
  %12 = insertvalue { i64*, i8 } undef, i64* %7, 0
  %13 = insertvalue { i64*, i8 } %12, i8 %11, 1
  ret { i64*, i8 } %13
}

; std::sync::mutex::MutexGuard<T>::new::{{closure}}
; Function Attrs: inlinehint nonlazybind uwtable
define { i64*, i8 } @"_ZN3std4sync5mutex19MutexGuard$LT$T$GT$3new28_$u7b$$u7b$closure$u7d$$u7d$17h8965ed20834b12e9E"(i64* align 8 dereferenceable(8) %_1, i1 zeroext %guard) unnamed_addr #0 {
start:
  %0 = alloca { i64*, i8 }, align 8
  %1 = bitcast i64* %_1 to %"std::sync::mutex::Mutex<i32>"**
  %2 = bitcast i64* %_1 to %"std::sync::mutex::Mutex<i32>"**
  %_3 = load %"std::sync::mutex::Mutex<i32>"*, %"std::sync::mutex::Mutex<i32>"** %2, align 8, !nonnull !3
  %3 = bitcast { i64*, i8 }* %0 to %"std::sync::mutex::Mutex<i32>"**
  store %"std::sync::mutex::Mutex<i32>"* %_3, %"std::sync::mutex::Mutex<i32>"** %3, align 8
  %4 = getelementptr inbounds { i64*, i8 }, { i64*, i8 }* %0, i32 0, i32 1
  %5 = zext i1 %guard to i8
  store i8 %5, i8* %4, align 8
  %6 = getelementptr inbounds { i64*, i8 }, { i64*, i8 }* %0, i32 0, i32 0
  %7 = load i64*, i64** %6, align 8, !nonnull !3
  %8 = getelementptr inbounds { i64*, i8 }, { i64*, i8 }* %0, i32 0, i32 1
  %9 = load i8, i8* %8, align 8, !range !4
  %10 = trunc i8 %9 to i1
  %11 = zext i1 %10 to i8
  %12 = insertvalue { i64*, i8 } undef, i64* %7, 0
  %13 = insertvalue { i64*, i8 } %12, i8 %11, 1
  ret { i64*, i8 } %13
}

; std::sync::mutex::MutexGuard<T>::new::{{closure}}
; Function Attrs: inlinehint nonlazybind uwtable
define { i64*, i8 } @"_ZN3std4sync5mutex19MutexGuard$LT$T$GT$3new28_$u7b$$u7b$closure$u7d$$u7d$17hd15676a3c29a3293E"(i64* align 8 dereferenceable(8) %_1, i1 zeroext %guard) unnamed_addr #0 {
start:
  %0 = alloca { i64*, i8 }, align 8
  %1 = bitcast i64* %_1 to %"std::sync::mutex::Mutex<std::fs::File>"**
  %2 = bitcast i64* %_1 to %"std::sync::mutex::Mutex<std::fs::File>"**
  %_3 = load %"std::sync::mutex::Mutex<std::fs::File>"*, %"std::sync::mutex::Mutex<std::fs::File>"** %2, align 8, !nonnull !3
  %3 = bitcast { i64*, i8 }* %0 to %"std::sync::mutex::Mutex<std::fs::File>"**
  store %"std::sync::mutex::Mutex<std::fs::File>"* %_3, %"std::sync::mutex::Mutex<std::fs::File>"** %3, align 8
  %4 = getelementptr inbounds { i64*, i8 }, { i64*, i8 }* %0, i32 0, i32 1
  %5 = zext i1 %guard to i8
  store i8 %5, i8* %4, align 8
  %6 = getelementptr inbounds { i64*, i8 }, { i64*, i8 }* %0, i32 0, i32 0
  %7 = load i64*, i64** %6, align 8, !nonnull !3
  %8 = getelementptr inbounds { i64*, i8 }, { i64*, i8 }* %0, i32 0, i32 1
  %9 = load i8, i8* %8, align 8, !range !4
  %10 = trunc i8 %9 to i1
  %11 = zext i1 %10 to i8
  %12 = insertvalue { i64*, i8 } undef, i64* %7, 0
  %13 = insertvalue { i64*, i8 } %12, i8 %11, 1
  ret { i64*, i8 } %13
}

; std::sync::poison::map_result
; Function Attrs: nonlazybind uwtable
define void @_ZN3std4sync6poison10map_result17h327270415520af09E(%"core::result::Result<std::sync::rwlock::RwLockWriteGuard<i32>, std::sync::poison::PoisonError<std::sync::rwlock::RwLockWriteGuard<i32>>>"* noalias nocapture sret(%"core::result::Result<std::sync::rwlock::RwLockWriteGuard<i32>, std::sync::poison::PoisonError<std::sync::rwlock::RwLockWriteGuard<i32>>>") dereferenceable(24) %0, i1 zeroext %1, i8 %2, i64* align 8 dereferenceable(8) %f) unnamed_addr #1 {
start:
  %_13 = alloca i8, align 1
  %_7 = alloca i8, align 1
  %result = alloca { i8, i8 }, align 1
  %3 = getelementptr inbounds { i8, i8 }, { i8, i8 }* %result, i32 0, i32 0
  %4 = zext i1 %1 to i8
  store i8 %4, i8* %3, align 1
  %5 = getelementptr inbounds { i8, i8 }, { i8, i8 }* %result, i32 0, i32 1
  store i8 %2, i8* %5, align 1
  %6 = bitcast { i8, i8 }* %result to i8*
  %7 = load i8, i8* %6, align 1, !range !4
  %8 = trunc i8 %7 to i1
  %_3 = zext i1 %8 to i64
  switch i64 %_3, label %bb2 [
    i64 0, label %bb3
    i64 1, label %bb1
  ]

bb2:                                              ; preds = %start
  unreachable

bb3:                                              ; preds = %start
  %9 = bitcast { i8, i8 }* %result to %"core::result::Result<std::sync::poison::Guard, std::sync::poison::PoisonError<std::sync::poison::Guard>>::Ok"*
  %10 = getelementptr inbounds %"core::result::Result<std::sync::poison::Guard, std::sync::poison::PoisonError<std::sync::poison::Guard>>::Ok", %"core::result::Result<std::sync::poison::Guard, std::sync::poison::PoisonError<std::sync::poison::Guard>>::Ok"* %9, i32 0, i32 1
  %11 = load i8, i8* %10, align 1, !range !4
  %t = trunc i8 %11 to i1
  %12 = zext i1 %t to i8
  store i8 %12, i8* %_7, align 1
  %13 = load i8, i8* %_7, align 1, !range !4
  %14 = trunc i8 %13 to i1
; call std::sync::rwlock::RwLockWriteGuard<T>::new::{{closure}}
  %15 = call { i64*, i8 } @"_ZN3std4sync6rwlock25RwLockWriteGuard$LT$T$GT$3new28_$u7b$$u7b$closure$u7d$$u7d$17hb4d34cb72109277fE"(i64* align 8 dereferenceable(8) %f, i1 zeroext %14)
  %_5.0 = extractvalue { i64*, i8 } %15, 0
  %16 = extractvalue { i64*, i8 } %15, 1
  %_5.1 = trunc i8 %16 to i1
  br label %bb4

bb1:                                              ; preds = %start
  %17 = bitcast { i8, i8 }* %result to %"core::result::Result<std::sync::poison::Guard, std::sync::poison::PoisonError<std::sync::poison::Guard>>::Err"*
  %18 = getelementptr inbounds %"core::result::Result<std::sync::poison::Guard, std::sync::poison::PoisonError<std::sync::poison::Guard>>::Err", %"core::result::Result<std::sync::poison::Guard, std::sync::poison::PoisonError<std::sync::poison::Guard>>::Err"* %17, i32 0, i32 1
  %19 = load i8, i8* %18, align 1, !range !4
  %guard = trunc i8 %19 to i1
  %20 = zext i1 %guard to i8
  store i8 %20, i8* %_13, align 1
  %21 = load i8, i8* %_13, align 1, !range !4
  %22 = trunc i8 %21 to i1
; call std::sync::rwlock::RwLockWriteGuard<T>::new::{{closure}}
  %23 = call { i64*, i8 } @"_ZN3std4sync6rwlock25RwLockWriteGuard$LT$T$GT$3new28_$u7b$$u7b$closure$u7d$$u7d$17hb4d34cb72109277fE"(i64* align 8 dereferenceable(8) %f, i1 zeroext %22)
  %_11.0 = extractvalue { i64*, i8 } %23, 0
  %24 = extractvalue { i64*, i8 } %23, 1
  %_11.1 = trunc i8 %24 to i1
  br label %bb5

bb5:                                              ; preds = %bb1
; call std::sync::poison::PoisonError<T>::new
  %25 = call { i64*, i8 } @"_ZN3std4sync6poison20PoisonError$LT$T$GT$3new17h6b406028e1f1c563E"(i64* align 8 dereferenceable(16) %_11.0, i1 zeroext %_11.1)
  %_10.0 = extractvalue { i64*, i8 } %25, 0
  %26 = extractvalue { i64*, i8 } %25, 1
  %_10.1 = trunc i8 %26 to i1
  br label %bb6

bb6:                                              ; preds = %bb5
  %27 = bitcast %"core::result::Result<std::sync::rwlock::RwLockWriteGuard<i32>, std::sync::poison::PoisonError<std::sync::rwlock::RwLockWriteGuard<i32>>>"* %0 to %"core::result::Result<std::sync::rwlock::RwLockWriteGuard<i32>, std::sync::poison::PoisonError<std::sync::rwlock::RwLockWriteGuard<i32>>>::Err"*
  %28 = getelementptr inbounds %"core::result::Result<std::sync::rwlock::RwLockWriteGuard<i32>, std::sync::poison::PoisonError<std::sync::rwlock::RwLockWriteGuard<i32>>>::Err", %"core::result::Result<std::sync::rwlock::RwLockWriteGuard<i32>, std::sync::poison::PoisonError<std::sync::rwlock::RwLockWriteGuard<i32>>>::Err"* %27, i32 0, i32 1
  %29 = getelementptr inbounds { i64*, i8 }, { i64*, i8 }* %28, i32 0, i32 0
  store i64* %_10.0, i64** %29, align 8
  %30 = getelementptr inbounds { i64*, i8 }, { i64*, i8 }* %28, i32 0, i32 1
  %31 = zext i1 %_10.1 to i8
  store i8 %31, i8* %30, align 8
  %32 = bitcast %"core::result::Result<std::sync::rwlock::RwLockWriteGuard<i32>, std::sync::poison::PoisonError<std::sync::rwlock::RwLockWriteGuard<i32>>>"* %0 to i64*
  store i64 1, i64* %32, align 8
  br label %bb7

bb7:                                              ; preds = %bb4, %bb6
  %33 = bitcast { i8, i8 }* %result to i8*
  %34 = load i8, i8* %33, align 1, !range !4
  %35 = trunc i8 %34 to i1
  %_15 = zext i1 %35 to i64
  %36 = icmp eq i64 %_15, 0
  br i1 %36, label %bb8, label %bb9

bb4:                                              ; preds = %bb3
  %37 = bitcast %"core::result::Result<std::sync::rwlock::RwLockWriteGuard<i32>, std::sync::poison::PoisonError<std::sync::rwlock::RwLockWriteGuard<i32>>>"* %0 to %"core::result::Result<std::sync::rwlock::RwLockWriteGuard<i32>, std::sync::poison::PoisonError<std::sync::rwlock::RwLockWriteGuard<i32>>>::Ok"*
  %38 = getelementptr inbounds %"core::result::Result<std::sync::rwlock::RwLockWriteGuard<i32>, std::sync::poison::PoisonError<std::sync::rwlock::RwLockWriteGuard<i32>>>::Ok", %"core::result::Result<std::sync::rwlock::RwLockWriteGuard<i32>, std::sync::poison::PoisonError<std::sync::rwlock::RwLockWriteGuard<i32>>>::Ok"* %37, i32 0, i32 1
  %39 = getelementptr inbounds { i64*, i8 }, { i64*, i8 }* %38, i32 0, i32 0
  store i64* %_5.0, i64** %39, align 8
  %40 = getelementptr inbounds { i64*, i8 }, { i64*, i8 }* %38, i32 0, i32 1
  %41 = zext i1 %_5.1 to i8
  store i8 %41, i8* %40, align 8
  %42 = bitcast %"core::result::Result<std::sync::rwlock::RwLockWriteGuard<i32>, std::sync::poison::PoisonError<std::sync::rwlock::RwLockWriteGuard<i32>>>"* %0 to i64*
  store i64 0, i64* %42, align 8
  br label %bb7

bb8:                                              ; preds = %bb9, %bb7
  ret void

bb9:                                              ; preds = %bb7
  br label %bb8
}

; std::sync::poison::map_result
; Function Attrs: nonlazybind uwtable
define void @_ZN3std4sync6poison10map_result17h69ad40ebceba847dE(%"core::result::Result<std::sync::mutex::MutexGuard<alloc::collections::vec_deque::VecDeque<i32>>, std::sync::poison::PoisonError<std::sync::mutex::MutexGuard<alloc::collections::vec_deque::VecDeque<i32>>>>"* noalias nocapture sret(%"core::result::Result<std::sync::mutex::MutexGuard<alloc::collections::vec_deque::VecDeque<i32>>, std::sync::poison::PoisonError<std::sync::mutex::MutexGuard<alloc::collections::vec_deque::VecDeque<i32>>>>") dereferenceable(24) %0, i1 zeroext %1, i8 %2, i64* align 8 dereferenceable(8) %f) unnamed_addr #1 {
start:
  %_13 = alloca i8, align 1
  %_7 = alloca i8, align 1
  %result = alloca { i8, i8 }, align 1
  %3 = getelementptr inbounds { i8, i8 }, { i8, i8 }* %result, i32 0, i32 0
  %4 = zext i1 %1 to i8
  store i8 %4, i8* %3, align 1
  %5 = getelementptr inbounds { i8, i8 }, { i8, i8 }* %result, i32 0, i32 1
  store i8 %2, i8* %5, align 1
  %6 = bitcast { i8, i8 }* %result to i8*
  %7 = load i8, i8* %6, align 1, !range !4
  %8 = trunc i8 %7 to i1
  %_3 = zext i1 %8 to i64
  switch i64 %_3, label %bb2 [
    i64 0, label %bb3
    i64 1, label %bb1
  ]

bb2:                                              ; preds = %start
  unreachable

bb3:                                              ; preds = %start
  %9 = bitcast { i8, i8 }* %result to %"core::result::Result<std::sync::poison::Guard, std::sync::poison::PoisonError<std::sync::poison::Guard>>::Ok"*
  %10 = getelementptr inbounds %"core::result::Result<std::sync::poison::Guard, std::sync::poison::PoisonError<std::sync::poison::Guard>>::Ok", %"core::result::Result<std::sync::poison::Guard, std::sync::poison::PoisonError<std::sync::poison::Guard>>::Ok"* %9, i32 0, i32 1
  %11 = load i8, i8* %10, align 1, !range !4
  %t = trunc i8 %11 to i1
  %12 = zext i1 %t to i8
  store i8 %12, i8* %_7, align 1
  %13 = load i8, i8* %_7, align 1, !range !4
  %14 = trunc i8 %13 to i1
; call std::sync::mutex::MutexGuard<T>::new::{{closure}}
  %15 = call { i64*, i8 } @"_ZN3std4sync5mutex19MutexGuard$LT$T$GT$3new28_$u7b$$u7b$closure$u7d$$u7d$17h1ece8a7072dd8a9fE"(i64* align 8 dereferenceable(8) %f, i1 zeroext %14)
  %_5.0 = extractvalue { i64*, i8 } %15, 0
  %16 = extractvalue { i64*, i8 } %15, 1
  %_5.1 = trunc i8 %16 to i1
  br label %bb4

bb1:                                              ; preds = %start
  %17 = bitcast { i8, i8 }* %result to %"core::result::Result<std::sync::poison::Guard, std::sync::poison::PoisonError<std::sync::poison::Guard>>::Err"*
  %18 = getelementptr inbounds %"core::result::Result<std::sync::poison::Guard, std::sync::poison::PoisonError<std::sync::poison::Guard>>::Err", %"core::result::Result<std::sync::poison::Guard, std::sync::poison::PoisonError<std::sync::poison::Guard>>::Err"* %17, i32 0, i32 1
  %19 = load i8, i8* %18, align 1, !range !4
  %guard = trunc i8 %19 to i1
  %20 = zext i1 %guard to i8
  store i8 %20, i8* %_13, align 1
  %21 = load i8, i8* %_13, align 1, !range !4
  %22 = trunc i8 %21 to i1
; call std::sync::mutex::MutexGuard<T>::new::{{closure}}
  %23 = call { i64*, i8 } @"_ZN3std4sync5mutex19MutexGuard$LT$T$GT$3new28_$u7b$$u7b$closure$u7d$$u7d$17h1ece8a7072dd8a9fE"(i64* align 8 dereferenceable(8) %f, i1 zeroext %22)
  %_11.0 = extractvalue { i64*, i8 } %23, 0
  %24 = extractvalue { i64*, i8 } %23, 1
  %_11.1 = trunc i8 %24 to i1
  br label %bb5

bb5:                                              ; preds = %bb1
; call std::sync::poison::PoisonError<T>::new
  %25 = call { i64*, i8 } @"_ZN3std4sync6poison20PoisonError$LT$T$GT$3new17hc09da25156d7a26bE"(i64* align 8 dereferenceable(48) %_11.0, i1 zeroext %_11.1)
  %_10.0 = extractvalue { i64*, i8 } %25, 0
  %26 = extractvalue { i64*, i8 } %25, 1
  %_10.1 = trunc i8 %26 to i1
  br label %bb6

bb6:                                              ; preds = %bb5
  %27 = bitcast %"core::result::Result<std::sync::mutex::MutexGuard<alloc::collections::vec_deque::VecDeque<i32>>, std::sync::poison::PoisonError<std::sync::mutex::MutexGuard<alloc::collections::vec_deque::VecDeque<i32>>>>"* %0 to %"core::result::Result<std::sync::mutex::MutexGuard<alloc::collections::vec_deque::VecDeque<i32>>, std::sync::poison::PoisonError<std::sync::mutex::MutexGuard<alloc::collections::vec_deque::VecDeque<i32>>>>::Err"*
  %28 = getelementptr inbounds %"core::result::Result<std::sync::mutex::MutexGuard<alloc::collections::vec_deque::VecDeque<i32>>, std::sync::poison::PoisonError<std::sync::mutex::MutexGuard<alloc::collections::vec_deque::VecDeque<i32>>>>::Err", %"core::result::Result<std::sync::mutex::MutexGuard<alloc::collections::vec_deque::VecDeque<i32>>, std::sync::poison::PoisonError<std::sync::mutex::MutexGuard<alloc::collections::vec_deque::VecDeque<i32>>>>::Err"* %27, i32 0, i32 1
  %29 = getelementptr inbounds { i64*, i8 }, { i64*, i8 }* %28, i32 0, i32 0
  store i64* %_10.0, i64** %29, align 8
  %30 = getelementptr inbounds { i64*, i8 }, { i64*, i8 }* %28, i32 0, i32 1
  %31 = zext i1 %_10.1 to i8
  store i8 %31, i8* %30, align 8
  %32 = bitcast %"core::result::Result<std::sync::mutex::MutexGuard<alloc::collections::vec_deque::VecDeque<i32>>, std::sync::poison::PoisonError<std::sync::mutex::MutexGuard<alloc::collections::vec_deque::VecDeque<i32>>>>"* %0 to i64*
  store i64 1, i64* %32, align 8
  br label %bb7

bb7:                                              ; preds = %bb4, %bb6
  %33 = bitcast { i8, i8 }* %result to i8*
  %34 = load i8, i8* %33, align 1, !range !4
  %35 = trunc i8 %34 to i1
  %_15 = zext i1 %35 to i64
  %36 = icmp eq i64 %_15, 0
  br i1 %36, label %bb8, label %bb9

bb4:                                              ; preds = %bb3
  %37 = bitcast %"core::result::Result<std::sync::mutex::MutexGuard<alloc::collections::vec_deque::VecDeque<i32>>, std::sync::poison::PoisonError<std::sync::mutex::MutexGuard<alloc::collections::vec_deque::VecDeque<i32>>>>"* %0 to %"core::result::Result<std::sync::mutex::MutexGuard<alloc::collections::vec_deque::VecDeque<i32>>, std::sync::poison::PoisonError<std::sync::mutex::MutexGuard<alloc::collections::vec_deque::VecDeque<i32>>>>::Ok"*
  %38 = getelementptr inbounds %"core::result::Result<std::sync::mutex::MutexGuard<alloc::collections::vec_deque::VecDeque<i32>>, std::sync::poison::PoisonError<std::sync::mutex::MutexGuard<alloc::collections::vec_deque::VecDeque<i32>>>>::Ok", %"core::result::Result<std::sync::mutex::MutexGuard<alloc::collections::vec_deque::VecDeque<i32>>, std::sync::poison::PoisonError<std::sync::mutex::MutexGuard<alloc::collections::vec_deque::VecDeque<i32>>>>::Ok"* %37, i32 0, i32 1
  %39 = getelementptr inbounds { i64*, i8 }, { i64*, i8 }* %38, i32 0, i32 0
  store i64* %_5.0, i64** %39, align 8
  %40 = getelementptr inbounds { i64*, i8 }, { i64*, i8 }* %38, i32 0, i32 1
  %41 = zext i1 %_5.1 to i8
  store i8 %41, i8* %40, align 8
  %42 = bitcast %"core::result::Result<std::sync::mutex::MutexGuard<alloc::collections::vec_deque::VecDeque<i32>>, std::sync::poison::PoisonError<std::sync::mutex::MutexGuard<alloc::collections::vec_deque::VecDeque<i32>>>>"* %0 to i64*
  store i64 0, i64* %42, align 8
  br label %bb7

bb8:                                              ; preds = %bb9, %bb7
  ret void

bb9:                                              ; preds = %bb7
  br label %bb8
}

; std::sync::poison::map_result
; Function Attrs: nonlazybind uwtable
define void @_ZN3std4sync6poison10map_result17h72b4b8124aaa6988E(%"core::result::Result<std::sync::mutex::MutexGuard<()>, std::sync::poison::PoisonError<std::sync::mutex::MutexGuard<()>>>"* noalias nocapture sret(%"core::result::Result<std::sync::mutex::MutexGuard<()>, std::sync::poison::PoisonError<std::sync::mutex::MutexGuard<()>>>") dereferenceable(24) %0, i1 zeroext %1, i8 %2, i64* align 8 dereferenceable(8) %f) unnamed_addr #1 {
start:
  %_13 = alloca i8, align 1
  %_7 = alloca i8, align 1
  %result = alloca { i8, i8 }, align 1
  %3 = getelementptr inbounds { i8, i8 }, { i8, i8 }* %result, i32 0, i32 0
  %4 = zext i1 %1 to i8
  store i8 %4, i8* %3, align 1
  %5 = getelementptr inbounds { i8, i8 }, { i8, i8 }* %result, i32 0, i32 1
  store i8 %2, i8* %5, align 1
  %6 = bitcast { i8, i8 }* %result to i8*
  %7 = load i8, i8* %6, align 1, !range !4
  %8 = trunc i8 %7 to i1
  %_3 = zext i1 %8 to i64
  switch i64 %_3, label %bb2 [
    i64 0, label %bb3
    i64 1, label %bb1
  ]

bb2:                                              ; preds = %start
  unreachable

bb3:                                              ; preds = %start
  %9 = bitcast { i8, i8 }* %result to %"core::result::Result<std::sync::poison::Guard, std::sync::poison::PoisonError<std::sync::poison::Guard>>::Ok"*
  %10 = getelementptr inbounds %"core::result::Result<std::sync::poison::Guard, std::sync::poison::PoisonError<std::sync::poison::Guard>>::Ok", %"core::result::Result<std::sync::poison::Guard, std::sync::poison::PoisonError<std::sync::poison::Guard>>::Ok"* %9, i32 0, i32 1
  %11 = load i8, i8* %10, align 1, !range !4
  %t = trunc i8 %11 to i1
  %12 = zext i1 %t to i8
  store i8 %12, i8* %_7, align 1
  %13 = load i8, i8* %_7, align 1, !range !4
  %14 = trunc i8 %13 to i1
; call std::sync::mutex::MutexGuard<T>::new::{{closure}}
  %15 = call { i64*, i8 } @"_ZN3std4sync5mutex19MutexGuard$LT$T$GT$3new28_$u7b$$u7b$closure$u7d$$u7d$17h2c5f902e72a59164E"(i64* align 8 dereferenceable(8) %f, i1 zeroext %14)
  %_5.0 = extractvalue { i64*, i8 } %15, 0
  %16 = extractvalue { i64*, i8 } %15, 1
  %_5.1 = trunc i8 %16 to i1
  br label %bb4

bb1:                                              ; preds = %start
  %17 = bitcast { i8, i8 }* %result to %"core::result::Result<std::sync::poison::Guard, std::sync::poison::PoisonError<std::sync::poison::Guard>>::Err"*
  %18 = getelementptr inbounds %"core::result::Result<std::sync::poison::Guard, std::sync::poison::PoisonError<std::sync::poison::Guard>>::Err", %"core::result::Result<std::sync::poison::Guard, std::sync::poison::PoisonError<std::sync::poison::Guard>>::Err"* %17, i32 0, i32 1
  %19 = load i8, i8* %18, align 1, !range !4
  %guard = trunc i8 %19 to i1
  %20 = zext i1 %guard to i8
  store i8 %20, i8* %_13, align 1
  %21 = load i8, i8* %_13, align 1, !range !4
  %22 = trunc i8 %21 to i1
; call std::sync::mutex::MutexGuard<T>::new::{{closure}}
  %23 = call { i64*, i8 } @"_ZN3std4sync5mutex19MutexGuard$LT$T$GT$3new28_$u7b$$u7b$closure$u7d$$u7d$17h2c5f902e72a59164E"(i64* align 8 dereferenceable(8) %f, i1 zeroext %22)
  %_11.0 = extractvalue { i64*, i8 } %23, 0
  %24 = extractvalue { i64*, i8 } %23, 1
  %_11.1 = trunc i8 %24 to i1
  br label %bb5

bb5:                                              ; preds = %bb1
; call std::sync::poison::PoisonError<T>::new
  %25 = call { i64*, i8 } @"_ZN3std4sync6poison20PoisonError$LT$T$GT$3new17h5c3299c8b6adec89E"(i64* align 8 dereferenceable(16) %_11.0, i1 zeroext %_11.1)
  %_10.0 = extractvalue { i64*, i8 } %25, 0
  %26 = extractvalue { i64*, i8 } %25, 1
  %_10.1 = trunc i8 %26 to i1
  br label %bb6

bb6:                                              ; preds = %bb5
  %27 = bitcast %"core::result::Result<std::sync::mutex::MutexGuard<()>, std::sync::poison::PoisonError<std::sync::mutex::MutexGuard<()>>>"* %0 to %"core::result::Result<std::sync::mutex::MutexGuard<()>, std::sync::poison::PoisonError<std::sync::mutex::MutexGuard<()>>>::Err"*
  %28 = getelementptr inbounds %"core::result::Result<std::sync::mutex::MutexGuard<()>, std::sync::poison::PoisonError<std::sync::mutex::MutexGuard<()>>>::Err", %"core::result::Result<std::sync::mutex::MutexGuard<()>, std::sync::poison::PoisonError<std::sync::mutex::MutexGuard<()>>>::Err"* %27, i32 0, i32 1
  %29 = getelementptr inbounds { i64*, i8 }, { i64*, i8 }* %28, i32 0, i32 0
  store i64* %_10.0, i64** %29, align 8
  %30 = getelementptr inbounds { i64*, i8 }, { i64*, i8 }* %28, i32 0, i32 1
  %31 = zext i1 %_10.1 to i8
  store i8 %31, i8* %30, align 8
  %32 = bitcast %"core::result::Result<std::sync::mutex::MutexGuard<()>, std::sync::poison::PoisonError<std::sync::mutex::MutexGuard<()>>>"* %0 to i64*
  store i64 1, i64* %32, align 8
  br label %bb7

bb7:                                              ; preds = %bb4, %bb6
  %33 = bitcast { i8, i8 }* %result to i8*
  %34 = load i8, i8* %33, align 1, !range !4
  %35 = trunc i8 %34 to i1
  %_15 = zext i1 %35 to i64
  %36 = icmp eq i64 %_15, 0
  br i1 %36, label %bb8, label %bb9

bb4:                                              ; preds = %bb3
  %37 = bitcast %"core::result::Result<std::sync::mutex::MutexGuard<()>, std::sync::poison::PoisonError<std::sync::mutex::MutexGuard<()>>>"* %0 to %"core::result::Result<std::sync::mutex::MutexGuard<()>, std::sync::poison::PoisonError<std::sync::mutex::MutexGuard<()>>>::Ok"*
  %38 = getelementptr inbounds %"core::result::Result<std::sync::mutex::MutexGuard<()>, std::sync::poison::PoisonError<std::sync::mutex::MutexGuard<()>>>::Ok", %"core::result::Result<std::sync::mutex::MutexGuard<()>, std::sync::poison::PoisonError<std::sync::mutex::MutexGuard<()>>>::Ok"* %37, i32 0, i32 1
  %39 = getelementptr inbounds { i64*, i8 }, { i64*, i8 }* %38, i32 0, i32 0
  store i64* %_5.0, i64** %39, align 8
  %40 = getelementptr inbounds { i64*, i8 }, { i64*, i8 }* %38, i32 0, i32 1
  %41 = zext i1 %_5.1 to i8
  store i8 %41, i8* %40, align 8
  %42 = bitcast %"core::result::Result<std::sync::mutex::MutexGuard<()>, std::sync::poison::PoisonError<std::sync::mutex::MutexGuard<()>>>"* %0 to i64*
  store i64 0, i64* %42, align 8
  br label %bb7

