; ModuleID = 'probe.18289f57-cgu.0'
source_filename = "probe.18289f57-cgu.0"
target datalayout = "e-m:e-p270:32:32-p271:32:32-p272:64:64-i64:64-f80:128-n8:16:32:64-S128"
target triple = "x86_64-unknown-linux-gnu"

%"std::thread::local::fast::Key<core::cell::Cell<(u64, u64)>>" = type { %"std::thread::local::lazy::LazyKeyInner<core::cell::Cell<(u64, u64)>>", i8, [7 x i8] }
%"std::thread::local::lazy::LazyKeyInner<core::cell::Cell<(u64, u64)>>" = type { %"core::cell::UnsafeCell<core::option::Option<core::cell::Cell<(u64, u64)>>>" }
%"core::cell::UnsafeCell<core::option::Option<core::cell::Cell<(u64, u64)>>>" = type { %"core::option::Option<core::cell::Cell<(u64, u64)>>" }
%"core::option::Option<core::cell::Cell<(u64, u64)>>" = type { i64, [2 x i64] }
%"core::sync::atomic::AtomicUsize" = type { i64 }
%"hashbrown::raw::RawIterHashInner<alloc::alloc::Global>" = type { <2 x i64>, %"hashbrown::raw::RawTableInner<alloc::alloc::Global>"*, { i64, i64 }, i16, i8, [5 x i8] }
%"hashbrown::raw::RawTableInner<alloc::alloc::Global>" = type { %"alloc::alloc::Global", i64, i8*, i64, i64 }
%"alloc::alloc::Global" = type {}
%"core::option::Option<usize>::Some" = type { [1 x i64], i64 }
%"alloc::vec::into_iter::IntoIter<&str>" = type { %"core::marker::PhantomData<&str>", %"alloc::alloc::Global", i64*, i64, { [0 x i8]*, i64 }*, { [0 x i8]*, i64 }* }
%"core::marker::PhantomData<&str>" = type {}
%"core::panic::location::Location" = type { { [0 x i8]*, i64 }, i32, i32 }
%"core::iter::adapters::step_by::StepBy<core::ops::range::Range<usize>>" = type { { i64, i64 }, i64, i8, [7 x i8] }
%"core::iter::adapters::filter::Filter<core::str::iter::Split<core::str::IsWhitespace>, core::str::IsNotEmpty>" = type { %"core::str::IsNotEmpty", %"core::str::iter::Split<core::str::IsWhitespace>" }
%"core::str::IsNotEmpty" = type {}
%"core::str::iter::Split<core::str::IsWhitespace>" = type { %"core::str::iter::SplitInternal<core::str::IsWhitespace>" }
%"core::str::iter::SplitInternal<core::str::IsWhitespace>" = type { i64, i64, %"core::str::pattern::CharPredicateSearcher<core::str::IsWhitespace>", i8, i8, [6 x i8] }
%"core::str::pattern::CharPredicateSearcher<core::str::IsWhitespace>" = type { %"core::str::pattern::MultiCharEqSearcher<core::str::IsWhitespace>" }
%"core::str::pattern::MultiCharEqSearcher<core::str::IsWhitespace>" = type { %"core::str::IsWhitespace", { [0 x i8]*, i64 }, %"core::str::iter::CharIndices" }
%"core::str::IsWhitespace" = type {}
%"core::str::iter::CharIndices" = type { i64, { i8*, i8* } }
%"alloc::vec::Vec<&str>" = type { { i64*, i64 }, i64 }
%"core::str::iter::SplitWhitespace" = type { %"core::iter::adapters::filter::Filter<core::str::iter::Split<core::str::IsWhitespace>, core::str::IsNotEmpty>" }
%"core::result::Result<(), alloc::collections::TryReserveError>" = type { i64, [2 x i64] }
%"core::result::Result<(), alloc::collections::TryReserveError>::Err" = type { [1 x i64], { i64, i64 } }
%"core::result::Result<(core::alloc::layout::Layout, usize), core::alloc::layout::LayoutError>" = type { [1 x i64], i64, [1 x i64] }
%"core::result::Result<(core::alloc::layout::Layout, usize), core::alloc::layout::LayoutError>::Err" = type { %"core::alloc::layout::LayoutError" }
%"core::alloc::layout::LayoutError" = type {}
%"core::result::Result<core::ptr::non_null::NonNull<[u8]>, core::alloc::AllocError>::Err" = type { %"core::alloc::AllocError" }
%"core::alloc::AllocError" = type {}
%"core::result::Result<core::alloc::layout::Layout, core::alloc::layout::LayoutError>::Err" = type { %"core::alloc::layout::LayoutError" }
%"core::result::Result<hashbrown::scopeguard::ScopeGuard<hashbrown::raw::RawTableInner<alloc::alloc::Global>, [closure@hashbrown::raw::RawTableInner<alloc::alloc::Global>::prepare_resize::{closure#0}]>, hashbrown::TryReserveError>" = type { i64, [6 x i64] }
%"core::result::Result<hashbrown::scopeguard::ScopeGuard<hashbrown::raw::RawTableInner<alloc::alloc::Global>, [closure@hashbrown::raw::RawTableInner<alloc::alloc::Global>::prepare_resize::{closure#0}]>, hashbrown::TryReserveError>::Err" = type { [1 x i64], { i64, i64 } }
%"core::result::Result<core::ptr::non_null::NonNull<[u8]>, alloc::collections::TryReserveError>" = type { i64, [2 x i64] }
%"core::result::Result<core::ptr::non_null::NonNull<[u8]>, alloc::collections::TryReserveError>::Err" = type { [1 x i64], { i64, i64 } }
%"core::result::Result<std::collections::hash::map::RandomState, std::thread::local::AccessError>" = type { i64, [2 x i64] }
%"core::result::Result<std::collections::hash::map::RandomState, std::thread::local::AccessError>::Err" = type { [8 x i8], %"std::thread::local::AccessError" }
%"std::thread::local::AccessError" = type {}
%"core::result::Result<(), hashbrown::TryReserveError>" = type { i64, [2 x i64] }
%"core::result::Result<(), hashbrown::TryReserveError>::Err" = type { [1 x i64], { i64, i64 } }
%"core::result::Result<hashbrown::raw::RawTableInner<alloc::alloc::Global>, hashbrown::TryReserveError>" = type { i64, [4 x i64] }
%"core::result::Result<hashbrown::raw::RawTableInner<alloc::alloc::Global>, hashbrown::TryReserveError>::Err" = type { [1 x i64], { i64, i64 } }
%"std::sys::unix::mutex::Mutex" = type { %"core::cell::UnsafeCell<libc::unix::linux_like::linux::pthread_mutex_t>" }
%"core::cell::UnsafeCell<libc::unix::linux_like::linux::pthread_mutex_t>" = type { %"libc::unix::linux_like::linux::pthread_mutex_t" }
%"libc::unix::linux_like::linux::pthread_mutex_t" = type { [40 x i8] }
%"std::sys::unix::rwlock::RWLock" = type { %"core::cell::UnsafeCell<libc::unix::linux_like::linux::pthread_rwlock_t>", %"core::sync::atomic::AtomicUsize", i8, [7 x i8] }
%"core::cell::UnsafeCell<libc::unix::linux_like::linux::pthread_rwlock_t>" = type { %"libc::unix::linux_like::linux::pthread_rwlock_t" }
%"libc::unix::linux_like::linux::pthread_rwlock_t" = type { [56 x i8] }
%"std::sys_common::condvar::Condvar" = type { %"std::sys::unix::condvar::Condvar"*, %"std::sys_common::condvar::check::SameMutexCheck" }
%"std::sys::unix::condvar::Condvar" = type { %"core::cell::UnsafeCell<libc::unix::linux_like::linux::pthread_cond_t>" }
%"core::cell::UnsafeCell<libc::unix::linux_like::linux::pthread_cond_t>" = type { %"libc::unix::linux_like::linux::pthread_cond_t" }
%"libc::unix::linux_like::linux::pthread_cond_t" = type { [48 x i8] }
%"std::sys_common::condvar::check::SameMutexCheck" = type { %"core::sync::atomic::AtomicUsize" }
%"[closure@std::panicking::begin_panic<&str>::{closure#0}]" = type { { [0 x i8]*, i64 }, %"core::panic::location::Location"* }
%"std::collections::hash::map::Entry<std::thread::ThreadId, i32>" = type { i64, [3 x i64] }
%"std::collections::hash::map::VacantEntry<std::thread::ThreadId, i32>" = type { %"hashbrown::rustc_entry::RustcVacantEntry<std::thread::ThreadId, i32>" }
%"hashbrown::rustc_entry::RustcVacantEntry<std::thread::ThreadId, i32>" = type { i64, i64, %"hashbrown::raw::RawTable<(std::thread::ThreadId, i32)>"* }
%"hashbrown::raw::RawTable<(std::thread::ThreadId, i32)>" = type { %"core::marker::PhantomData<(std::thread::ThreadId, i32)>", %"hashbrown::raw::RawTableInner<alloc::alloc::Global>" }
%"core::marker::PhantomData<(std::thread::ThreadId, i32)>" = type {}
%"std::collections::hash::map::OccupiedEntry<std::thread::ThreadId, i32>" = type { %"hashbrown::rustc_entry::RustcOccupiedEntry<std::thread::ThreadId, i32>" }
%"hashbrown::rustc_entry::RustcOccupiedEntry<std::thread::ThreadId, i32>" = type { i64, i64*, %"hashbrown::raw::RawTable<(std::thread::ThreadId, i32)>"* }
%"std::collections::hash::map::Entry<std::thread::ThreadId, i32>::Occupied" = type { [1 x i64], %"std::collections::hash::map::OccupiedEntry<std::thread::ThreadId, i32>" }
%"std::collections::hash::map::Entry<std::thread::ThreadId, i32>::Vacant" = type { [1 x i64], %"std::collections::hash::map::VacantEntry<std::thread::ThreadId, i32>" }
%"std::collections::hash::map::HashMap<std::thread::ThreadId, i32>" = type { %"hashbrown::map::HashMap<std::thread::ThreadId, i32, std::collections::hash::map::RandomState>" }
%"hashbrown::map::HashMap<std::thread::ThreadId, i32, std::collections::hash::map::RandomState>" = type { { i64, i64 }, %"hashbrown::raw::RawTable<(std::thread::ThreadId, i32)>" }
%"hashbrown::rustc_entry::RustcEntry<std::thread::ThreadId, i32>" = type { i64, [3 x i64] }
%"hashbrown::rustc_entry::RustcEntry<std::thread::ThreadId, i32>::Occupied" = type { [1 x i64], %"hashbrown::rustc_entry::RustcOccupiedEntry<std::thread::ThreadId, i32>" }
%"hashbrown::rustc_entry::RustcEntry<std::thread::ThreadId, i32>::Vacant" = type { [1 x i64], %"hashbrown::rustc_entry::RustcVacantEntry<std::thread::ThreadId, i32>" }
%"core::result::Result<std::fs::File, std::io::error::Error>" = type { i32, [5 x i32] }
%"std::fs::OpenOptions" = type { %"std::sys::unix::fs::OpenOptions" }
%"std::sys::unix::fs::OpenOptions" = type { i32, i32, i8, i8, i8, i8, i8, i8, [2 x i8] }
%"std::path::Path" = type { %"std::ffi::os_str::OsStr" }
%"std::ffi::os_str::OsStr" = type { %"std::sys::unix::os_str::Slice" }
%"std::sys::unix::os_str::Slice" = type { [0 x i8] }
%"std::io::error::Error" = type { %"std::io::error::Repr" }
%"std::io::error::Repr" = type { i8, [15 x i8] }
%"core::result::Result<usize, std::io::error::Error>" = type { i64, [2 x i64] }
%"core::result::Result<(), std::io::error::Error>" = type { i8, [15 x i8] }
%"core::result::Result<usize, std::io::error::Error>::Ok" = type { [1 x i64], i64 }
%"core::result::Result<usize, std::io::error::Error>::Err" = type { [1 x i64], %"std::io::error::Error" }
%"core::result::Result<(), std::io::error::Error>::Err" = type { %"std::io::error::Error" }
%"core::fmt::Arguments" = type { { [0 x { [0 x i8]*, i64 }]*, i64 }, { i64*, i64 }, { [0 x { i8*, i64* }]*, i64 } }
%"std::io::Write::write_fmt::Adapter<std::fs::File>" = type { i32*, %"core::result::Result<(), std::io::error::Error>" }
%"std::io::error::Repr::Os" = type { [1 x i32], i32 }
%"std::io::error::Repr::Simple" = type { [1 x i8], i8 }
%"std::io::error::Repr::SimpleMessage" = type { [1 x i8], i8, [6 x i8], { [0 x i8]*, i64 }* }
%"std::io::error::Repr::Custom" = type { [1 x i64], %"std::io::error::Custom"* }
%"std::io::error::Custom" = type { { {}*, [3 x i64]* }, i8, [7 x i8] }
%"std::sync::mutex::Mutex<i32>" = type { i64*, %"std::sync::poison::Flag", [3 x i8], i32 }
%"std::sync::poison::Flag" = type { %"core::sync::atomic::AtomicBool" }
%"core::sync::atomic::AtomicBool" = type { i8 }
%"std::sync::mutex::Mutex<()>" = type { i64*, %"std::sync::poison::Flag", %"core::cell::UnsafeCell<()>", [7 x i8] }
%"core::cell::UnsafeCell<()>" = type { {} }
%"std::sync::mutex::Mutex<std::collections::hash::map::HashMap<std::thread::ThreadId, i32>>" = type { i64*, %"std::sync::poison::Flag", [7 x i8], %"core::cell::UnsafeCell<std::collections::hash::map::HashMap<std::thread::ThreadId, i32>>" }
%"core::cell::UnsafeCell<std::collections::hash::map::HashMap<std::thread::ThreadId, i32>>" = type { %"std::collections::hash::map::HashMap<std::thread::ThreadId, i32>" }
%"std::sync::mutex::Mutex<std::fs::File>" = type { i64*, %"std::sync::poison::Flag", [3 x i8], i32 }
%"std::sync::mutex::Mutex<alloc::vec::Vec<alloc::vec::Vec<_ProbeNode>>>" = type { i64*, %"std::sync::poison::Flag", [7 x i8], %"core::cell::UnsafeCell<alloc::vec::Vec<alloc::vec::Vec<_ProbeNode>>>" }
%"core::cell::UnsafeCell<alloc::vec::Vec<alloc::vec::Vec<_ProbeNode>>>" = type { %"alloc::vec::Vec<alloc::vec::Vec<_ProbeNode>>" }
%"alloc::vec::Vec<alloc::vec::Vec<_ProbeNode>>" = type { { i64*, i64 }, i64 }
%"std::sync::mutex::Mutex<alloc::collections::vec_deque::VecDeque<i32>>" = type { i64*, %"std::sync::poison::Flag", [7 x i8], %"core::cell::UnsafeCell<alloc::collections::vec_deque::VecDeque<i32>>" }
%"core::cell::UnsafeCell<alloc::collections::vec_deque::VecDeque<i32>>" = type { %"alloc::collections::vec_deque::VecDeque<i32>" }
%"alloc::collections::vec_deque::VecDeque<i32>" = type { i64, i64, { i32*, i64 } }
%"core::result::Result<std::sync::mutex::MutexGuard<alloc::collections::vec_deque::VecDeque<i32>>, std::sync::poison::PoisonError<std::sync::mutex::MutexGuard<alloc::collections::vec_deque::VecDeque<i32>>>>" = type { i64, [2 x i64] }
%"core::result::Result<std::sync::mutex::MutexGuard<i32>, std::sync::poison::PoisonError<std::sync::mutex::MutexGuard<i32>>>" = type { i64, [2 x i64] }
%"core::result::Result<std::sync::mutex::MutexGuard<alloc::vec::Vec<alloc::vec::Vec<_ProbeNode>>>, std::sync::poison::PoisonError<std::sync::mutex::MutexGuard<alloc::vec::Vec<alloc::vec::Vec<_ProbeNode>>>>>" = type { i64, [2 x i64] }
%"core::result::Result<std::sync::mutex::MutexGuard<std::collections::hash::map::HashMap<std::thread::ThreadId, i32>>, std::sync::poison::PoisonError<std::sync::mutex::MutexGuard<std::collections::hash::map::HashMap<std::thread::ThreadId, i32>>>>" = type { i64, [2 x i64] }
%"core::result::Result<std::sync::mutex::MutexGuard<()>, std::sync::poison::PoisonError<std::sync::mutex::MutexGuard<()>>>" = type { i64, [2 x i64] }
%"core::result::Result<std::sync::mutex::MutexGuard<std::fs::File>, std::sync::poison::PoisonError<std::sync::mutex::MutexGuard<std::fs::File>>>" = type { i64, [2 x i64] }
%"core::result::Result<std::sync::rwlock::RwLockWriteGuard<i32>, std::sync::poison::PoisonError<std::sync::rwlock::RwLockWriteGuard<i32>>>" = type { i64, [2 x i64] }
%"core::result::Result<std::sync::poison::Guard, std::sync::poison::PoisonError<std::sync::poison::Guard>>::Ok" = type { [1 x i8], i8 }
%"core::result::Result<std::sync::poison::Guard, std::sync::poison::PoisonError<std::sync::poison::Guard>>::Err" = type { [1 x i8], i8 }
%"core::result::Result<std::sync::rwlock::RwLockWriteGuard<i32>, std::sync::poison::PoisonError<std::sync::rwlock::RwLockWriteGuard<i32>>>::Err" = type { [1 x i64], { i64*, i8 } }
%"core::result::Result<std::sync::rwlock::RwLockWriteGuard<i32>, std::sync::poison::PoisonError<std::sync::rwlock::RwLockWriteGuard<i32>>>::Ok" = type { [1 x i64], { i64*, i8 } }
%"core::result::Result<std::sync::mutex::MutexGuard<alloc::collections::vec_deque::VecDeque<i32>>, std::sync::poison::PoisonError<std::sync::mutex::MutexGuard<alloc::collections::vec_deque::VecDeque<i32>>>>::Err" = type { [1 x i64], { i64*, i8 } }
%"core::result::Result<std::sync::mutex::MutexGuard<alloc::collections::vec_deque::VecDeque<i32>>, std::sync::poison::PoisonError<std::sync::mutex::MutexGuard<alloc::collections::vec_deque::VecDeque<i32>>>>::Ok" = type { [1 x i64], { i64*, i8 } }
%"core::result::Result<std::sync::rwlock::RwLockReadGuard<i32>, std::sync::poison::PoisonError<std::sync::rwlock::RwLockReadGuard<i32>>>::Err" = type { [1 x i64], i64* }
%"core::result::Result<std::sync::rwlock::RwLockReadGuard<i32>, std::sync::poison::PoisonError<std::sync::rwlock::RwLockReadGuard<i32>>>::Ok" = type { [1 x i64], i64* }
%"core::result::Result<std::sync::mutex::MutexGuard<std::fs::File>, std::sync::poison::PoisonError<std::sync::mutex::MutexGuard<std::fs::File>>>::Err" = type { [1 x i64], { i64*, i8 } }
%"core::result::Result<std::sync::mutex::MutexGuard<std::fs::File>, std::sync::poison::PoisonError<std::sync::mutex::MutexGuard<std::fs::File>>>::Ok" = type { [1 x i64], { i64*, i8 } }
%"core::result::Result<std::sync::mutex::MutexGuard<i32>, std::sync::poison::PoisonError<std::sync::mutex::MutexGuard<i32>>>::Err" = type { [1 x i64], { i64*, i8 } }
%"core::result::Result<std::sync::mutex::MutexGuard<i32>, std::sync::poison::PoisonError<std::sync::mutex::MutexGuard<i32>>>::Ok" = type { [1 x i64], { i64*, i8 } }
%"core::result::Result<std::sync::mutex::MutexGuard<alloc::vec::Vec<alloc::vec::Vec<_ProbeNode>>>, std::sync::poison::PoisonError<std::sync::mutex::MutexGuard<alloc::vec::Vec<alloc::vec::Vec<_ProbeNode>>>>>::Err" = type { [1 x i64], { i64*, i8 } }
%"core::result::Result<std::sync::mutex::MutexGuard<alloc::vec::Vec<alloc::vec::Vec<_ProbeNode>>>, std::sync::poison::PoisonError<std::sync::mutex::MutexGuard<alloc::vec::Vec<alloc::vec::Vec<_ProbeNode>>>>>::Ok" = type { [1 x i64], { i64*, i8 } }
%"core::result::Result<std::sync::mutex::MutexGuard<std::collections::hash::map::HashMap<std::thread::ThreadId, i32>>, std::sync::poison::PoisonError<std::sync::mutex::MutexGuard<std::collections::hash::map::HashMap<std::thread::ThreadId, i32>>>>::Err" = type { [1 x i64], { i64*, i8 } }
%"core::result::Result<std::sync::mutex::MutexGuard<std::collections::hash::map::HashMap<std::thread::ThreadId, i32>>, std::sync::poison::PoisonError<std::sync::mutex::MutexGuard<std::collections::hash::map::HashMap<std::thread::ThreadId, i32>>>>::Ok" = type { [1 x i64], { i64*, i8 } }
%"core::result::Result<std::sync::mutex::MutexGuard<()>, std::sync::poison::PoisonError<std::sync::mutex::MutexGuard<()>>>::Err" = type { [1 x i64], { i64*, i8 } }
%"core::result::Result<std::sync::mutex::MutexGuard<()>, std::sync::poison::PoisonError<std::sync::mutex::MutexGuard<()>>>::Ok" = type { [1 x i64], { i64*, i8 } }
%"std::sync::rwlock::RwLock<i32>" = type { i64*, %"std::sync::poison::Flag", [3 x i8], i32 }
%"std::sync::condvar::Condvar" = type { %"std::sys_common::condvar::Condvar" }
%"core::result::Result<std::collections::hash::map::RandomState, std::thread::local::AccessError>::Ok" = type { [1 x i64], { i64, i64 } }
%"core::option::Option<core::cell::Cell<(u64, u64)>>::Some" = type { [1 x i64], { i64, i64 } }
%"core::fmt::Formatter" = type { { i64, i64 }, { i64, i64 }, { {}*, [3 x i64]* }, i32, i32, i8, [7 x i8] }
%_ProbeNode = type { { [0 x i8]*, i64 }, { i64, i8* }, i32, i32, i32, i32 }
%"core::str::pattern::MultiCharEqPattern<core::str::IsWhitespace>" = type { %"core::str::IsWhitespace" }
%"core::fmt::Opaque" = type {}
%"core::fmt::rt::v1::Argument" = type { i64, %"core::fmt::rt::v1::FormatSpec" }
%"core::fmt::rt::v1::FormatSpec" = type { { i64, i64 }, { i64, i64 }, i32, i32, i8, [7 x i8] }
%"alloc::sync::ArcInner<std::sync::mutex::Mutex<std::collections::hash::map::HashMap<std::thread::ThreadId, i32>>>" = type { %"core::sync::atomic::AtomicUsize", %"core::sync::atomic::AtomicUsize", %"std::sync::mutex::Mutex<std::collections::hash::map::HashMap<std::thread::ThreadId, i32>>" }
%"alloc::sync::ArcInner<_ProbeSemaphore>" = type { %"core::sync::atomic::AtomicUsize", %"core::sync::atomic::AtomicUsize", %_ProbeSemaphore }
%_ProbeSemaphore = type { %"std::sync::mutex::Mutex<i32>", %"std::sync::condvar::Condvar" }
%"alloc::sync::ArcInner<_ShuffledOrder>" = type { %"core::sync::atomic::AtomicUsize", %"core::sync::atomic::AtomicUsize", %_ShuffledOrder }
%_ShuffledOrder = type { %"std::sync::mutex::Mutex<alloc::collections::vec_deque::VecDeque<i32>>", %"std::sync::rwlock::RwLock<i32>", %"std::sync::condvar::Condvar", %"std::sync::mutex::Mutex<()>" }
%"alloc::sync::ArcInner<std::thread::Inner>" = type { %"core::sync::atomic::AtomicUsize", %"core::sync::atomic::AtomicUsize", %"std::thread::Inner" }
%"std::thread::Inner" = type { { i8*, i64 }, i64, %"std::sys_common::thread_parker::futex::Parker", [1 x i32] }
%"std::sys_common::thread_parker::futex::Parker" = type { %"core::sync::atomic::AtomicI32" }
%"core::sync::atomic::AtomicI32" = type { i32 }
%"alloc::sync::ArcInner<std::sync::mutex::Mutex<std::fs::File>>" = type { %"core::sync::atomic::AtomicUsize", %"core::sync::atomic::AtomicUsize", %"std::sync::mutex::Mutex<std::fs::File>" }
%"alloc::sync::ArcInner<std::sync::mutex::Mutex<alloc::vec::Vec<alloc::vec::Vec<_ProbeNode>>>>" = type { %"core::sync::atomic::AtomicUsize", %"core::sync::atomic::AtomicUsize", %"std::sync::mutex::Mutex<alloc::vec::Vec<alloc::vec::Vec<_ProbeNode>>>" }
%"alloc::sync::ArcInner<std::sync::mutex::Mutex<i32>>" = type { %"core::sync::atomic::AtomicUsize", %"core::sync::atomic::AtomicUsize", %"std::sync::mutex::Mutex<i32>" }
%"alloc::vec::Vec<_ProbeNode>" = type { { i64*, i64 }, i64 }
%"hashbrown::scopeguard::ScopeGuard<hashbrown::raw::RawTableInner<alloc::alloc::Global>, [closure@hashbrown::raw::RawTableInner<alloc::alloc::Global>::prepare_resize::{closure#0}]>" = type { { i64, i64 }, %"hashbrown::raw::RawTableInner<alloc::alloc::Global>" }
%"core::mem::maybe_uninit::MaybeUninit<core::ptr::swap_nonoverlapping_bytes::UnalignedBlock>" = type { [4 x i64] }
%"core::ptr::swap_nonoverlapping_bytes::UnalignedBlock" = type { i64, i64, i64, i64 }
%"alloc::string::String" = type { %"alloc::vec::Vec<u8>" }
%"alloc::vec::Vec<u8>" = type { { i8*, i64 }, i64 }
%"core::str::error::Utf8Error" = type { i64, { i8, i8 }, [6 x i8] }
%"core::mem::manually_drop::ManuallyDrop<hashbrown::raw::RawTableInner<alloc::alloc::Global>>" = type { %"hashbrown::raw::RawTableInner<alloc::alloc::Global>" }
%"core::mem::maybe_uninit::MaybeUninit<hashbrown::raw::RawTableInner<alloc::alloc::Global>>" = type { [4 x i64] }
%"core::mem::manually_drop::ManuallyDrop<core::option::Option<core::cell::Cell<(u64, u64)>>>" = type { %"core::option::Option<core::cell::Cell<(u64, u64)>>" }
%"core::mem::maybe_uninit::MaybeUninit<core::option::Option<core::cell::Cell<(u64, u64)>>>" = type { [3 x i64] }
%"core::mem::maybe_uninit::MaybeUninit<alloc::alloc::Global>" = type { [0 x i8] }
%"core::num::error::TryFromIntError" = type { {} }
%"core::result::Result<std::fs::File, std::io::error::Error>::Ok" = type { [1 x i32], i32 }
%"core::result::Result<std::fs::File, std::io::error::Error>::Err" = type { [1 x i64], %"std::io::error::Error" }
%"core::ptr::metadata::PtrRepr<[alloc::vec::Vec<_ProbeNode>]>" = type { [2 x i64] }
%"core::ptr::metadata::PtrRepr<[_ProbeNode]>" = type { [2 x i64] }
%"core::ptr::metadata::PtrRepr<[u8]>" = type { [2 x i64] }
%"core::ptr::metadata::PtrRepr<[&str]>" = type { [2 x i64] }
%"core::ptr::metadata::PtrRepr<[i32]>" = type { [2 x i64] }
%"core::option::Option<u32>::Some" = type { [1 x i32], i32 }
%"core::result::Result<i32, core::num::error::ParseIntError>" = type { i8, [7 x i8] }
%"core::option::Option<(usize, usize)>" = type { i64, [2 x i64] }
%"core::option::Option<(usize, usize)>::Some" = type { [1 x i64], { i64, i64 } }
%"core::str::pattern::SearchStep" = type { i64, [2 x i64] }
%"core::str::pattern::SearchStep::Match" = type { [1 x i64], i64, i64 }
%"core::hash::sip::SipHasher13" = type { %"core::hash::sip::Hasher<core::hash::sip::Sip13Rounds>" }
%"core::hash::sip::Hasher<core::hash::sip::Sip13Rounds>" = type { %"core::marker::PhantomData<core::hash::sip::Sip13Rounds>", i64, i64, i64, %"core::hash::sip::State", i64, i64 }
%"core::marker::PhantomData<core::hash::sip::Sip13Rounds>" = type {}
%"core::hash::sip::State" = type { i64, i64, i64, i64 }
%"std::collections::hash::map::DefaultHasher" = type { %"core::hash::sip::SipHasher13" }
%"core::option::Option<core::fmt::Arguments>" = type { {}*, [5 x i64] }
%"core::ops::control_flow::ControlFlow<core::result::Result<core::convert::Infallible, core::alloc::layout::LayoutError>, (core::alloc::layout::Layout, usize)>" = type { [1 x i64], i64, [1 x i64] }
%"core::ops::control_flow::ControlFlow<core::result::Result<core::convert::Infallible, core::alloc::layout::LayoutError>, (core::alloc::layout::Layout, usize)>::Continue" = type { { { i64, i64 }, i64 } }
%"core::ops::control_flow::ControlFlow<core::result::Result<core::convert::Infallible, core::alloc::layout::LayoutError>, usize>::Continue" = type { [1 x i64], i64 }
%"core::result::Result<(core::alloc::layout::Layout, usize), core::alloc::layout::LayoutError>::Ok" = type { { { i64, i64 }, i64 } }
%"core::result::Result<usize, hashbrown::TryReserveError>" = type { i64, [2 x i64] }
%"core::result::Result<usize, hashbrown::TryReserveError>::Ok" = type { [1 x i64], i64 }
%"core::result::Result<usize, hashbrown::TryReserveError>::Err" = type { [1 x i64], { i64, i64 } }
%"core::result::Result<usize, alloc::collections::TryReserveErrorKind>" = type { i64, [2 x i64] }
%"core::result::Result<usize, alloc::collections::TryReserveErrorKind>::Err" = type { [1 x i64], { i64, i64 } }
%"core::result::Result<usize, alloc::collections::TryReserveErrorKind>::Ok" = type { [1 x i64], i64 }
%"core::result::Result<usize, core::alloc::layout::LayoutError>::Err" = type { [8 x i8], %"core::alloc::layout::LayoutError" }
%"core::result::Result<usize, core::alloc::layout::LayoutError>::Ok" = type { [1 x i64], i64 }
%"core::result::Result<core::ptr::non_null::NonNull<u8>, core::alloc::AllocError>::Err" = type { %"core::alloc::AllocError" }
%"core::result::Result<&core::cell::Cell<(u64, u64)>, std::thread::local::AccessError>::Err" = type { %"std::thread::local::AccessError" }
%"core::option::Option<i32>::Some" = type { [1 x i32], i32 }
%"core::result::Result<i32, core::num::error::ParseIntError>::Ok" = type { [1 x i32], i32 }
%"core::result::Result<i32, core::num::error::ParseIntError>::Err" = type { [1 x i8], i8 }
%"core::result::Result<u64, core::num::error::TryFromIntError>::Ok" = type { [1 x i64], i64 }
%"core::result::Result<u32, core::num::error::TryFromIntError>::Ok" = type { [1 x i32], i32 }
%"core::result::Result<&str, core::str::error::Utf8Error>" = type { i64, [2 x i64] }
%"core::result::Result<&str, core::str::error::Utf8Error>::Ok" = type { [1 x i64], { [0 x i8]*, i64 } }
%"core::result::Result<&str, core::str::error::Utf8Error>::Err" = type { [1 x i64], %"core::str::error::Utf8Error" }
%"core::result::Result<core::ptr::non_null::NonNull<[u8]>, alloc::collections::TryReserveError>::Ok" = type { [1 x i64], { i8*, i64 } }
%"core::result::Result<core::alloc::layout::Layout, alloc::collections::TryReserveErrorKind>" = type { i64, [2 x i64] }
%"core::result::Result<core::alloc::layout::Layout, alloc::collections::TryReserveErrorKind>::Ok" = type { [1 x i64], { i64, i64 } }
%"core::result::Result<core::alloc::layout::Layout, alloc::collections::TryReserveErrorKind>::Err" = type { [1 x i64], { i64, i64 } }
%"core::result::Result<(), alloc::collections::TryReserveErrorKind>" = type { i64, [2 x i64] }
%"core::result::Result<(), alloc::collections::TryReserveErrorKind>::Ok" = type { [8 x i8], {} }
%"core::result::Result<(), alloc::collections::TryReserveErrorKind>::Err" = type { [1 x i64], { i64, i64 } }
%"core::result::Result<core::ptr::non_null::NonNull<u8>, ()>::Err" = type { {} }
%"core::option::Option<(core::ptr::non_null::NonNull<u8>, core::alloc::layout::Layout)>" = type { {}*, [2 x i64] }
%"core::ops::control_flow::ControlFlow<core::result::Result<core::convert::Infallible, alloc::collections::TryReserveError>>" = type { i64, [2 x i64] }
%"core::ops::control_flow::ControlFlow<core::result::Result<core::convert::Infallible, alloc::collections::TryReserveErrorKind>, core::alloc::layout::Layout>" = type { i64, [2 x i64] }
%"core::ops::control_flow::ControlFlow<core::result::Result<core::convert::Infallible, alloc::collections::TryReserveErrorKind>, core::alloc::layout::Layout>::Continue" = type { [1 x i64], { i64, i64 } }
%"core::ops::control_flow::ControlFlow<core::result::Result<core::convert::Infallible, alloc::collections::TryReserveErrorKind>, core::alloc::layout::Layout>::Break" = type { [1 x i64], { i64, i64 } }
%"core::ops::control_flow::ControlFlow<core::result::Result<core::convert::Infallible, alloc::collections::TryReserveError>>::Break" = type { [1 x i64], { i64, i64 } }
%"core::option::Option<(core::ptr::non_null::NonNull<u8>, core::alloc::layout::Layout)>::Some" = type { { i8*, { i64, i64 } } }
%"core::ops::control_flow::ControlFlow<core::result::Result<core::convert::Infallible, alloc::collections::TryReserveError>, core::ptr::non_null::NonNull<[u8]>>" = type { i64, [2 x i64] }
%"core::ops::control_flow::ControlFlow<core::result::Result<core::convert::Infallible, alloc::collections::TryReserveErrorKind>, usize>" = type { i64, [2 x i64] }
%"core::ops::control_flow::ControlFlow<core::result::Result<core::convert::Infallible, alloc::collections::TryReserveErrorKind>, usize>::Continue" = type { [1 x i64], i64 }
%"core::ops::control_flow::ControlFlow<core::result::Result<core::convert::Infallible, alloc::collections::TryReserveErrorKind>, usize>::Break" = type { [1 x i64], { i64, i64 } }
%"core::ops::control_flow::ControlFlow<core::result::Result<core::convert::Infallible, alloc::collections::TryReserveError>, core::ptr::non_null::NonNull<[u8]>>::Continue" = type { [1 x i64], { i8*, i64 } }
%"core::ops::control_flow::ControlFlow<core::result::Result<core::convert::Infallible, alloc::collections::TryReserveError>, core::ptr::non_null::NonNull<[u8]>>::Break" = type { [1 x i64], { i64, i64 } }
%"hashbrown::raw::RawIter<(std::thread::ThreadId, i32)>" = type { %"hashbrown::raw::RawIterRange<(std::thread::ThreadId, i32)>", i64 }
%"hashbrown::raw::RawIterRange<(std::thread::ThreadId, i32)>" = type { i64*, i8*, i8*, i16, [3 x i16] }
%"hashbrown::raw::RawIterHash<(std::thread::ThreadId, i32)>" = type { %"core::marker::PhantomData<(std::thread::ThreadId, i32)>", %"hashbrown::raw::RawIterHashInner<alloc::alloc::Global>" }
%"core::fmt::builders::DebugTuple" = type { %"core::fmt::Formatter"*, i64, i8, i8, [6 x i8] }
%"core::ops::control_flow::ControlFlow<core::option::Option<core::convert::Infallible>, usize>::Continue" = type { [1 x i64], i64 }
%"core::fmt::builders::DebugStruct" = type { %"core::fmt::Formatter"*, i8, i8, [6 x i8] }
%"core::ops::control_flow::ControlFlow<core::result::Result<core::convert::Infallible, hashbrown::TryReserveError>, hashbrown::scopeguard::ScopeGuard<hashbrown::raw::RawTableInner<alloc::alloc::Global>, [closure@hashbrown::raw::RawTableInner<alloc::alloc::Global>::prepare_resize::{closure#0}]>>" = type { i64, [6 x i64] }
%"core::result::Result<hashbrown::scopeguard::ScopeGuard<hashbrown::raw::RawTableInner<alloc::alloc::Global>, [closure@hashbrown::raw::RawTableInner<alloc::alloc::Global>::prepare_resize::{closure#0}]>, hashbrown::TryReserveError>::Ok" = type { [1 x i64], %"hashbrown::scopeguard::ScopeGuard<hashbrown::raw::RawTableInner<alloc::alloc::Global>, [closure@hashbrown::raw::RawTableInner<alloc::alloc::Global>::prepare_resize::{closure#0}]>" }
%"core::ops::control_flow::ControlFlow<core::result::Result<core::convert::Infallible, hashbrown::TryReserveError>, hashbrown::scopeguard::ScopeGuard<hashbrown::raw::RawTableInner<alloc::alloc::Global>, [closure@hashbrown::raw::RawTableInner<alloc::alloc::Global>::prepare_resize::{closure#0}]>>::Continue" = type { [1 x i64], %"hashbrown::scopeguard::ScopeGuard<hashbrown::raw::RawTableInner<alloc::alloc::Global>, [closure@hashbrown::raw::RawTableInner<alloc::alloc::Global>::prepare_resize::{closure#0}]>" }
%"core::ops::control_flow::ControlFlow<core::result::Result<core::convert::Infallible, hashbrown::TryReserveError>, hashbrown::scopeguard::ScopeGuard<hashbrown::raw::RawTableInner<alloc::alloc::Global>, [closure@hashbrown::raw::RawTableInner<alloc::alloc::Global>::prepare_resize::{closure#0}]>>::Break" = type { [1 x i64], { i64, i64 } }
%"core::result::Result<core::convert::Infallible, core::alloc::AllocError>::Err" = type { %"core::alloc::AllocError" }
%"core::ops::control_flow::ControlFlow<core::result::Result<core::convert::Infallible, core::alloc::AllocError>, core::ptr::non_null::NonNull<[u8]>>::Break" = type { %"core::result::Result<core::convert::Infallible, core::alloc::AllocError>::Err" }
%"core::ops::control_flow::ControlFlow<core::result::Result<core::convert::Infallible, hashbrown::TryReserveError>, hashbrown::raw::RawTableInner<alloc::alloc::Global>>" = type { i64, [4 x i64] }
%"core::result::Result<hashbrown::raw::RawTableInner<alloc::alloc::Global>, hashbrown::TryReserveError>::Ok" = type { [1 x i64], %"hashbrown::raw::RawTableInner<alloc::alloc::Global>" }
%"core::ops::control_flow::ControlFlow<core::result::Result<core::convert::Infallible, hashbrown::TryReserveError>, hashbrown::raw::RawTableInner<alloc::alloc::Global>>::Continue" = type { [1 x i64], %"hashbrown::raw::RawTableInner<alloc::alloc::Global>" }
%"core::ops::control_flow::ControlFlow<core::result::Result<core::convert::Infallible, hashbrown::TryReserveError>, hashbrown::raw::RawTableInner<alloc::alloc::Global>>::Break" = type { [1 x i64], { i64, i64 } }
%"core::result::Result<core::convert::Infallible, core::alloc::layout::LayoutError>::Err" = type { %"core::alloc::layout::LayoutError" }
%"core::ops::control_flow::ControlFlow<core::result::Result<core::convert::Infallible, core::alloc::layout::LayoutError>, (core::alloc::layout::Layout, usize)>::Break" = type { %"core::result::Result<core::convert::Infallible, core::alloc::layout::LayoutError>::Err" }
%"core::ops::control_flow::ControlFlow<core::result::Result<core::convert::Infallible, core::alloc::AllocError>, core::ptr::non_null::NonNull<u8>>::Break" = type { %"core::result::Result<core::convert::Infallible, core::alloc::AllocError>::Err" }
%"core::result::Result<core::convert::Infallible, std::thread::local::AccessError>::Err" = type { %"std::thread::local::AccessError" }
%"core::ops::control_flow::ControlFlow<core::result::Result<core::convert::Infallible, std::thread::local::AccessError>, &core::cell::Cell<(u64, u64)>>::Break" = type { %"core::result::Result<core::convert::Infallible, std::thread::local::AccessError>::Err" }
%"core::ops::control_flow::ControlFlow<core::result::Result<core::convert::Infallible, alloc::collections::TryReserveError>>::Continue" = type { [8 x i8], {} }
%"core::ops::control_flow::ControlFlow<core::result::Result<core::convert::Infallible, core::alloc::layout::LayoutError>, usize>::Break" = type { [8 x i8], %"core::result::Result<core::convert::Infallible, core::alloc::layout::LayoutError>::Err" }
%"core::ops::control_flow::ControlFlow<core::result::Result<core::convert::Infallible, hashbrown::TryReserveError>, usize>" = type { i64, [2 x i64] }
%"core::ops::control_flow::ControlFlow<core::result::Result<core::convert::Infallible, hashbrown::TryReserveError>, usize>::Continue" = type { [1 x i64], i64 }
%"core::ops::control_flow::ControlFlow<core::result::Result<core::convert::Infallible, hashbrown::TryReserveError>, usize>::Break" = type { [1 x i64], { i64, i64 } }
%"core::option::Option<(core::alloc::layout::Layout, usize)>" = type { [1 x i64], i64, [1 x i64] }
%"[closure@hashbrown::raw::RawTable<(std::thread::ThreadId, i32)>::rehash_in_place<[closure@hashbrown::map::make_hasher<std::thread::ThreadId, std::thread::ThreadId, i32, std::collections::hash::map::RandomState>::{closure#0}]>::{closure#0}]" = type {}
%"core::mem::manually_drop::ManuallyDrop<alloc::vec::Vec<&str>>" = type { %"alloc::vec::Vec<&str>" }
%"core::ops::control_flow::ControlFlow<&str>::Continue" = type { {} }
%"core::ops::control_flow::ControlFlow<core::ops::control_flow::ControlFlow<&str, core::convert::Infallible>>::Continue" = type { {} }
%"core::str::pattern::SearchStep::Reject" = type { [1 x i64], i64, i64 }
%"core::option::Option<(core::alloc::layout::Layout, usize)>::Some" = type { { { i64, i64 }, i64 } }
%"std::ffi::c_str::CStr" = type { [0 x i8] }
%"core::option::Option<*const u64>::Some" = type { [1 x i64], i64* }
%"unwind::libunwind::_Unwind_Exception" = type { i64, void (i32, %"unwind::libunwind::_Unwind_Exception"*)*, [6 x i64] }
%"unwind::libunwind::_Unwind_Context" = type { [0 x i8] }

@alloc466 = private unnamed_addr constant <{ [78 x i8] }> <{ [78 x i8] c"/build/rustc-7HAmMa/rustc-1.57.0+dfsg1+llvm/library/alloc/src/vec/into_iter.rs" }>, align 1
@alloc467 = private unnamed_addr constant <{ i8*, [16 x i8] }> <{ i8* getelementptr inbounds (<{ [78 x i8] }>, <{ [78 x i8] }>* @alloc466, i32 0, i32 0, i32 0), [16 x i8] c"N\00\00\00\00\00\00\00\91\00\00\00\1B\00\00\00" }>, align 8
@alloc129 = private unnamed_addr constant <{ i8*, [0 x i8] }> <{ i8* bitcast (i64* ()* @_ZN3std11collections4hash3map11RandomState3new4KEYS7__getit17h46866a828f9fcf12E to i8*), [0 x i8] zeroinitializer }>, align 8
@_ZN3std11collections4hash3map11RandomState3new4KEYS7__getit5__KEY17h99907fa180e5819cE = external thread_local global %"std::thread::local::fast::Key<core::cell::Cell<(u64, u64)>>"
@alloc92 = private unnamed_addr constant <{ [1 x i8] }> <{ [1 x i8] c"#" }>, align 1
@alloc485 = private unnamed_addr constant <{ [69 x i8] }> <{ [69 x i8] c"/build/rustc-7HAmMa/rustc-1.57.0+dfsg1+llvm/library/std/src/io/mod.rs" }>, align 1
@alloc486 = private unnamed_addr constant <{ i8*, [16 x i8] }> <{ i8* getelementptr inbounds (<{ [69 x i8] }>, <{ [69 x i8] }>* @alloc485, i32 0, i32 0, i32 0), [16 x i8] c"E\00\00\00\00\00\00\00\1B\06\00\00!\00\00\00" }>, align 8
@alloc89 = private unnamed_addr constant <{ [28 x i8] }> <{ [28 x i8] c"failed to write whole buffer" }>, align 1
@alloc90 = private unnamed_addr constant <{ i8*, [8 x i8] }> <{ i8* getelementptr inbounds (<{ [28 x i8] }>, <{ [28 x i8] }>* @alloc89, i32 0, i32 0, i32 0), [8 x i8] c"\1C\00\00\00\00\00\00\00" }>, align 8
@vtable.0 = private unnamed_addr constant <{ i8*, [16 x i8], i8*, i8*, i8*, [0 x i8] }> <{ i8* bitcast (void (%"std::io::Write::write_fmt::Adapter<std::fs::File>"*)* @"_ZN4core3ptr76drop_in_place$LT$std..io..Write..write_fmt..Adapter$LT$std..fs..File$GT$$GT$17hcdc823dc7b0aab2cE" to i8*), [16 x i8] c"\18\00\00\00\00\00\00\00\08\00\00\00\00\00\00\00", i8* bitcast (i1 (%"std::io::Write::write_fmt::Adapter<std::fs::File>"*, [0 x i8]*, i64)* @"_ZN80_$LT$std..io..Write..write_fmt..Adapter$LT$T$GT$$u20$as$u20$core..fmt..Write$GT$9write_str17h2b21fc3b5653bd2aE" to i8*), i8* bitcast (i1 (%"std::io::Write::write_fmt::Adapter<std::fs::File>"*, i32)* @_ZN4core3fmt5Write10write_char17h1743d30a643fa6daE to i8*), i8* bitcast (i1 (%"std::io::Write::write_fmt::Adapter<std::fs::File>"*, %"core::fmt::Arguments"*)* @_ZN4core3fmt5Write9write_fmt17h01cd695cc9e778c4E to i8*), [0 x i8] zeroinitializer }>, align 8
@alloc86 = private unnamed_addr constant <{ [15 x i8] }> <{ [15 x i8] c"formatter error" }>, align 1
@alloc87 = private unnamed_addr constant <{ i8*, [8 x i8] }> <{ i8* getelementptr inbounds (<{ [15 x i8] }>, <{ [15 x i8] }>* @alloc86, i32 0, i32 0, i32 0), [8 x i8] c"\0F\00\00\00\00\00\00\00" }>, align 8
@alloc492 = private unnamed_addr constant <{ [36 x i8] }> <{ [36 x i8] c"rwlock maximum reader count exceeded" }>, align 1
@alloc499 = private unnamed_addr constant <{ [78 x i8] }> <{ [78 x i8] c"/build/rustc-7HAmMa/rustc-1.57.0+dfsg1+llvm/library/std/src/sys/unix/rwlock.rs" }>, align 1
@alloc494 = private unnamed_addr constant <{ i8*, [16 x i8] }> <{ i8* getelementptr inbounds (<{ [78 x i8] }>, <{ [78 x i8] }>* @alloc499, i32 0, i32 0, i32 0), [16 x i8] c"N\00\00\00\00\00\00\00)\00\00\00\0D\00\00\00" }>, align 8
@alloc495 = private unnamed_addr constant <{ [41 x i8] }> <{ [41 x i8] c"rwlock read lock would result in deadlock" }>, align 1
@alloc497 = private unnamed_addr constant <{ i8*, [16 x i8] }> <{ i8* getelementptr inbounds (<{ [78 x i8] }>, <{ [78 x i8] }>* @alloc499, i32 0, i32 0, i32 0), [16 x i8] c"N\00\00\00\00\00\00\001\00\00\00\0D\00\00\00" }>, align 8
@alloc498 = private unnamed_addr constant <{ [42 x i8] }> <{ [42 x i8] c"rwlock write lock would result in deadlock" }>, align 1
@alloc500 = private unnamed_addr constant <{ i8*, [16 x i8] }> <{ i8* getelementptr inbounds (<{ [78 x i8] }>, <{ [78 x i8] }>* @alloc499, i32 0, i32 0, i32 0), [16 x i8] c"N\00\00\00\00\00\00\00X\00\00\00\0D\00\00\00" }>, align 8
@alloc501 = private unnamed_addr constant <{ [70 x i8] }> <{ [70 x i8] c"cannot access a Thread Local Storage value during or after destruction" }>, align 1
@alloc502 = private unnamed_addr constant <{ [75 x i8] }> <{ [75 x i8] c"/build/rustc-7HAmMa/rustc-1.57.0+dfsg1+llvm/library/std/src/thread/local.rs" }>, align 1
@alloc503 = private unnamed_addr constant <{ i8*, [16 x i8] }> <{ i8* getelementptr inbounds (<{ [75 x i8] }>, <{ [75 x i8] }>* @alloc502, i32 0, i32 0, i32 0), [16 x i8] c"K\00\00\00\00\00\00\00w\01\00\00\1A\00\00\00" }>, align 8
@vtable.1 = private unnamed_addr constant <{ i8*, [16 x i8], i8*, i8*, [0 x i8] }> <{ i8* bitcast (void ({ i8*, i64 }*)* @"_ZN4core3ptr77drop_in_place$LT$std..panicking..begin_panic..PanicPayload$LT$$RF$str$GT$$GT$17hacb5b8cb32d3adc8E" to i8*), [16 x i8] c"\10\00\00\00\00\00\00\00\08\00\00\00\00\00\00\00", i8* bitcast ({ {}*, [3 x i64]* } ({ i8*, i64 }*)* @"_ZN91_$LT$std..panicking..begin_panic..PanicPayload$LT$A$GT$$u20$as$u20$core..panic..BoxMeUp$GT$8take_box17hec8e73c462ea9b75E" to i8*), i8* bitcast ({ {}*, [3 x i64]* } ({ i8*, i64 }*)* @"_ZN91_$LT$std..panicking..begin_panic..PanicPayload$LT$A$GT$$u20$as$u20$core..panic..BoxMeUp$GT$3get17h277fbd8270d4e46cE" to i8*), [0 x i8] zeroinitializer }>, align 8
@_ZN3std9panicking11panic_count18GLOBAL_PANIC_COUNT17h9f4123c916e0c58dE = external global %"core::sync::atomic::AtomicUsize"
@vtable.2 = private unnamed_addr constant <{ i8*, [16 x i8], i8*, i8*, i8*, [0 x i8] }> <{ i8* bitcast (void (%"std::io::Write::write_fmt::Adapter<std::fs::File>"**)* @"_ZN4core3ptr88drop_in_place$LT$$RF$mut$u20$std..io..Write..write_fmt..Adapter$LT$std..fs..File$GT$$GT$17h9a475963423fe632E" to i8*), [16 x i8] c"\08\00\00\00\00\00\00\00\08\00\00\00\00\00\00\00", i8* bitcast (i1 (%"std::io::Write::write_fmt::Adapter<std::fs::File>"**, [0 x i8]*, i64)* @"_ZN50_$LT$$RF$mut$u20$W$u20$as$u20$core..fmt..Write$GT$9write_str17hba729fff3869aee0E" to i8*), i8* bitcast (i1 (%"std::io::Write::write_fmt::Adapter<std::fs::File>"**, i32)* @"_ZN50_$LT$$RF$mut$u20$W$u20$as$u20$core..fmt..Write$GT$10write_char17h2fe8ac81821fc6afE" to i8*), i8* bitcast (i1 (%"std::io::Write::write_fmt::Adapter<std::fs::File>"**, %"core::fmt::Arguments"*)* @"_ZN50_$LT$$RF$mut$u20$W$u20$as$u20$core..fmt..Write$GT$9write_fmt17h482e9ea236e0f641E" to i8*), [0 x i8] zeroinitializer }>, align 8
@alloc513 = private unnamed_addr constant <{ [12 x i8] }> <{ [12 x i8] c"invalid args" }>, align 1
@alloc514 = private unnamed_addr constant <{ [71 x i8] }> <{ [71 x i8] c"/build/rustc-7HAmMa/rustc-1.57.0+dfsg1+llvm/library/core/src/fmt/mod.rs" }>, align 1
@alloc515 = private unnamed_addr constant <{ i8*, [16 x i8] }> <{ i8* getelementptr inbounds (<{ [71 x i8] }>, <{ [71 x i8] }>* @alloc514, i32 0, i32 0, i32 0), [16 x i8] c"G\00\00\00\00\00\00\00k\01\00\00\0D\00\00\00" }>, align 8
@str.3 = internal constant [58 x i8] c"attempted to zero-initialize type `&str`, which is invalid"
@alloc516 = private unnamed_addr constant <{ [71 x i8] }> <{ [71 x i8] c"/build/rustc-7HAmMa/rustc-1.57.0+dfsg1+llvm/library/core/src/num/mod.rs" }>, align 1
@alloc517 = private unnamed_addr constant <{ i8*, [16 x i8] }> <{ i8* getelementptr inbounds (<{ [71 x i8] }>, <{ [71 x i8] }>* @alloc516, i32 0, i32 0, i32 0), [16 x i8] c"G\00\00\00\00\00\00\00S\03\00\00\05\00\00\00" }>, align 8
@str.4 = internal constant [28 x i8] c"attempt to add with overflow"
@alloc518 = private unnamed_addr constant <{ [71 x i8] }> <{ [71 x i8] c"/build/rustc-7HAmMa/rustc-1.57.0+dfsg1+llvm/library/core/src/ptr/mod.rs" }>, align 1
@alloc519 = private unnamed_addr constant <{ i8*, [16 x i8] }> <{ i8* getelementptr inbounds (<{ [71 x i8] }>, <{ [71 x i8] }>* @alloc518, i32 0, i32 0, i32 0), [16 x i8] c"G\00\00\00\00\00\00\00\BC\02\00\00\0D\00\00\00" }>, align 8
@alloc520 = private unnamed_addr constant <{ [73 x i8] }> <{ [73 x i8] c"assertion failed: 0 < pointee_size && pointee_size <= isize::MAX as usize" }>, align 1
@alloc521 = private unnamed_addr constant <{ [77 x i8] }> <{ [77 x i8] c"/build/rustc-7HAmMa/rustc-1.57.0+dfsg1+llvm/library/core/src/ptr/const_ptr.rs" }>, align 1
@alloc522 = private unnamed_addr constant <{ i8*, [16 x i8] }> <{ i8* getelementptr inbounds (<{ [77 x i8] }>, <{ [77 x i8] }>* @alloc521, i32 0, i32 0, i32 0), [16 x i8] c"M\00\00\00\00\00\00\00\85\01\00\00\09\00\00\00" }>, align 8
@alloc527 = private unnamed_addr constant <{ [76 x i8] }> <{ [76 x i8] c"/build/rustc-7HAmMa/rustc-1.57.0+dfsg1+llvm/library/core/src/char/methods.rs" }>, align 1
@alloc524 = private unnamed_addr constant <{ i8*, [16 x i8] }> <{ i8* getelementptr inbounds (<{ [76 x i8] }>, <{ [76 x i8] }>* @alloc527, i32 0, i32 0, i32 0), [16 x i8] c"L\00\00\00\00\00\00\00v\06\00\00\16\00\00\00" }>, align 8
@alloc526 = private unnamed_addr constant <{ i8*, [16 x i8] }> <{ i8* getelementptr inbounds (<{ [76 x i8] }>, <{ [76 x i8] }>* @alloc527, i32 0, i32 0, i32 0), [16 x i8] c"L\00\00\00\00\00\00\00\90\06\00\00\0A\00\00\00" }>, align 8
@alloc94 = private unnamed_addr constant <{ [18 x i8] }> <{ [18 x i8] c"encode_utf8: need " }>, align 1
@alloc96 = private unnamed_addr constant <{ [19 x i8] }> <{ [19 x i8] c" bytes to encode U+" }>, align 1
@alloc97 = private unnamed_addr constant <{ [21 x i8] }> <{ [21 x i8] c", but the buffer has " }>, align 1
@alloc95 = private unnamed_addr constant <{ i8*, [8 x i8], i8*, [8 x i8], i8*, [8 x i8] }> <{ i8* getelementptr inbounds (<{ [18 x i8] }>, <{ [18 x i8] }>* @alloc94, i32 0, i32 0, i32 0), [8 x i8] c"\12\00\00\00\00\00\00\00", i8* getelementptr inbounds (<{ [19 x i8] }>, <{ [19 x i8] }>* @alloc96, i32 0, i32 0, i32 0), [8 x i8] c"\13\00\00\00\00\00\00\00", i8* getelementptr inbounds (<{ [21 x i8] }>, <{ [21 x i8] }>* @alloc97, i32 0, i32 0, i32 0), [8 x i8] c"\15\00\00\00\00\00\00\00" }>, align 8
@alloc528 = private unnamed_addr constant <{ i8*, [16 x i8] }> <{ i8* getelementptr inbounds (<{ [76 x i8] }>, <{ [76 x i8] }>* @alloc527, i32 0, i32 0, i32 0), [16 x i8] c"L\00\00\00\00\00\00\00\89\06\00\00\0E\00\00\00" }>, align 8
@alloc529 = private unnamed_addr constant <{ [86 x i8] }> <{ [86 x i8] c"/build/rustc-7HAmMa/rustc-1.57.0+dfsg1+llvm/library/core/src/iter/traits/exact_size.rs" }>, align 1
@alloc530 = private unnamed_addr constant <{ i8*, [16 x i8] }> <{ i8* getelementptr inbounds (<{ [86 x i8] }>, <{ [86 x i8] }>* @alloc529, i32 0, i32 0, i32 0), [16 x i8] c"V\00\00\00\00\00\00\00l\00\00\00\09\00\00\00" }>, align 8
@0 = private unnamed_addr constant <{ [16 x i8] }> zeroinitializer, align 8
@alloc531 = private unnamed_addr constant <{ [27 x i8] }> <{ [27 x i8] c"assertion failed: step != 0" }>, align 1
@alloc532 = private unnamed_addr constant <{ [85 x i8] }> <{ [85 x i8] c"/build/rustc-7HAmMa/rustc-1.57.0+dfsg1+llvm/library/core/src/iter/adapters/step_by.rs" }>, align 1
@alloc533 = private unnamed_addr constant <{ i8*, [16 x i8] }> <{ i8* getelementptr inbounds (<{ [85 x i8] }>, <{ [85 x i8] }>* @alloc532, i32 0, i32 0, i32 0), [16 x i8] c"U\00\00\00\00\00\00\00\15\00\00\00\09\00\00\00" }>, align 8
@alloc540 = private unnamed_addr constant <{ [49 x i8] }> <{ [49 x i8] c"there is no such thing as an acquire/release load" }>, align 1
@alloc549 = private unnamed_addr constant <{ [75 x i8] }> <{ [75 x i8] c"/build/rustc-7HAmMa/rustc-1.57.0+dfsg1+llvm/library/core/src/sync/atomic.rs" }>, align 1
@alloc536 = private unnamed_addr constant <{ i8*, [16 x i8] }> <{ i8* getelementptr inbounds (<{ [75 x i8] }>, <{ [75 x i8] }>* @alloc549, i32 0, i32 0, i32 0), [16 x i8] c"K\00\00\00\00\00\00\00<\09\00\00\17\00\00\00" }>, align 8
@alloc541 = private unnamed_addr constant <{ [40 x i8] }> <{ [40 x i8] c"there is no such thing as a release load" }>, align 1
@alloc539 = private unnamed_addr constant <{ i8*, [16 x i8] }> <{ i8* getelementptr inbounds (<{ [75 x i8] }>, <{ [75 x i8] }>* @alloc549, i32 0, i32 0, i32 0), [16 x i8] c"K\00\00\00\00\00\00\00;\09\00\00\18\00\00\00" }>, align 8
@alloc542 = private unnamed_addr constant <{ [50 x i8] }> <{ [50 x i8] c"there is no such thing as an acquire/release store" }>, align 1
@alloc544 = private unnamed_addr constant <{ i8*, [16 x i8] }> <{ i8* getelementptr inbounds (<{ [75 x i8] }>, <{ [75 x i8] }>* @alloc549, i32 0, i32 0, i32 0), [16 x i8] c"K\00\00\00\00\00\00\00.\09\00\00\17\00\00\00" }>, align 8
@alloc545 = private unnamed_addr constant <{ [42 x i8] }> <{ [42 x i8] c"there is no such thing as an acquire store" }>, align 1
@alloc547 = private unnamed_addr constant <{ i8*, [16 x i8] }> <{ i8* getelementptr inbounds (<{ [75 x i8] }>, <{ [75 x i8] }>* @alloc549, i32 0, i32 0, i32 0), [16 x i8] c"K\00\00\00\00\00\00\00-\09\00\00\18\00\00\00" }>, align 8
@alloc548 = private unnamed_addr constant <{ [41 x i8] }> <{ [41 x i8] c"there is no such thing as a relaxed fence" }>, align 1
@alloc550 = private unnamed_addr constant <{ i8*, [16 x i8] }> <{ i8* getelementptr inbounds (<{ [75 x i8] }>, <{ [75 x i8] }>* @alloc549, i32 0, i32 0, i32 0), [16 x i8] c"K\00\00\00\00\00\00\00{\0A\00\00\18\00\00\00" }>, align 8
@alloc551 = private unnamed_addr constant <{ [76 x i8] }> <{ [76 x i8] c"/build/rustc-7HAmMa/rustc-1.57.0+dfsg1+llvm/library/core/src/alloc/layout.rs" }>, align 1
@alloc552 = private unnamed_addr constant <{ i8*, [16 x i8] }> <{ i8* getelementptr inbounds (<{ [76 x i8] }>, <{ [76 x i8] }>* @alloc551, i32 0, i32 0, i32 0), [16 x i8] c"L\00\00\00\00\00\00\00\18\01\00\009\00\00\00" }>, align 8
@alloc553 = private unnamed_addr constant <{ [35 x i8] }> <{ [35 x i8] c"assertion failed: mid <= self.len()" }>, align 1
@alloc554 = private unnamed_addr constant <{ [73 x i8] }> <{ [73 x i8] c"/build/rustc-7HAmMa/rustc-1.57.0+dfsg1+llvm/library/core/src/slice/mod.rs" }>, align 1
@alloc555 = private unnamed_addr constant <{ i8*, [16 x i8] }> <{ i8* getelementptr inbounds (<{ [73 x i8] }>, <{ [73 x i8] }>* @alloc554, i32 0, i32 0, i32 0), [16 x i8] c"I\00\00\00\00\00\00\00\1F\06\00\00\09\00\00\00" }>, align 8
@alloc557 = private unnamed_addr constant <{ [43 x i8] }> <{ [43 x i8] c"called `Option::unwrap()` on a `None` value" }>, align 1
@vtable.5 = private unnamed_addr constant <{ i8*, [16 x i8], i8*, [0 x i8] }> <{ i8* bitcast (void (%"std::io::error::Error"*)* @"_ZN4core3ptr42drop_in_place$LT$std..io..error..Error$GT$17h211456880990b21cE" to i8*), [16 x i8] c"\10\00\00\00\00\00\00\00\08\00\00\00\00\00\00\00", i8* bitcast (i1 (%"std::io::error::Error"*, %"core::fmt::Formatter"*)* @"_ZN58_$LT$std..io..error..Error$u20$as$u20$core..fmt..Debug$GT$3fmt17h827e52fb911077aeE" to i8*), [0 x i8] zeroinitializer }>, align 8
@vtable.6 = private unnamed_addr constant <{ i8*, [16 x i8], i8*, [0 x i8] }> <{ i8* bitcast (void (%"std::thread::local::AccessError"*)* @"_ZN4core3ptr52drop_in_place$LT$std..thread..local..AccessError$GT$17ha95bfb5dce17b15cE" to i8*), [16 x i8] c"\00\00\00\00\00\00\00\00\01\00\00\00\00\00\00\00", i8* bitcast (i1 (%"std::thread::local::AccessError"*, %"core::fmt::Formatter"*)* @"_ZN68_$LT$std..thread..local..AccessError$u20$as$u20$core..fmt..Debug$GT$3fmt17h4742560aef5d22b8E" to i8*), [0 x i8] zeroinitializer }>, align 8
@alloc610 = private unnamed_addr constant <{ [43 x i8] }> <{ [43 x i8] c"called `Result::unwrap()` on an `Err` value" }>, align 1
@vtable.7 = private unnamed_addr constant <{ i8*, [16 x i8], i8*, [0 x i8] }> <{ i8* bitcast (void (i64**)* @"_ZN4core3ptr104drop_in_place$LT$std..sync..poison..PoisonError$LT$std..sync..rwlock..RwLockReadGuard$LT$i32$GT$$GT$$GT$17had4b19d075e98758E" to i8*), [16 x i8] c"\08\00\00\00\00\00\00\00\08\00\00\00\00\00\00\00", i8* bitcast (i1 (i64**, %"core::fmt::Formatter"*)* @"_ZN76_$LT$std..sync..poison..PoisonError$LT$T$GT$$u20$as$u20$core..fmt..Debug$GT$3fmt17h37f9792248c369ecE" to i8*), [0 x i8] zeroinitializer }>, align 8
@vtable.8 = private unnamed_addr constant <{ i8*, [16 x i8], i8*, [0 x i8] }> <{ i8* bitcast (void (i8*)* @"_ZN4core3ptr52drop_in_place$LT$core..num..error..ParseIntError$GT$17h6048539c6b3dd394E" to i8*), [16 x i8] c"\01\00\00\00\00\00\00\00\01\00\00\00\00\00\00\00", i8* bitcast (i1 (i8*, %"core::fmt::Formatter"*)* @"_ZN68_$LT$core..num..error..ParseIntError$u20$as$u20$core..fmt..Debug$GT$3fmt17he685b773c162151eE" to i8*), [0 x i8] zeroinitializer }>, align 8
@vtable.9 = private unnamed_addr constant <{ i8*, [16 x i8], i8*, [0 x i8] }> <{ i8* bitcast (void ({ i64*, i8 }*)* @"_ZN4core3ptr166drop_in_place$LT$std..sync..poison..PoisonError$LT$std..sync..mutex..MutexGuard$LT$std..collections..hash..map..HashMap$LT$std..thread..ThreadId$C$i32$GT$$GT$$GT$$GT$17h7bad0bc74b47c879E" to i8*), [16 x i8] c"\10\00\00\00\00\00\00\00\08\00\00\00\00\00\00\00", i8* bitcast (i1 ({ i64*, i8 }*, %"core::fmt::Formatter"*)* @"_ZN76_$LT$std..sync..poison..PoisonError$LT$T$GT$$u20$as$u20$core..fmt..Debug$GT$3fmt17hdf07e3df7689eddcE" to i8*), [0 x i8] zeroinitializer }>, align 8
@vtable.a = private unnamed_addr constant <{ i8*, [16 x i8], i8*, [0 x i8] }> <{ i8* bitcast (void ({ i64*, i8 }*)* @"_ZN4core3ptr145drop_in_place$LT$std..sync..poison..PoisonError$LT$std..sync..mutex..MutexGuard$LT$alloc..collections..vec_deque..VecDeque$LT$i32$GT$$GT$$GT$$GT$17h3397bb728e8477b1E" to i8*), [16 x i8] c"\10\00\00\00\00\00\00\00\08\00\00\00\00\00\00\00", i8* bitcast (i1 ({ i64*, i8 }*, %"core::fmt::Formatter"*)* @"_ZN76_$LT$std..sync..poison..PoisonError$LT$T$GT$$u20$as$u20$core..fmt..Debug$GT$3fmt17h2c6b02a53225da62E" to i8*), [0 x i8] zeroinitializer }>, align 8
@vtable.b = private unnamed_addr constant <{ i8*, [16 x i8], i8*, [0 x i8] }> <{ i8* bitcast (void (%"core::num::error::TryFromIntError"*)* @"_ZN4core3ptr54drop_in_place$LT$core..num..error..TryFromIntError$GT$17h13e63c3b0605de1eE" to i8*), [16 x i8] c"\00\00\00\00\00\00\00\00\01\00\00\00\00\00\00\00", i8* bitcast (i1 (%"core::num::error::TryFromIntError"*, %"core::fmt::Formatter"*)* @"_ZN70_$LT$core..num..error..TryFromIntError$u20$as$u20$core..fmt..Debug$GT$3fmt17h3e45209909fb04c2E" to i8*), [0 x i8] zeroinitializer }>, align 8
@vtable.c = private unnamed_addr constant <{ i8*, [16 x i8], i8*, [0 x i8] }> <{ i8* bitcast (void ({ i64*, i8 }*)* @"_ZN4core3ptr158drop_in_place$LT$std..sync..poison..PoisonError$LT$std..sync..mutex..MutexGuard$LT$alloc..vec..Vec$LT$alloc..vec..Vec$LT$probe.._ProbeNode$GT$$GT$$GT$$GT$$GT$17haf22541e72c1e95fE" to i8*), [16 x i8] c"\10\00\00\00\00\00\00\00\08\00\00\00\00\00\00\00", i8* bitcast (i1 ({ i64*, i8 }*, %"core::fmt::Formatter"*)* @"_ZN76_$LT$std..sync..poison..PoisonError$LT$T$GT$$u20$as$u20$core..fmt..Debug$GT$3fmt17hba969beb5962690eE" to i8*), [0 x i8] zeroinitializer }>, align 8
@vtable.d = private unnamed_addr constant <{ i8*, [16 x i8], i8*, [0 x i8] }> <{ i8* bitcast (void ({ i64*, i8 }*)* @"_ZN4core3ptr105drop_in_place$LT$std..sync..poison..PoisonError$LT$std..sync..rwlock..RwLockWriteGuard$LT$i32$GT$$GT$$GT$17had3e1b0792cd9ffbE" to i8*), [16 x i8] c"\10\00\00\00\00\00\00\00\08\00\00\00\00\00\00\00", i8* bitcast (i1 ({ i64*, i8 }*, %"core::fmt::Formatter"*)* @"_ZN76_$LT$std..sync..poison..PoisonError$LT$T$GT$$u20$as$u20$core..fmt..Debug$GT$3fmt17h4aba724f914b752eE" to i8*), [0 x i8] zeroinitializer }>, align 8
@vtable.e = private unnamed_addr constant <{ i8*, [16 x i8], i8*, [0 x i8] }> <{ i8* bitcast (void (%"core::alloc::layout::LayoutError"*)* @"_ZN4core3ptr53drop_in_place$LT$core..alloc..layout..LayoutError$GT$17h73173610c2420e90E" to i8*), [16 x i8] c"\00\00\00\00\00\00\00\00\01\00\00\00\00\00\00\00", i8* bitcast (i1 (%"core::alloc::layout::LayoutError"*, %"core::fmt::Formatter"*)* @"_ZN69_$LT$core..alloc..layout..LayoutError$u20$as$u20$core..fmt..Debug$GT$3fmt17h18b08294eb593cf2E" to i8*), [0 x i8] zeroinitializer }>, align 8
@vtable.f = private unnamed_addr constant <{ i8*, [16 x i8], i8*, [0 x i8] }> <{ i8* bitcast (void ({ i64*, i8 }*)* @"_ZN4core3ptr103drop_in_place$LT$std..sync..poison..PoisonError$LT$std..sync..mutex..MutexGuard$LT$$LP$$RP$$GT$$GT$$GT$17h72d26074c19c85aeE" to i8*), [16 x i8] c"\10\00\00\00\00\00\00\00\08\00\00\00\00\00\00\00", i8* bitcast (i1 ({ i64*, i8 }*, %"core::fmt::Formatter"*)* @"_ZN76_$LT$std..sync..poison..PoisonError$LT$T$GT$$u20$as$u20$core..fmt..Debug$GT$3fmt17hc595086de48b39d5E" to i8*), [0 x i8] zeroinitializer }>, align 8
@vtable.g = private unnamed_addr constant <{ i8*, [16 x i8], i8*, [0 x i8] }> <{ i8* bitcast (void ({ i64*, i8 }*)* @"_ZN4core3ptr108drop_in_place$LT$std..sync..poison..PoisonError$LT$std..sync..mutex..MutexGuard$LT$std..fs..File$GT$$GT$$GT$17h1abf9ea40254334aE" to i8*), [16 x i8] c"\10\00\00\00\00\00\00\00\08\00\00\00\00\00\00\00", i8* bitcast (i1 ({ i64*, i8 }*, %"core::fmt::Formatter"*)* @"_ZN76_$LT$std..sync..poison..PoisonError$LT$T$GT$$u20$as$u20$core..fmt..Debug$GT$3fmt17h2c54a0bc512714ccE" to i8*), [0 x i8] zeroinitializer }>, align 8
@vtable.h = private unnamed_addr constant <{ i8*, [16 x i8], i8*, [0 x i8] }> <{ i8* bitcast (void ({ i64*, i8 }*)* @"_ZN4core3ptr98drop_in_place$LT$std..sync..poison..PoisonError$LT$std..sync..mutex..MutexGuard$LT$i32$GT$$GT$$GT$17hd5d867184074250cE" to i8*), [16 x i8] c"\10\00\00\00\00\00\00\00\08\00\00\00\00\00\00\00", i8* bitcast (i1 ({ i64*, i8 }*, %"core::fmt::Formatter"*)* @"_ZN76_$LT$std..sync..poison..PoisonError$LT$T$GT$$u20$as$u20$core..fmt..Debug$GT$3fmt17hfd44579ee3c17748E" to i8*), [0 x i8] zeroinitializer }>, align 8
@vtable.i = private unnamed_addr constant <{ i8*, [16 x i8], i8*, [0 x i8] }> <{ i8* bitcast (void (%"core::str::error::Utf8Error"*)* @"_ZN4core3ptr48drop_in_place$LT$core..str..error..Utf8Error$GT$17h0f56a84840f10277E" to i8*), [16 x i8] c"\10\00\00\00\00\00\00\00\08\00\00\00\00\00\00\00", i8* bitcast (i1 (%"core::str::error::Utf8Error"*, %"core::fmt::Formatter"*)* @"_ZN64_$LT$core..str..error..Utf8Error$u20$as$u20$core..fmt..Debug$GT$3fmt17h1c178a3c145491d4E" to i8*), [0 x i8] zeroinitializer }>, align 8
@alloc614 = private unnamed_addr constant <{ [107 x i8] }> <{ [107 x i8] c"/build/rustc-7HAmMa/rustc-1.57.0+dfsg1+llvm/library/core/src/../../stdarch/crates/core_arch/src/x86/sse2.rs" }>, align 1
@alloc615 = private unnamed_addr constant <{ i8*, [16 x i8] }> <{ i8* getelementptr inbounds (<{ [107 x i8] }>, <{ [107 x i8] }>* @alloc614, i32 0, i32 0, i32 0), [16 x i8] c"k\00\00\00\00\00\00\00\BF\0A\00\00+\00\00\00" }>, align 8
@vtable.j = private unnamed_addr constant <{ i8*, [16 x i8], i8*, [0 x i8] }> <{ i8* bitcast (void ({ i64, i64 }**)* @"_ZN4core3ptr58drop_in_place$LT$$RF$core..option..Option$LT$usize$GT$$GT$17h3d652b8008633118E" to i8*), [16 x i8] c"\08\00\00\00\00\00\00\00\08\00\00\00\00\00\00\00", i8* bitcast (i1 ({ i64, i64 }**, %"core::fmt::Formatter"*)* @"_ZN42_$LT$$RF$T$u20$as$u20$core..fmt..Debug$GT$3fmt17h8e5d4581cd3c5a93E" to i8*), [0 x i8] zeroinitializer }>, align 8
@alloc619 = private unnamed_addr constant <{ [17 x i8] }> <{ [17 x i8] c"capacity overflow" }>, align 1
@alloc623 = private unnamed_addr constant <{ [90 x i8] }> <{ [90 x i8] c"/build/rustc-7HAmMa/rustc-1.57.0+dfsg1+llvm/library/alloc/src/collections/vec_deque/mod.rs" }>, align 1
@alloc621 = private unnamed_addr constant <{ i8*, [16 x i8] }> <{ i8* getelementptr inbounds (<{ [90 x i8] }>, <{ [90 x i8] }>* @alloc623, i32 0, i32 0, i32 0), [16 x i8] c"Z\00\00\00\00\00\00\00$\02\00\00\09\00\00\00" }>, align 8
@alloc622 = private unnamed_addr constant <{ [43 x i8] }> <{ [43 x i8] c"assertion failed: self.cap() == old_cap * 2" }>, align 1
@alloc624 = private unnamed_addr constant <{ i8*, [16 x i8] }> <{ i8* getelementptr inbounds (<{ [90 x i8] }>, <{ [90 x i8] }>* @alloc623, i32 0, i32 0, i32 0), [16 x i8] c"Z\00\00\00\00\00\00\00\8D\08\00\00\0D\00\00\00" }>, align 8
@1 = private unnamed_addr constant <{ [16 x i8] }> <{ [16 x i8] c"\08\00\00\00\00\00\00\00\00\00\00\00\00\00\00\00" }>, align 8
@2 = private unnamed_addr constant <{ [16 x i8] }> <{ [16 x i8] c"\01\00\00\00\00\00\00\00\00\00\00\00\00\00\00\00" }>, align 8
@alloc446 = private unnamed_addr constant <{ [0 x i8] }> zeroinitializer, align 8
@alloc625 = private unnamed_addr constant <{ [72 x i8] }> <{ [72 x i8] c"/build/rustc-7HAmMa/rustc-1.57.0+dfsg1+llvm/library/alloc/src/raw_vec.rs" }>, align 1
@alloc626 = private unnamed_addr constant <{ i8*, [16 x i8] }> <{ i8* getelementptr inbounds (<{ [72 x i8] }>, <{ [72 x i8] }>* @alloc625, i32 0, i32 0, i32 0), [16 x i8] c"H\00\00\00\00\00\00\00\9A\01\00\00\09\00\00\00" }>, align 8
@str.k = internal constant [25 x i8] c"attempt to divide by zero"
@alloc627 = private unnamed_addr constant <{ [4 x i8] }> <{ [4 x i8] c"Some" }>, align 1
@vtable.l = private unnamed_addr constant <{ i8*, [16 x i8], i8*, [0 x i8] }> <{ i8* bitcast (void (i64**)* @"_ZN4core3ptr30drop_in_place$LT$$RF$usize$GT$17h2f97a526b18e167aE" to i8*), [16 x i8] c"\08\00\00\00\00\00\00\00\08\00\00\00\00\00\00\00", i8* bitcast (i1 (i64**, %"core::fmt::Formatter"*)* @"_ZN42_$LT$$RF$T$u20$as$u20$core..fmt..Debug$GT$3fmt17ha737c2dc58407cd7E" to i8*), [0 x i8] zeroinitializer }>, align 8
@alloc631 = private unnamed_addr constant <{ [4 x i8] }> <{ [4 x i8] c"None" }>, align 1
@alloc639 = private unnamed_addr constant <{ [11 x i8] }> <{ [11 x i8] c"PoisonError" }>, align 1
@vtable.m = private unnamed_addr constant <{ i8*, [16 x i8], i8*, [0 x i8] }> <{ i8* bitcast (void ({ [0 x i8]*, i64 }*)* @"_ZN4core3ptr28drop_in_place$LT$$RF$str$GT$17h5769bdeb6b7527e7E" to i8*), [16 x i8] c"\10\00\00\00\00\00\00\00\08\00\00\00\00\00\00\00", i8* bitcast (i64 ({ [0 x i8]*, i64 }*)* @"_ZN36_$LT$T$u20$as$u20$core..any..Any$GT$7type_id17h01c9823a85611c60E" to i8*), [0 x i8] zeroinitializer }>, align 8
@alloc643 = private unnamed_addr constant <{ [98 x i8] }> <{ [98 x i8] c"/build/rustc-7HAmMa/rustc-1.57.0+dfsg1+llvm/library/alloc/src/collections/vec_deque/ring_slices.rs" }>, align 1
@alloc644 = private unnamed_addr constant <{ i8*, [16 x i8] }> <{ i8* getelementptr inbounds (<{ [98 x i8] }>, <{ [98 x i8] }>* @alloc643, i32 0, i32 0, i32 0), [16 x i8] c"b\00\00\00\00\00\00\00 \00\00\00\0E\00\00\00" }>, align 8
@_ZN5probe9_PROBE_FP17h14ffe53da3f13f2cE = internal global <{ [8 x i8] }> zeroinitializer, align 8
@_ZN5probe15_PROBE_THRD_SEM17h1ff8d86fa638bd83E = internal global <{ [8 x i8] }> zeroinitializer, align 8
@_ZN5probe16_PROBE_PARENT_ID17h1bc633027d08bcbaE = internal global <{ [8 x i8] }> zeroinitializer, align 8
@_ZN5probe15_PROBE_THRD_MAP17h391daae210d64eb1E = internal global <{ [8 x i8] }> zeroinitializer, align 8
@_ZN5probe21_PROBE_THRD_CUSTOM_ID17h978374fd36dfa2b3E = internal global <{ [8 x i8] }> zeroinitializer, align 8
@_ZN5probe15_PROBE_THRD_EXE17hb3ee71562d869e1cE = internal global <{ [8 x i8] }> zeroinitializer, align 8
@_ZN5probe15_SHUFFLED_ORDER17hb0f2f5030d42cf53E = internal global <{ [8 x i8] }> zeroinitializer, align 8
@alloc646 = private unnamed_addr constant <{ [7 x i8] }> <{ [7 x i8] c"log_neW" }>, align 1
@alloc761 = private unnamed_addr constant <{ [8 x i8] }> <{ [8 x i8] c"probe.rs" }>, align 1
@alloc648 = private unnamed_addr constant <{ i8*, [16 x i8] }> <{ i8* getelementptr inbounds (<{ [8 x i8] }>, <{ [8 x i8] }>* @alloc761, i32 0, i32 0, i32 0), [16 x i8] c"\08\00\00\00\00\00\00\00*\00\00\00.\00\00\00" }>, align 8
@alloc650 = private unnamed_addr constant <{ i8*, [16 x i8] }> <{ i8* getelementptr inbounds (<{ [8 x i8] }>, <{ [8 x i8] }>* @alloc761, i32 0, i32 0, i32 0), [16 x i8] c"\08\00\00\00\00\00\00\00,\00\00\001\00\00\00" }>, align 8
@alloc50 = private unnamed_addr constant <{ [54 x i8] }> <{ [54 x i8] c"---------------------From _init_---------------------\0A" }>, align 1
@alloc51 = private unnamed_addr constant <{ i8*, [8 x i8] }> <{ i8* getelementptr inbounds (<{ [54 x i8] }>, <{ [54 x i8] }>* @alloc50, i32 0, i32 0, i32 0), [8 x i8] c"6\00\00\00\00\00\00\00" }>, align 8
@alloc717 = private unnamed_addr constant <{ [13 x i8] }> <{ [13 x i8] c"write failed\0A" }>, align 1
@alloc653 = private unnamed_addr constant <{ i8*, [16 x i8] }> <{ i8* getelementptr inbounds (<{ [8 x i8] }>, <{ [8 x i8] }>* @alloc761, i32 0, i32 0, i32 0), [16 x i8] c"\08\00\00\00\00\00\00\00-\00\00\00\\\00\00\00" }>, align 8
@alloc57 = private unnamed_addr constant <{ [23 x i8] }> <{ [23 x i8] c"ThreadId(1) :     main\0A" }>, align 1
@alloc58 = private unnamed_addr constant <{ i8*, [8 x i8] }> <{ i8* getelementptr inbounds (<{ [23 x i8] }>, <{ [23 x i8] }>* @alloc57, i32 0, i32 0, i32 0), [8 x i8] c"\17\00\00\00\00\00\00\00" }>, align 8
@alloc656 = private unnamed_addr constant <{ i8*, [16 x i8] }> <{ i8* getelementptr inbounds (<{ [8 x i8] }>, <{ [8 x i8] }>* @alloc761, i32 0, i32 0, i32 0), [16 x i8] c"\08\00\00\00\00\00\00\00/\00\00\00=\00\00\00" }>, align 8
@alloc657 = private unnamed_addr constant <{ [7 x i8] }> <{ [7 x i8] c"shuffle" }>, align 1
@alloc65 = private unnamed_addr constant <{ [18 x i8] }> <{ [18 x i8] c"read shuffle fail\0A" }>, align 1
@alloc66 = private unnamed_addr constant <{ i8*, [8 x i8] }> <{ i8* getelementptr inbounds (<{ [18 x i8] }>, <{ [18 x i8] }>* @alloc65, i32 0, i32 0, i32 0), [8 x i8] c"\12\00\00\00\00\00\00\00" }>, align 8
@alloc70 = private unnamed_addr constant <{ [27 x i8] }> <{ [27 x i8] c"DEBUG read shuffle success\0A" }>, align 1
@alloc71 = private unnamed_addr constant <{ i8*, [8 x i8] }> <{ i8* getelementptr inbounds (<{ [27 x i8] }>, <{ [27 x i8] }>* @alloc70, i32 0, i32 0, i32 0), [8 x i8] c"\1B\00\00\00\00\00\00\00" }>, align 8
@alloc658 = private unnamed_addr constant <{ [23 x i8] }> <{ [23 x i8] c"fail to read from file\0A" }>, align 1
@alloc660 = private unnamed_addr constant <{ i8*, [16 x i8] }> <{ i8* getelementptr inbounds (<{ [8 x i8] }>, <{ [8 x i8] }>* @alloc761, i32 0, i32 0, i32 0), [16 x i8] c"\08\00\00\00\00\00\00\008\00\00\00C\00\00\00" }>, align 8
@alloc662 = private unnamed_addr constant <{ i8*, [16 x i8] }> <{ i8* getelementptr inbounds (<{ [8 x i8] }>, <{ [8 x i8] }>* @alloc761, i32 0, i32 0, i32 0), [16 x i8] c"\08\00\00\00\00\00\00\00I\00\00\001\00\00\00" }>, align 8
@alloc131 = private unnamed_addr constant <{ [53 x i8] }> <{ [53 x i8] c"---------------------From_final---------------------\0A" }>, align 1
@alloc132 = private unnamed_addr constant <{ i8*, [8 x i8] }> <{ i8* getelementptr inbounds (<{ [53 x i8] }>, <{ [53 x i8] }>* @alloc131, i32 0, i32 0, i32 0), [8 x i8] c"5\00\00\00\00\00\00\00" }>, align 8
@alloc665 = private unnamed_addr constant <{ i8*, [16 x i8] }> <{ i8* getelementptr inbounds (<{ [8 x i8] }>, <{ [8 x i8] }>* @alloc761, i32 0, i32 0, i32 0), [16 x i8] c"\08\00\00\00\00\00\00\00J\00\00\00[\00\00\00" }>, align 8
@alloc666 = private unnamed_addr constant <{ [6 x i8] }> <{ [6 x i8] c"struct" }>, align 1
@alloc668 = private unnamed_addr constant <{ i8*, [16 x i8] }> <{ i8* getelementptr inbounds (<{ [8 x i8] }>, <{ [8 x i8] }>* @alloc761, i32 0, i32 0, i32 0), [16 x i8] c"\08\00\00\00\00\00\00\00M\00\00\00e\00\00\00" }>, align 8
@alloc670 = private unnamed_addr constant <{ i8*, [16 x i8] }> <{ i8* getelementptr inbounds (<{ [8 x i8] }>, <{ [8 x i8] }>* @alloc761, i32 0, i32 0, i32 0), [16 x i8] c"\08\00\00\00\00\00\00\00P\00\00\00.\00\00\00" }>, align 8
@alloc139 = private unnamed_addr constant <{ [4 x i8] }> <{ [4 x i8] c"tid " }>, align 1
@alloc141 = private unnamed_addr constant <{ [10 x i8] }> <{ [10 x i8] c" --------\0A" }>, align 1
@alloc140 = private unnamed_addr constant <{ i8*, [8 x i8], i8*, [8 x i8] }> <{ i8* getelementptr inbounds (<{ [4 x i8] }>, <{ [4 x i8] }>* @alloc139, i32 0, i32 0, i32 0), [8 x i8] c"\04\00\00\00\00\00\00\00", i8* getelementptr inbounds (<{ [10 x i8] }>, <{ [10 x i8] }>* @alloc141, i32 0, i32 0, i32 0), [8 x i8] c"\0A\00\00\00\00\00\00\00" }>, align 8
@alloc673 = private unnamed_addr constant <{ i8*, [16 x i8] }> <{ i8* getelementptr inbounds (<{ [8 x i8] }>, <{ [8 x i8] }>* @alloc761, i32 0, i32 0, i32 0), [16 x i8] c"\08\00\00\00\00\00\00\00S\00\00\00?\00\00\00" }>, align 8
@alloc675 = private unnamed_addr constant <{ i8*, [16 x i8] }> <{ i8* getelementptr inbounds (<{ [8 x i8] }>, <{ [8 x i8] }>* @alloc761, i32 0, i32 0, i32 0), [16 x i8] c"\08\00\00\00\00\00\00\00T\00\00\00\11\00\00\00" }>, align 8
@alloc147 = private unnamed_addr constant <{ [1 x i8] }> <{ [1 x i8] c"\09" }>, align 1
@alloc449 = private unnamed_addr constant <{ [1 x i8] }> <{ [1 x i8] c"\0A" }>, align 1
@alloc148 = private unnamed_addr constant <{ i8*, [8 x i8], i8*, [8 x i8] }> <{ i8* getelementptr inbounds (<{ [1 x i8] }>, <{ [1 x i8] }>* @alloc147, i32 0, i32 0, i32 0), [8 x i8] c"\01\00\00\00\00\00\00\00", i8* getelementptr inbounds (<{ [1 x i8] }>, <{ [1 x i8] }>* @alloc449, i32 0, i32 0, i32 0), [8 x i8] c"\01\00\00\00\00\00\00\00" }>, align 8
@alloc678 = private unnamed_addr constant <{ i8*, [16 x i8] }> <{ i8* getelementptr inbounds (<{ [8 x i8] }>, <{ [8 x i8] }>* @alloc761, i32 0, i32 0, i32 0), [16 x i8] c"\08\00\00\00\00\00\00\00V\00\00\00;\00\00\00" }>, align 8
@alloc680 = private unnamed_addr constant <{ i8*, [16 x i8] }> <{ i8* getelementptr inbounds (<{ [8 x i8] }>, <{ [8 x i8] }>* @alloc761, i32 0, i32 0, i32 0), [16 x i8] c"\08\00\00\00\00\00\00\00b\00\00\00*\00\00\00" }>, align 8
@alloc682 = private unnamed_addr constant <{ i8*, [16 x i8] }> <{ i8* getelementptr inbounds (<{ [8 x i8] }>, <{ [8 x i8] }>* @alloc761, i32 0, i32 0, i32 0), [16 x i8] c"\08\00\00\00\00\00\00\00c\00\00\00'\00\00\00" }>, align 8
@alloc684 = private unnamed_addr constant <{ i8*, [16 x i8] }> <{ i8* getelementptr inbounds (<{ [8 x i8] }>, <{ [8 x i8] }>* @alloc761, i32 0, i32 0, i32 0), [16 x i8] c"\08\00\00\00\00\00\00\00e\00\00\00<\00\00\00" }>, align 8
@alloc686 = private unnamed_addr constant <{ i8*, [16 x i8] }> <{ i8* getelementptr inbounds (<{ [8 x i8] }>, <{ [8 x i8] }>* @alloc761, i32 0, i32 0, i32 0), [16 x i8] c"\08\00\00\00\00\00\00\00g\00\00\001\00\00\00" }>, align 8
@alloc245 = private unnamed_addr constant <{ [25 x i8] }> <{ [25 x i8] c"|RANDOM_SLEEP_WAKE!|tid: " }>, align 1
@alloc352 = private unnamed_addr constant <{ [14 x i8] }> <{ [14 x i8] c" | func_name: " }>, align 1
@alloc353 = private unnamed_addr constant <{ [9 x i8] }> <{ [9 x i8] c" | line: " }>, align 1
@alloc421 = private unnamed_addr constant <{ [13 x i8] }> <{ [13 x i8] c" | func_num: " }>, align 1
@alloc392 = private unnamed_addr constant <{ [3 x i8] }> <{ [3 x i8] c" |\0A" }>, align 1
@alloc246 = private unnamed_addr constant <{ i8*, [8 x i8], i8*, [8 x i8], i8*, [8 x i8], i8*, [8 x i8], i8*, [8 x i8] }> <{ i8* getelementptr inbounds (<{ [25 x i8] }>, <{ [25 x i8] }>* @alloc245, i32 0, i32 0, i32 0), [8 x i8] c"\19\00\00\00\00\00\00\00", i8* getelementptr inbounds (<{ [14 x i8] }>, <{ [14 x i8] }>* @alloc352, i32 0, i32 0, i32 0), [8 x i8] c"\0E\00\00\00\00\00\00\00", i8* getelementptr inbounds (<{ [9 x i8] }>, <{ [9 x i8] }>* @alloc353, i32 0, i32 0, i32 0), [8 x i8] c"\09\00\00\00\00\00\00\00", i8* getelementptr inbounds (<{ [13 x i8] }>, <{ [13 x i8] }>* @alloc421, i32 0, i32 0, i32 0), [8 x i8] c"\0D\00\00\00\00\00\00\00", i8* getelementptr inbounds (<{ [3 x i8] }>, <{ [3 x i8] }>* @alloc392, i32 0, i32 0, i32 0), [8 x i8] c"\03\00\00\00\00\00\00\00" }>, align 8
@alloc382 = private unnamed_addr constant <{ [224 x i8] }> <{ [224 x i8] c"\00\00\00\00\00\00\00\00\02\00\00\00\00\00\00\00\00\00\00\00\00\00\00\00\02\00\00\00\00\00\00\00\00\00\00\00\00\00\00\00 \00\00\00\00\00\00\00\03\00\00\00\00\00\00\00\01\00\00\00\00\00\00\00\02\00\00\00\00\00\00\00\00\00\00\00\00\00\00\00\00\00\00\00\00\00\00\00\08\00\00\00\00\00\00\00 \00\00\00\00\00\00\00\01\00\00\00\00\00\00\00\02\00\00\00\00\00\00\00\02\00\00\00\00\00\00\00\00\00\00\00\00\00\00\00\00\00\00\00\00\00\00\00\04\00\00\00\00\00\00\00 \00\00\00\00\00\00\00\01\00\00\00\00\00\00\00\03\00\00\00\00\00\00\00\02\00\00\00\00\00\00\00\00\00\00\00\00\00\00\00\02\00\00\00\00\00\00\00\00\00\00\00\00\00\00\00 \00\00\00\00\00\00\00\03\00\00\00\00\00\00\00" }>, align 8
@alloc689 = private unnamed_addr constant <{ i8*, [16 x i8] }> <{ i8* getelementptr inbounds (<{ [8 x i8] }>, <{ [8 x i8] }>* @alloc761, i32 0, i32 0, i32 0), [16 x i8] c"\08\00\00\00\00\00\00\00i\00\00\00A\00\00\00" }>, align 8
@alloc691 = private unnamed_addr constant <{ i8*, [16 x i8] }> <{ i8* getelementptr inbounds (<{ [8 x i8] }>, <{ [8 x i8] }>* @alloc761, i32 0, i32 0, i32 0), [16 x i8] c"\08\00\00\00\00\00\00\00v\00\00\00<\00\00\00" }>, align 8
@alloc693 = private unnamed_addr constant <{ i8*, [16 x i8] }> <{ i8* getelementptr inbounds (<{ [8 x i8] }>, <{ [8 x i8] }>* @alloc761, i32 0, i32 0, i32 0), [16 x i8] c"\08\00\00\00\00\00\00\00z\00\00\001\00\00\00" }>, align 8
@alloc156 = private unnamed_addr constant <{ [5 x i8] }> <{ [5 x i8] c"tid: " }>, align 1
@alloc307 = private unnamed_addr constant <{ [18 x i8] }> <{ [18 x i8] c" | lock_var_addr: " }>, align 1
@alloc303 = private unnamed_addr constant <{ i8*, [8 x i8], i8*, [8 x i8], i8*, [8 x i8], i8*, [8 x i8], i8*, [8 x i8], i8*, [8 x i8] }> <{ i8* getelementptr inbounds (<{ [5 x i8] }>, <{ [5 x i8] }>* @alloc156, i32 0, i32 0, i32 0), [8 x i8] c"\05\00\00\00\00\00\00\00", i8* getelementptr inbounds (<{ [14 x i8] }>, <{ [14 x i8] }>* @alloc352, i32 0, i32 0, i32 0), [8 x i8] c"\0E\00\00\00\00\00\00\00", i8* getelementptr inbounds (<{ [9 x i8] }>, <{ [9 x i8] }>* @alloc353, i32 0, i32 0, i32 0), [8 x i8] c"\09\00\00\00\00\00\00\00", i8* getelementptr inbounds (<{ [13 x i8] }>, <{ [13 x i8] }>* @alloc421, i32 0, i32 0, i32 0), [8 x i8] c"\0D\00\00\00\00\00\00\00", i8* getelementptr inbounds (<{ [18 x i8] }>, <{ [18 x i8] }>* @alloc307, i32 0, i32 0, i32 0), [8 x i8] c"\12\00\00\00\00\00\00\00", i8* getelementptr inbounds (<{ [1 x i8] }>, <{ [1 x i8] }>* @alloc449, i32 0, i32 0, i32 0), [8 x i8] c"\01\00\00\00\00\00\00\00" }>, align 8
@alloc342 = private unnamed_addr constant <{ [280 x i8] }> <{ [280 x i8] c"\00\00\00\00\00\00\00\00\02\00\00\00\00\00\00\00\00\00\00\00\00\00\00\00\02\00\00\00\00\00\00\00\00\00\00\00\00\00\00\00 \00\00\00\00\00\00\00\03\00\00\00\00\00\00\00\01\00\00\00\00\00\00\00\02\00\00\00\00\00\00\00\00\00\00\00\00\00\00\00\00\00\00\00\00\00\00\00\08\00\00\00\00\00\00\00 \00\00\00\00\00\00\00\01\00\00\00\00\00\00\00\02\00\00\00\00\00\00\00\02\00\00\00\00\00\00\00\00\00\00\00\00\00\00\00\00\00\00\00\00\00\00\00\04\00\00\00\00\00\00\00 \00\00\00\00\00\00\00\01\00\00\00\00\00\00\00\03\00\00\00\00\00\00\00\02\00\00\00\00\00\00\00\00\00\00\00\00\00\00\00\02\00\00\00\00\00\00\00\00\00\00\00\00\00\00\00 \00\00\00\00\00\00\00\03\00\00\00\00\00\00\00\04\00\00\00\00\00\00\00\02\00\00\00\00\00\00\00\00\00\00\00\00\00\00\00\02\00\00\00\00\00\00\00\00\00\00\00\00\00\00\00 \00\00\00\00\00\00\00\03\00\00\00\00\00\00\00" }>, align 8
@alloc696 = private unnamed_addr constant <{ i8*, [16 x i8] }> <{ i8* getelementptr inbounds (<{ [8 x i8] }>, <{ [8 x i8] }>* @alloc761, i32 0, i32 0, i32 0), [16 x i8] c"\08\00\00\00\00\00\00\00|\00\00\00P\00\00\00" }>, align 8
@alloc698 = private unnamed_addr constant <{ i8*, [16 x i8] }> <{ i8* getelementptr inbounds (<{ [8 x i8] }>, <{ [8 x i8] }>* @alloc761, i32 0, i32 0, i32 0), [16 x i8] c"\08\00\00\00\00\00\00\00\8C\00\00\00<\00\00\00" }>, align 8
@alloc700 = private unnamed_addr constant <{ i8*, [16 x i8] }> <{ i8* getelementptr inbounds (<{ [8 x i8] }>, <{ [8 x i8] }>* @alloc761, i32 0, i32 0, i32 0), [16 x i8] c"\08\00\00\00\00\00\00\00\90\00\00\001\00\00\00" }>, align 8
@alloc351 = private unnamed_addr constant <{ i8*, [8 x i8], i8*, [8 x i8], i8*, [8 x i8], i8*, [8 x i8], i8*, [8 x i8] }> <{ i8* getelementptr inbounds (<{ [5 x i8] }>, <{ [5 x i8] }>* @alloc156, i32 0, i32 0, i32 0), [8 x i8] c"\05\00\00\00\00\00\00\00", i8* getelementptr inbounds (<{ [14 x i8] }>, <{ [14 x i8] }>* @alloc352, i32 0, i32 0, i32 0), [8 x i8] c"\0E\00\00\00\00\00\00\00", i8* getelementptr inbounds (<{ [9 x i8] }>, <{ [9 x i8] }>* @alloc353, i32 0, i32 0, i32 0), [8 x i8] c"\09\00\00\00\00\00\00\00", i8* getelementptr inbounds (<{ [13 x i8] }>, <{ [13 x i8] }>* @alloc421, i32 0, i32 0, i32 0), [8 x i8] c"\0D\00\00\00\00\00\00\00", i8* getelementptr inbounds (<{ [3 x i8] }>, <{ [3 x i8] }>* @alloc392, i32 0, i32 0, i32 0), [8 x i8] c"\03\00\00\00\00\00\00\00" }>, align 8
@alloc703 = private unnamed_addr constant <{ i8*, [16 x i8] }> <{ i8* getelementptr inbounds (<{ [8 x i8] }>, <{ [8 x i8] }>* @alloc761, i32 0, i32 0, i32 0), [16 x i8] c"\08\00\00\00\00\00\00\00\92\00\00\00A\00\00\00" }>, align 8
@alloc705 = private unnamed_addr constant <{ i8*, [16 x i8] }> <{ i8* getelementptr inbounds (<{ [8 x i8] }>, <{ [8 x i8] }>* @alloc761, i32 0, i32 0, i32 0), [16 x i8] c"\08\00\00\00\00\00\00\00\A6\00\00\001\00\00\00" }>, align 8
@alloc390 = private unnamed_addr constant <{ [31 x i8] }> <{ [31 x i8] c" | func_name: spawning | line: " }>, align 1
@alloc389 = private unnamed_addr constant <{ i8*, [8 x i8], i8*, [8 x i8], i8*, [8 x i8], i8*, [8 x i8] }> <{ i8* getelementptr inbounds (<{ [5 x i8] }>, <{ [5 x i8] }>* @alloc156, i32 0, i32 0, i32 0), [8 x i8] c"\05\00\00\00\00\00\00\00", i8* getelementptr inbounds (<{ [31 x i8] }>, <{ [31 x i8] }>* @alloc390, i32 0, i32 0, i32 0), [8 x i8] c"\1F\00\00\00\00\00\00\00", i8* getelementptr inbounds (<{ [13 x i8] }>, <{ [13 x i8] }>* @alloc421, i32 0, i32 0, i32 0), [8 x i8] c"\0D\00\00\00\00\00\00\00", i8* getelementptr inbounds (<{ [3 x i8] }>, <{ [3 x i8] }>* @alloc392, i32 0, i32 0, i32 0), [8 x i8] c"\03\00\00\00\00\00\00\00" }>, align 8
@alloc442 = private unnamed_addr constant <{ [168 x i8] }> <{ [168 x i8] c"\00\00\00\00\00\00\00\00\02\00\00\00\00\00\00\00\00\00\00\00\00\00\00\00\02\00\00\00\00\00\00\00\00\00\00\00\00\00\00\00 \00\00\00\00\00\00\00\03\00\00\00\00\00\00\00\01\00\00\00\00\00\00\00\02\00\00\00\00\00\00\00\00\00\00\00\00\00\00\00\00\00\00\00\00\00\00\00\04\00\00\00\00\00\00\00 \00\00\00\00\00\00\00\01\00\00\00\00\00\00\00\02\00\00\00\00\00\00\00\02\00\00\00\00\00\00\00\00\00\00\00\00\00\00\00\02\00\00\00\00\00\00\00\00\00\00\00\00\00\00\00 \00\00\00\00\00\00\00\03\00\00\00\00\00\00\00" }>, align 8
@alloc708 = private unnamed_addr constant <{ i8*, [16 x i8] }> <{ i8* getelementptr inbounds (<{ [8 x i8] }>, <{ [8 x i8] }>* @alloc761, i32 0, i32 0, i32 0), [16 x i8] c"\08\00\00\00\00\00\00\00\A8\00\00\002\00\00\00" }>, align 8
@alloc709 = private unnamed_addr constant <{ [8 x i8] }> <{ [8 x i8] c"spawning" }>, align 1
@alloc711 = private unnamed_addr constant <{ i8*, [16 x i8] }> <{ i8* getelementptr inbounds (<{ [8 x i8] }>, <{ [8 x i8] }>* @alloc761, i32 0, i32 0, i32 0), [16 x i8] c"\08\00\00\00\00\00\00\00\B8\00\00\008\00\00\00" }>, align 8
@alloc713 = private unnamed_addr constant <{ i8*, [16 x i8] }> <{ i8* getelementptr inbounds (<{ [8 x i8] }>, <{ [8 x i8] }>* @alloc761, i32 0, i32 0, i32 0), [16 x i8] c"\08\00\00\00\00\00\00\00\BA\00\00\001\00\00\00" }>, align 8
@alloc420 = private unnamed_addr constant <{ [31 x i8] }> <{ [31 x i8] c" | func_name:  spawned | line: " }>, align 1
@alloc422 = private unnamed_addr constant <{ [3 x i8] }> <{ [3 x i8] c" | " }>, align 1
@alloc419 = private unnamed_addr constant <{ i8*, [8 x i8], i8*, [8 x i8], i8*, [8 x i8], i8*, [8 x i8] }> <{ i8* getelementptr inbounds (<{ [5 x i8] }>, <{ [5 x i8] }>* @alloc156, i32 0, i32 0, i32 0), [8 x i8] c"\05\00\00\00\00\00\00\00", i8* getelementptr inbounds (<{ [31 x i8] }>, <{ [31 x i8] }>* @alloc420, i32 0, i32 0, i32 0), [8 x i8] c"\1F\00\00\00\00\00\00\00", i8* getelementptr inbounds (<{ [13 x i8] }>, <{ [13 x i8] }>* @alloc421, i32 0, i32 0, i32 0), [8 x i8] c"\0D\00\00\00\00\00\00\00", i8* getelementptr inbounds (<{ [3 x i8] }>, <{ [3 x i8] }>* @alloc422, i32 0, i32 0, i32 0), [8 x i8] c"\03\00\00\00\00\00\00\00" }>, align 8
@alloc716 = private unnamed_addr constant <{ i8*, [16 x i8] }> <{ i8* getelementptr inbounds (<{ [8 x i8] }>, <{ [8 x i8] }>* @alloc761, i32 0, i32 0, i32 0), [16 x i8] c"\08\00\00\00\00\00\00\00\BC\00\00\002\00\00\00" }>, align 8
@alloc448 = private unnamed_addr constant <{ [9 x i8] }> <{ [9 x i8] c" spawned " }>, align 1
@alloc447 = private unnamed_addr constant <{ i8*, [8 x i8], i8*, [8 x i8], i8*, [8 x i8] }> <{ i8* getelementptr inbounds (<{ [0 x i8] }>, <{ [0 x i8] }>* @alloc446, i32 0, i32 0, i32 0), [8 x i8] zeroinitializer, i8* getelementptr inbounds (<{ [9 x i8] }>, <{ [9 x i8] }>* @alloc448, i32 0, i32 0, i32 0), [8 x i8] c"\09\00\00\00\00\00\00\00", i8* getelementptr inbounds (<{ [1 x i8] }>, <{ [1 x i8] }>* @alloc449, i32 0, i32 0, i32 0), [8 x i8] c"\01\00\00\00\00\00\00\00" }>, align 8
@alloc719 = private unnamed_addr constant <{ i8*, [16 x i8] }> <{ i8* getelementptr inbounds (<{ [8 x i8] }>, <{ [8 x i8] }>* @alloc761, i32 0, i32 0, i32 0), [16 x i8] c"\08\00\00\00\00\00\00\00\BD\00\00\00E\00\00\00" }>, align 8
@alloc720 = private unnamed_addr constant <{ [7 x i8] }> <{ [7 x i8] c"spawned" }>, align 1
@alloc722 = private unnamed_addr constant <{ i8*, [16 x i8] }> <{ i8* getelementptr inbounds (<{ [8 x i8] }>, <{ [8 x i8] }>* @alloc761, i32 0, i32 0, i32 0), [16 x i8] c"\08\00\00\00\00\00\00\00\CE\00\00\00.\00\00\00" }>, align 8
@alloc724 = private unnamed_addr constant <{ i8*, [16 x i8] }> <{ i8* getelementptr inbounds (<{ [8 x i8] }>, <{ [8 x i8] }>* @alloc761, i32 0, i32 0, i32 0), [16 x i8] c"\08\00\00\00\00\00\00\00\CF\00\00\00+\00\00\00" }>, align 8
@alloc726 = private unnamed_addr constant <{ i8*, [16 x i8] }> <{ i8* getelementptr inbounds (<{ [8 x i8] }>, <{ [8 x i8] }>* @alloc761, i32 0, i32 0, i32 0), [16 x i8] c"\08\00\00\00\00\00\00\00\D8\00\00\00(\00\00\00" }>, align 8
@alloc728 = private unnamed_addr constant <{ i8*, [16 x i8] }> <{ i8* getelementptr inbounds (<{ [8 x i8] }>, <{ [8 x i8] }>* @alloc761, i32 0, i32 0, i32 0), [16 x i8] c"\08\00\00\00\00\00\00\00\DA\00\00\006\00\00\00" }>, align 8
@alloc730 = private unnamed_addr constant <{ i8*, [16 x i8] }> <{ i8* getelementptr inbounds (<{ [8 x i8] }>, <{ [8 x i8] }>* @alloc761, i32 0, i32 0, i32 0), [16 x i8] c"\08\00\00\00\00\00\00\00\DD\00\00\00\15\00\00\00" }>, align 8
@alloc732 = private unnamed_addr constant <{ i8*, [16 x i8] }> <{ i8* getelementptr inbounds (<{ [8 x i8] }>, <{ [8 x i8] }>* @alloc761, i32 0, i32 0, i32 0), [16 x i8] c"\08\00\00\00\00\00\00\00\EF\00\00\000\00\00\00" }>, align 8
@alloc734 = private unnamed_addr constant <{ i8*, [16 x i8] }> <{ i8* getelementptr inbounds (<{ [8 x i8] }>, <{ [8 x i8] }>* @alloc761, i32 0, i32 0, i32 0), [16 x i8] c"\08\00\00\00\00\00\00\00\F3\00\00\00\16\00\00\00" }>, align 8
@str.n = internal constant [33 x i8] c"attempt to subtract with overflow"
@alloc736 = private unnamed_addr constant <{ i8*, [16 x i8] }> <{ i8* getelementptr inbounds (<{ [8 x i8] }>, <{ [8 x i8] }>* @alloc761, i32 0, i32 0, i32 0), [16 x i8] c"\08\00\00\00\00\00\00\00\F3\00\00\00\0D\00\00\00" }>, align 8
@alloc738 = private unnamed_addr constant <{ i8*, [16 x i8] }> <{ i8* getelementptr inbounds (<{ [8 x i8] }>, <{ [8 x i8] }>* @alloc761, i32 0, i32 0, i32 0), [16 x i8] c"\08\00\00\00\00\00\00\00\0B\01\00\00*\00\00\00" }>, align 8
@alloc740 = private unnamed_addr constant <{ i8*, [16 x i8] }> <{ i8* getelementptr inbounds (<{ [8 x i8] }>, <{ [8 x i8] }>* @alloc761, i32 0, i32 0, i32 0), [16 x i8] c"\08\00\00\00\00\00\00\00\0C\01\00\00\09\00\00\00" }>, align 8
@alloc742 = private unnamed_addr constant <{ i8*, [16 x i8] }> <{ i8* getelementptr inbounds (<{ [8 x i8] }>, <{ [8 x i8] }>* @alloc761, i32 0, i32 0, i32 0), [16 x i8] c"\08\00\00\00\00\00\00\00\0E\01\00\00)\00\00\00" }>, align 8
@alloc744 = private unnamed_addr constant <{ i8*, [16 x i8] }> <{ i8* getelementptr inbounds (<{ [8 x i8] }>, <{ [8 x i8] }>* @alloc761, i32 0, i32 0, i32 0), [16 x i8] c"\08\00\00\00\00\00\00\00\12\01\00\00*\00\00\00" }>, align 8
@alloc746 = private unnamed_addr constant <{ i8*, [16 x i8] }> <{ i8* getelementptr inbounds (<{ [8 x i8] }>, <{ [8 x i8] }>* @alloc761, i32 0, i32 0, i32 0), [16 x i8] c"\08\00\00\00\00\00\00\00\13\01\00\00\09\00\00\00" }>, align 8
@alloc158 = private unnamed_addr constant <{ [14 x i8] }> <{ [14 x i8] c", parent_tid: " }>, align 1
@alloc159 = private unnamed_addr constant <{ [8 x i8] }> <{ [8 x i8] c", line: " }>, align 1
@alloc160 = private unnamed_addr constant <{ [8 x i8] }> <{ [8 x i8] c", func: " }>, align 1
@alloc161 = private unnamed_addr constant <{ [12 x i8] }> <{ [12 x i8] c", func_num: " }>, align 1
@alloc175 = private unnamed_addr constant <{ [7 x i8] }> <{ [7 x i8] c", var: " }>, align 1
@alloc170 = private unnamed_addr constant <{ i8*, [8 x i8], i8*, [8 x i8], i8*, [8 x i8], i8*, [8 x i8], i8*, [8 x i8], i8*, [8 x i8] }> <{ i8* getelementptr inbounds (<{ [5 x i8] }>, <{ [5 x i8] }>* @alloc156, i32 0, i32 0, i32 0), [8 x i8] c"\05\00\00\00\00\00\00\00", i8* getelementptr inbounds (<{ [14 x i8] }>, <{ [14 x i8] }>* @alloc158, i32 0, i32 0, i32 0), [8 x i8] c"\0E\00\00\00\00\00\00\00", i8* getelementptr inbounds (<{ [8 x i8] }>, <{ [8 x i8] }>* @alloc159, i32 0, i32 0, i32 0), [8 x i8] c"\08\00\00\00\00\00\00\00", i8* getelementptr inbounds (<{ [8 x i8] }>, <{ [8 x i8] }>* @alloc160, i32 0, i32 0, i32 0), [8 x i8] c"\08\00\00\00\00\00\00\00", i8* getelementptr inbounds (<{ [12 x i8] }>, <{ [12 x i8] }>* @alloc161, i32 0, i32 0, i32 0), [8 x i8] c"\0C\00\00\00\00\00\00\00", i8* getelementptr inbounds (<{ [7 x i8] }>, <{ [7 x i8] }>* @alloc175, i32 0, i32 0, i32 0), [8 x i8] c"\07\00\00\00\00\00\00\00" }>, align 8
@alloc215 = private unnamed_addr constant <{ [336 x i8] }> <{ [336 x i8] c"\00\00\00\00\00\00\00\00\02\00\00\00\00\00\00\00\00\00\00\00\00\00\00\00\00\00\00\00\00\00\00\00\03\00\00\00\00\00\00\00 \00\00\00\00\00\00\00\01\00\00\00\00\00\00\00\01\00\00\00\00\00\00\00\02\00\00\00\00\00\00\00\00\00\00\00\00\00\00\00\00\00\00\00\00\00\00\00\03\00\00\00\00\00\00\00 \00\00\00\00\00\00\00\01\00\00\00\00\00\00\00\02\00\00\00\00\00\00\00\02\00\00\00\00\00\00\00\00\00\00\00\00\00\00\00\00\00\00\00\00\00\00\00\04\00\00\00\00\00\00\00 \00\00\00\00\00\00\00\01\00\00\00\00\00\00\00\03\00\00\00\00\00\00\00\02\00\00\00\00\00\00\00\00\00\00\00\00\00\00\00\00\00\00\00\00\00\00\00\08\00\00\00\00\00\00\00 \00\00\00\00\00\00\00\01\00\00\00\00\00\00\00\04\00\00\00\00\00\00\00\02\00\00\00\00\00\00\00\00\00\00\00\00\00\00\00\00\00\00\00\00\00\00\00\03\00\00\00\00\00\00\00 \00\00\00\00\00\00\00\01\00\00\00\00\00\00\00\05\00\00\00\00\00\00\00\02\00\00\00\00\00\00\00\00\00\00\00\00\00\00\00\02\00\00\00\00\00\00\00\00\00\00\00\00\00\00\00 \00\00\00\00\00\00\00\03\00\00\00\00\00\00\00" }>, align 8
@alloc162 = private unnamed_addr constant <{ [11 x i8] }> <{ [11 x i8] c", var: None" }>, align 1
@alloc157 = private unnamed_addr constant <{ i8*, [8 x i8], i8*, [8 x i8], i8*, [8 x i8], i8*, [8 x i8], i8*, [8 x i8], i8*, [8 x i8] }> <{ i8* getelementptr inbounds (<{ [5 x i8] }>, <{ [5 x i8] }>* @alloc156, i32 0, i32 0, i32 0), [8 x i8] c"\05\00\00\00\00\00\00\00", i8* getelementptr inbounds (<{ [14 x i8] }>, <{ [14 x i8] }>* @alloc158, i32 0, i32 0, i32 0), [8 x i8] c"\0E\00\00\00\00\00\00\00", i8* getelementptr inbounds (<{ [8 x i8] }>, <{ [8 x i8] }>* @alloc159, i32 0, i32 0, i32 0), [8 x i8] c"\08\00\00\00\00\00\00\00", i8* getelementptr inbounds (<{ [8 x i8] }>, <{ [8 x i8] }>* @alloc160, i32 0, i32 0, i32 0), [8 x i8] c"\08\00\00\00\00\00\00\00", i8* getelementptr inbounds (<{ [12 x i8] }>, <{ [12 x i8] }>* @alloc161, i32 0, i32 0, i32 0), [8 x i8] c"\0C\00\00\00\00\00\00\00", i8* getelementptr inbounds (<{ [11 x i8] }>, <{ [11 x i8] }>* @alloc162, i32 0, i32 0, i32 0), [8 x i8] c"\0B\00\00\00\00\00\00\00" }>, align 8
@alloc243 = private unnamed_addr constant <{ [280 x i8] }> <{ [280 x i8] c"\00\00\00\00\00\00\00\00\02\00\00\00\00\00\00\00\00\00\00\00\00\00\00\00\00\00\00\00\00\00\00\00\03\00\00\00\00\00\00\00 \00\00\00\00\00\00\00\01\00\00\00\00\00\00\00\01\00\00\00\00\00\00\00\02\00\00\00\00\00\00\00\00\00\00\00\00\00\00\00\00\00\00\00\00\00\00\00\03\00\00\00\00\00\00\00 \00\00\00\00\00\00\00\01\00\00\00\00\00\00\00\02\00\00\00\00\00\00\00\02\00\00\00\00\00\00\00\00\00\00\00\00\00\00\00\00\00\00\00\00\00\00\00\04\00\00\00\00\00\00\00 \00\00\00\00\00\00\00\01\00\00\00\00\00\00\00\03\00\00\00\00\00\00\00\02\00\00\00\00\00\00\00\00\00\00\00\00\00\00\00\00\00\00\00\00\00\00\00\08\00\00\00\00\00\00\00 \00\00\00\00\00\00\00\01\00\00\00\00\00\00\00\04\00\00\00\00\00\00\00\02\00\00\00\00\00\00\00\00\00\00\00\00\00\00\00\00\00\00\00\00\00\00\00\03\00\00\00\00\00\00\00 \00\00\00\00\00\00\00\01\00\00\00\00\00\00\00" }>, align 8
@alloc748 = private unnamed_addr constant <{ i8*, [16 x i8] }> <{ i8* getelementptr inbounds (<{ [8 x i8] }>, <{ [8 x i8] }>* @alloc761, i32 0, i32 0, i32 0), [16 x i8] c"\08\00\00\00\00\00\00\00=\01\00\006\00\00\00" }>, align 8
@alloc750 = private unnamed_addr constant <{ i8*, [16 x i8] }> <{ i8* getelementptr inbounds (<{ [8 x i8] }>, <{ [8 x i8] }>* @alloc761, i32 0, i32 0, i32 0), [16 x i8] c"\08\00\00\00\00\00\00\00?\01\00\00/\00\00\00" }>, align 8
@alloc752 = private unnamed_addr constant <{ i8*, [16 x i8] }> <{ i8* getelementptr inbounds (<{ [8 x i8] }>, <{ [8 x i8] }>* @alloc761, i32 0, i32 0, i32 0), [16 x i8] c"\08\00\00\00\00\00\00\00J\01\00\00'\00\00\00" }>, align 8
@alloc754 = private unnamed_addr constant <{ i8*, [16 x i8] }> <{ i8* getelementptr inbounds (<{ [8 x i8] }>, <{ [8 x i8] }>* @alloc761, i32 0, i32 0, i32 0), [16 x i8] c"\08\00\00\00\00\00\00\00K\01\00\007\00\00\00" }>, align 8
@alloc756 = private unnamed_addr constant <{ i8*, [16 x i8] }> <{ i8* getelementptr inbounds (<{ [8 x i8] }>, <{ [8 x i8] }>* @alloc761, i32 0, i32 0, i32 0), [16 x i8] c"\08\00\00\00\00\00\00\00N\01\00\00+\00\00\00" }>, align 8
@alloc758 = private unnamed_addr constant <{ i8*, [16 x i8] }> <{ i8* getelementptr inbounds (<{ [8 x i8] }>, <{ [8 x i8] }>* @alloc761, i32 0, i32 0, i32 0), [16 x i8] c"\08\00\00\00\00\00\00\00O\01\00\003\00\00\00" }>, align 8
@alloc760 = private unnamed_addr constant <{ i8*, [16 x i8] }> <{ i8* getelementptr inbounds (<{ [8 x i8] }>, <{ [8 x i8] }>* @alloc761, i32 0, i32 0, i32 0), [16 x i8] c"\08\00\00\00\00\00\00\00T\01\00\001\00\00\00" }>, align 8
@alloc762 = private unnamed_addr constant <{ i8*, [16 x i8] }> <{ i8* getelementptr inbounds (<{ [8 x i8] }>, <{ [8 x i8] }>* @alloc761, i32 0, i32 0, i32 0), [16 x i8] c"\08\00\00\00\00\00\00\00X\01\00\003\00\00\00" }>, align 8

; <hashbrown::raw::RawIterHashInner<A> as core::iter::traits::iterator::Iterator>::next
; Function Attrs: nonlazybind uwtable
define { i64, i64 } @"_ZN100_$LT$hashbrown..raw..RawIterHashInner$LT$A$GT$$u20$as$u20$core..iter..traits..iterator..Iterator$GT$4next17hdd1325278bdda391E"(%"hashbrown::raw::RawIterHashInner<alloc::alloc::Global>"* align 16 dereferenceable(48) %self) unnamed_addr #0 {
start:
  %0 = alloca <2 x i64>, align 16
  %1 = alloca <2 x i64>, align 16
  %2 = alloca i8, align 1
  %3 = alloca <2 x i64>, align 16
  %_2 = alloca { i64, i64 }, align 8
  %4 = alloca { i64, i64 }, align 8
  br label %bb1

bb1:                                              ; preds = %bb14, %start
  %_3 = getelementptr inbounds %"hashbrown::raw::RawIterHashInner<alloc::alloc::Global>", %"hashbrown::raw::RawIterHashInner<alloc::alloc::Global>"* %self, i32 0, i32 3
; call <hashbrown::raw::bitmask::BitMaskIter as core::iter::traits::iterator::Iterator>::next
  %5 = call { i64, i64 } @"_ZN95_$LT$hashbrown..raw..bitmask..BitMaskIter$u20$as$u20$core..iter..traits..iterator..Iterator$GT$4next17hae38ff65ad780fe6E"(i16* align 2 dereferenceable(2) %_3)
  store { i64, i64 } %5, { i64, i64 }* %_2, align 8
  br label %bb2

bb2:                                              ; preds = %bb1
  %6 = bitcast { i64, i64 }* %_2 to i64*
  %_4 = load i64, i64* %6, align 8, !range !2
  %7 = icmp eq i64 %_4, 1
  br i1 %7, label %bb3, label %bb4

bb3:                                              ; preds = %bb2
  %8 = bitcast { i64, i64 }* %_2 to %"core::option::Option<usize>::Some"*
  %9 = getelementptr inbounds %"core::option::Option<usize>::Some", %"core::option::Option<usize>::Some"* %8, i32 0, i32 1
  %bit = load i64, i64* %9, align 8
  %10 = getelementptr inbounds %"hashbrown::raw::RawIterHashInner<alloc::alloc::Global>", %"hashbrown::raw::RawIterHashInner<alloc::alloc::Global>"* %self, i32 0, i32 2
  %11 = bitcast { i64, i64 }* %10 to i64*
  %_8 = load i64, i64* %11, align 8
  %_7 = add i64 %_8, %bit
  %12 = getelementptr inbounds %"hashbrown::raw::RawIterHashInner<alloc::alloc::Global>", %"hashbrown::raw::RawIterHashInner<alloc::alloc::Global>"* %self, i32 0, i32 1
  %13 = load %"hashbrown::raw::RawTableInner<alloc::alloc::Global>"*, %"hashbrown::raw::RawTableInner<alloc::alloc::Global>"** %12, align 16, !nonnull !3
  %14 = bitcast %"hashbrown::raw::RawTableInner<alloc::alloc::Global>"* %13 to i64*
  %_10 = load i64, i64* %14, align 8
  %index = and i64 %_7, %_10
  %15 = bitcast { i64, i64 }* %4 to %"core::option::Option<usize>::Some"*
  %16 = getelementptr inbounds %"core::option::Option<usize>::Some", %"core::option::Option<usize>::Some"* %15, i32 0, i32 1
  store i64 %index, i64* %16, align 8
  %17 = bitcast { i64, i64 }* %4 to i64*
  store i64 1, i64* %17, align 8
  br label %bb15

bb4:                                              ; preds = %bb2
  %18 = bitcast %"hashbrown::raw::RawIterHashInner<alloc::alloc::Global>"* %self to <2 x i64>*
  %_15 = load <2 x i64>, <2 x i64>* %18, align 16
  store <2 x i64> %_15, <2 x i64>* %3, align 16
; call hashbrown::raw::sse2::Group::match_empty
  %_14 = call i16 @_ZN9hashbrown3raw4sse25Group11match_empty17h3316e7517f0cda4cE(<2 x i64>* noalias nocapture dereferenceable(16) %3)
  br label %bb5

bb5:                                              ; preds = %bb4
; call hashbrown::raw::bitmask::BitMask::any_bit_set
  %_13 = call zeroext i1 @_ZN9hashbrown3raw7bitmask7BitMask11any_bit_set17h61e7f7be2421c466E(i16 %_14)
  br label %bb6

bb6:                                              ; preds = %bb5
  %19 = call i1 @llvm.expect.i1(i1 %_13, i1 true)
  %20 = zext i1 %19 to i8
  store i8 %20, i8* %2, align 1
  %21 = load i8, i8* %2, align 1, !range !4
  %_12 = trunc i8 %21 to i1
  br label %bb7

bb7:                                              ; preds = %bb6
  br i1 %_12, label %bb8, label %bb9

bb9:                                              ; preds = %bb7
  %_17 = getelementptr inbounds %"hashbrown::raw::RawIterHashInner<alloc::alloc::Global>", %"hashbrown::raw::RawIterHashInner<alloc::alloc::Global>"* %self, i32 0, i32 2
  %22 = getelementptr inbounds %"hashbrown::raw::RawIterHashInner<alloc::alloc::Global>", %"hashbrown::raw::RawIterHashInner<alloc::alloc::Global>"* %self, i32 0, i32 1
  %23 = load %"hashbrown::raw::RawTableInner<alloc::alloc::Global>"*, %"hashbrown::raw::RawTableInner<alloc::alloc::Global>"** %22, align 16, !nonnull !3
  %24 = bitcast %"hashbrown::raw::RawTableInner<alloc::alloc::Global>"* %23 to i64*
  %_18 = load i64, i64* %24, align 8
; call hashbrown::raw::ProbeSeq::move_next
  call void @_ZN9hashbrown3raw8ProbeSeq9move_next17h4ed1df9a9d1ae40cE({ i64, i64 }* align 8 dereferenceable(16) %_17, i64 %_18)
  br label %bb10

bb8:                                              ; preds = %bb7
  %25 = bitcast { i64, i64 }* %4 to i64*
  store i64 0, i64* %25, align 8
  br label %bb15

bb15:                                             ; preds = %bb3, %bb8
  %26 = getelementptr inbounds { i64, i64 }, { i64, i64 }* %4, i32 0, i32 0
  %27 = load i64, i64* %26, align 8, !range !2
  %28 = getelementptr inbounds { i64, i64 }, { i64, i64 }* %4, i32 0, i32 1
  %29 = load i64, i64* %28, align 8
  %30 = insertvalue { i64, i64 } undef, i64 %27, 0
  %31 = insertvalue { i64, i64 } %30, i64 %29, 1
  ret { i64, i64 } %31

bb10:                                             ; preds = %bb9
  %32 = getelementptr inbounds %"hashbrown::raw::RawIterHashInner<alloc::alloc::Global>", %"hashbrown::raw::RawIterHashInner<alloc::alloc::Global>"* %self, i32 0, i32 1
  %_22 = load %"hashbrown::raw::RawTableInner<alloc::alloc::Global>"*, %"hashbrown::raw::RawTableInner<alloc::alloc::Global>"** %32, align 16, !nonnull !3
  %33 = getelementptr inbounds %"hashbrown::raw::RawIterHashInner<alloc::alloc::Global>", %"hashbrown::raw::RawIterHashInner<alloc::alloc::Global>"* %self, i32 0, i32 2
  %34 = bitcast { i64, i64 }* %33 to i64*
  %_23 = load i64, i64* %34, align 8
; call hashbrown::raw::RawTableInner<A>::ctrl
  %_21 = call i8* @"_ZN9hashbrown3raw22RawTableInner$LT$A$GT$4ctrl17he4cd4799ed622d8bE"(%"hashbrown::raw::RawTableInner<alloc::alloc::Global>"* align 8 dereferenceable(32) %_22, i64 %_23)
  br label %bb11

bb11:                                             ; preds = %bb10
; call hashbrown::raw::sse2::Group::load
  call void @_ZN9hashbrown3raw4sse25Group4load17h929c447c903befa1E(<2 x i64>* noalias nocapture sret(<2 x i64>) dereferenceable(16) %1, i8* %_21)
  %_19 = load <2 x i64>, <2 x i64>* %1, align 16
  br label %bb12

bb12:                                             ; preds = %bb11
  %35 = bitcast %"hashbrown::raw::RawIterHashInner<alloc::alloc::Global>"* %self to <2 x i64>*
  store <2 x i64> %_19, <2 x i64>* %35, align 16
  %36 = bitcast %"hashbrown::raw::RawIterHashInner<alloc::alloc::Global>"* %self to <2 x i64>*
  %_26 = load <2 x i64>, <2 x i64>* %36, align 16
  %37 = getelementptr inbounds %"hashbrown::raw::RawIterHashInner<alloc::alloc::Global>", %"hashbrown::raw::RawIterHashInner<alloc::alloc::Global>"* %self, i32 0, i32 4
  %_27 = load i8, i8* %37, align 2
  store <2 x i64> %_26, <2 x i64>* %0, align 16
; call hashbrown::raw::sse2::Group::match_byte
  %_25 = call i16 @_ZN9hashbrown3raw4sse25Group10match_byte17hfcb9e6a3882d5c0bE(<2 x i64>* noalias nocapture dereferenceable(16) %0, i8 %_27)
  br label %bb13

bb13:                                             ; preds = %bb12
; call <hashbrown::raw::bitmask::BitMask as core::iter::traits::collect::IntoIterator>::into_iter
  %_24 = call i16 @"_ZN94_$LT$hashbrown..raw..bitmask..BitMask$u20$as$u20$core..iter..traits..collect..IntoIterator$GT$9into_iter17h8f11dc9ac57d9c38E"(i16 %_25)
  br label %bb14

bb14:                                             ; preds = %bb13
  %38 = getelementptr inbounds %"hashbrown::raw::RawIterHashInner<alloc::alloc::Global>", %"hashbrown::raw::RawIterHashInner<alloc::alloc::Global>"* %self, i32 0, i32 3
  store i16 %_24, i16* %38, align 8
  br label %bb1
}

; <alloc::vec::into_iter::IntoIter<T,A> as core::iter::traits::iterator::Iterator>::next
; Function Attrs: inlinehint nonlazybind uwtable
define { i8*, i64 } @"_ZN103_$LT$alloc..vec..into_iter..IntoIter$LT$T$C$A$GT$$u20$as$u20$core..iter..traits..iterator..Iterator$GT$4next17h9faa5f88aab080eaE"(%"alloc::vec::into_iter::IntoIter<&str>"* align 8 dereferenceable(32) %self) unnamed_addr #1 {
start:
  %0 = alloca { [0 x i8]*, i64 }*, align 8
  %1 = alloca i8*, align 8
  %2 = alloca { i8*, i64 }, align 8
  %3 = getelementptr inbounds %"alloc::vec::into_iter::IntoIter<&str>", %"alloc::vec::into_iter::IntoIter<&str>"* %self, i32 0, i32 4
  %_4 = load { [0 x i8]*, i64 }*, { [0 x i8]*, i64 }** %3, align 8
  %4 = getelementptr inbounds %"alloc::vec::into_iter::IntoIter<&str>", %"alloc::vec::into_iter::IntoIter<&str>"* %self, i32 0, i32 5
  %_5 = load { [0 x i8]*, i64 }*, { [0 x i8]*, i64 }** %4, align 8
  %_2 = icmp eq { [0 x i8]*, i64 }* %_4, %_5
  br i1 %_2, label %bb1, label %bb2

bb2:                                              ; preds = %start
  br label %bb3

bb1:                                              ; preds = %start
  %5 = bitcast { i8*, i64 }* %2 to {}**
  store {}* null, {}** %5, align 8
  br label %bb11

bb11:                                             ; preds = %bb10, %bb1
  %6 = getelementptr inbounds { i8*, i64 }, { i8*, i64 }* %2, i32 0, i32 0
  %7 = load i8*, i8** %6, align 8
  %8 = getelementptr inbounds { i8*, i64 }, { i8*, i64 }* %2, i32 0, i32 1
  %9 = load i64, i64* %8, align 8
  %10 = insertvalue { i8*, i64 } undef, i8* %7, 0
  %11 = insertvalue { i8*, i64 } %10, i64 %9, 1
  ret { i8*, i64 } %11

bb3:                                              ; preds = %bb2
  %12 = icmp eq i64 16, 0
  br i1 %12, label %bb4, label %bb7

bb4:                                              ; preds = %bb3
  %13 = getelementptr inbounds %"alloc::vec::into_iter::IntoIter<&str>", %"alloc::vec::into_iter::IntoIter<&str>"* %self, i32 0, i32 4
  %_11 = load { [0 x i8]*, i64 }*, { [0 x i8]*, i64 }** %13, align 8
  %_10 = bitcast { [0 x i8]*, i64 }* %_11 to i8*
  %14 = getelementptr i8, i8* %_10, i64 1
  store i8* %14, i8** %1, align 8
  %_9 = load i8*, i8** %1, align 8
  br label %bb5

bb7:                                              ; preds = %bb3
  %15 = getelementptr inbounds %"alloc::vec::into_iter::IntoIter<&str>", %"alloc::vec::into_iter::IntoIter<&str>"* %self, i32 0, i32 4
  %old = load { [0 x i8]*, i64 }*, { [0 x i8]*, i64 }** %15, align 8
  %16 = getelementptr inbounds %"alloc::vec::into_iter::IntoIter<&str>", %"alloc::vec::into_iter::IntoIter<&str>"* %self, i32 0, i32 4
  %_15 = load { [0 x i8]*, i64 }*, { [0 x i8]*, i64 }** %16, align 8
  %17 = getelementptr inbounds { [0 x i8]*, i64 }, { [0 x i8]*, i64 }* %_15, i64 1
  store { [0 x i8]*, i64 }* %17, { [0 x i8]*, i64 }** %0, align 8
  %18 = load { [0 x i8]*, i64 }*, { [0 x i8]*, i64 }** %0, align 8
  br label %bb8

bb8:                                              ; preds = %bb7
  %19 = getelementptr inbounds %"alloc::vec::into_iter::IntoIter<&str>", %"alloc::vec::into_iter::IntoIter<&str>"* %self, i32 0, i32 4
  store { [0 x i8]*, i64 }* %18, { [0 x i8]*, i64 }** %19, align 8
; call core::ptr::read
  %20 = call { [0 x i8]*, i64 } @_ZN4core3ptr4read17h6180861ee271f480E({ [0 x i8]*, i64 }* %old)
  %_16.0 = extractvalue { [0 x i8]*, i64 } %20, 0
  %_16.1 = extractvalue { [0 x i8]*, i64 } %20, 1
  br label %bb9

bb9:                                              ; preds = %bb8
  %21 = bitcast { i8*, i64 }* %2 to { [0 x i8]*, i64 }*
  %22 = getelementptr inbounds { [0 x i8]*, i64 }, { [0 x i8]*, i64 }* %21, i32 0, i32 0
  store [0 x i8]* %_16.0, [0 x i8]** %22, align 8
  %23 = getelementptr inbounds { [0 x i8]*, i64 }, { [0 x i8]*, i64 }* %21, i32 0, i32 1
  store i64 %_16.1, i64* %23, align 8
  br label %bb10

bb10:                                             ; preds = %bb6, %bb9
  br label %bb11

bb5:                                              ; preds = %bb4
  %_8 = bitcast i8* %_9 to { [0 x i8]*, i64 }*
  %24 = getelementptr inbounds %"alloc::vec::into_iter::IntoIter<&str>", %"alloc::vec::into_iter::IntoIter<&str>"* %self, i32 0, i32 4
  store { [0 x i8]*, i64 }* %_8, { [0 x i8]*, i64 }** %24, align 8
; call core::panicking::panic
  call void @_ZN4core9panicking5panic17ha5ca6c77bd7d16dbE([0 x i8]* nonnull align 1 bitcast ([58 x i8]* @str.3 to [0 x i8]*), i64 58, %"core::panic::location::Location"* align 8 dereferenceable(24) bitcast (<{ i8*, [16 x i8] }>* @alloc467 to %"core::panic::location::Location"*)) #20
; call core::mem::maybe_uninit::MaybeUninit<T>::zeroed
  %25 = call { i8*, i64 } @"_ZN4core3mem12maybe_uninit20MaybeUninit$LT$T$GT$6zeroed17h9e148ca4c09fbb82E"()
  %_2.0.i = extractvalue { i8*, i64 } %25, 0
  %_2.1.i = extractvalue { i8*, i64 } %25, 1
  %26 = bitcast i8* %_2.0.i to [0 x i8]*
  %27 = insertvalue { [0 x i8]*, i64 } undef, [0 x i8]* %26, 0
  %28 = insertvalue { [0 x i8]*, i64 } %27, i64 %_2.1.i, 1
  %29 = insertvalue { [0 x i8]*, i64 } undef, [0 x i8]* %26, 0
  %30 = insertvalue { [0 x i8]*, i64 } %29, i64 %_2.1.i, 1
  %31 = insertvalue { [0 x i8]*, i64 } undef, [0 x i8]* %26, 0
  %32 = insertvalue { [0 x i8]*, i64 } %31, i64 %_2.1.i, 1
  %_12.0 = extractvalue { [0 x i8]*, i64 } %32, 0
  %_12.1 = extractvalue { [0 x i8]*, i64 } %32, 1
  br label %bb6

bb6:                                              ; preds = %bb5
  %33 = bitcast { i8*, i64 }* %2 to { [0 x i8]*, i64 }*
  %34 = getelementptr inbounds { [0 x i8]*, i64 }, { [0 x i8]*, i64 }* %33, i32 0, i32 0
  store [0 x i8]* %_12.0, [0 x i8]** %34, align 8
  %35 = getelementptr inbounds { [0 x i8]*, i64 }, { [0 x i8]*, i64 }* %33, i32 0, i32 1
  store i64 %_12.1, i64* %35, align 8
  br label %bb10
}

; <alloc::vec::into_iter::IntoIter<T,A> as core::iter::traits::iterator::Iterator>::size_hint
; Function Attrs: inlinehint nonlazybind uwtable
define void @"_ZN103_$LT$alloc..vec..into_iter..IntoIter$LT$T$C$A$GT$$u20$as$u20$core..iter..traits..iterator..Iterator$GT$9size_hint17h3517c4953fce235fE"({ i64, { i64, i64 } }* noalias nocapture sret({ i64, { i64, i64 } }) dereferenceable(24) %0, %"alloc::vec::into_iter::IntoIter<&str>"* align 8 dereferenceable(32) %self) unnamed_addr #1 {
start:
  %_12 = alloca { i64, i64 }, align 8
  %exact = alloca i64, align 8
  br label %bb1

bb1:                                              ; preds = %start
  %1 = icmp eq i64 16, 0
  br i1 %1, label %bb2, label %bb4

bb2:                                              ; preds = %bb1
  %2 = getelementptr inbounds %"alloc::vec::into_iter::IntoIter<&str>", %"alloc::vec::into_iter::IntoIter<&str>"* %self, i32 0, i32 5
  %_5 = load { [0 x i8]*, i64 }*, { [0 x i8]*, i64 }** %2, align 8
  %_4 = ptrtoint { [0 x i8]*, i64 }* %_5 to i64
  %3 = getelementptr inbounds %"alloc::vec::into_iter::IntoIter<&str>", %"alloc::vec::into_iter::IntoIter<&str>"* %self, i32 0, i32 4
  %_7 = load { [0 x i8]*, i64 }*, { [0 x i8]*, i64 }** %3, align 8
  %_6 = ptrtoint { [0 x i8]*, i64 }* %_7 to i64
  %4 = sub i64 %_4, %_6
  store i64 %4, i64* %exact, align 8
  br label %bb3

bb4:                                              ; preds = %bb1
  %5 = getelementptr inbounds %"alloc::vec::into_iter::IntoIter<&str>", %"alloc::vec::into_iter::IntoIter<&str>"* %self, i32 0, i32 5
  %_9 = load { [0 x i8]*, i64 }*, { [0 x i8]*, i64 }** %5, align 8
  %6 = getelementptr inbounds %"alloc::vec::into_iter::IntoIter<&str>", %"alloc::vec::into_iter::IntoIter<&str>"* %self, i32 0, i32 4
  %_10 = load { [0 x i8]*, i64 }*, { [0 x i8]*, i64 }** %6, align 8
; call core::ptr::const_ptr::<impl *const T>::offset_from
  %_8 = call i64 @"_ZN4core3ptr9const_ptr33_$LT$impl$u20$$BP$const$u20$T$GT$11offset_from17h56ac58c52849cb49E"({ [0 x i8]*, i64 }* %_9, { [0 x i8]*, i64 }* %_10)
  br label %bb5

bb5:                                              ; preds = %bb4
  store i64 %_8, i64* %exact, align 8
  br label %bb6

bb6:                                              ; preds = %bb3, %bb5
  %_11 = load i64, i64* %exact, align 8
  %_13 = load i64, i64* %exact, align 8
  %7 = bitcast { i64, i64 }* %_12 to %"core::option::Option<usize>::Some"*
  %8 = getelementptr inbounds %"core::option::Option<usize>::Some", %"core::option::Option<usize>::Some"* %7, i32 0, i32 1
  store i64 %_13, i64* %8, align 8
  %9 = bitcast { i64, i64 }* %_12 to i64*
  store i64 1, i64* %9, align 8
  %10 = bitcast { i64, { i64, i64 } }* %0 to i64*
  store i64 %_11, i64* %10, align 8
  %11 = getelementptr inbounds { i64, { i64, i64 } }, { i64, { i64, i64 } }* %0, i32 0, i32 1
  %12 = getelementptr inbounds { i64, i64 }, { i64, i64 }* %_12, i32 0, i32 0
  %13 = load i64, i64* %12, align 8, !range !2
  %14 = getelementptr inbounds { i64, i64 }, { i64, i64 }* %_12, i32 0, i32 1
  %15 = load i64, i64* %14, align 8
  %16 = getelementptr inbounds { i64, i64 }, { i64, i64 }* %11, i32 0, i32 0
  store i64 %13, i64* %16, align 8
  %17 = getelementptr inbounds { i64, i64 }, { i64, i64 }* %11, i32 0, i32 1
  store i64 %15, i64* %17, align 8
  ret void

bb3:                                              ; preds = %bb2
  br label %bb6
}

; <core::ops::control_flow::ControlFlow<B,C> as core::ops::try_trait::FromResidual>::from_residual
; Function Attrs: inlinehint nonlazybind uwtable
define { i8*, i64 } @"_ZN104_$LT$core..ops..control_flow..ControlFlow$LT$B$C$C$GT$$u20$as$u20$core..ops..try_trait..FromResidual$GT$13from_residual17h28cf73313e086464E"(i8* nonnull align 1 %0, i64 %1) unnamed_addr #1 {
start:
  %2 = alloca { i8*, i64 }, align 8
  %residual = alloca { i8*, i64 }, align 8
  %3 = getelementptr inbounds { i8*, i64 }, { i8*, i64 }* %residual, i32 0, i32 0
  store i8* %0, i8** %3, align 8
  %4 = getelementptr inbounds { i8*, i64 }, { i8*, i64 }* %residual, i32 0, i32 1
  store i64 %1, i64* %4, align 8
  %5 = bitcast { i8*, i64 }* %residual to { [0 x i8]*, i64 }*
  %6 = getelementptr inbounds { [0 x i8]*, i64 }, { [0 x i8]*, i64 }* %5, i32 0, i32 0
  %b.0 = load [0 x i8]*, [0 x i8]** %6, align 8, !nonnull !3
  %7 = getelementptr inbounds { [0 x i8]*, i64 }, { [0 x i8]*, i64 }* %5, i32 0, i32 1
  %b.1 = load i64, i64* %7, align 8
  %8 = bitcast { i8*, i64 }* %2 to { [0 x i8]*, i64 }*
  %9 = getelementptr inbounds { [0 x i8]*, i64 }, { [0 x i8]*, i64 }* %8, i32 0, i32 0
  store [0 x i8]* %b.0, [0 x i8]** %9, align 8
  %10 = getelementptr inbounds { [0 x i8]*, i64 }, { [0 x i8]*, i64 }* %8, i32 0, i32 1
  store i64 %b.1, i64* %10, align 8
  %11 = getelementptr inbounds { i8*, i64 }, { i8*, i64 }* %2, i32 0, i32 0
  %12 = load i8*, i8** %11, align 8
  %13 = getelementptr inbounds { i8*, i64 }, { i8*, i64 }* %2, i32 0, i32 1
  %14 = load i64, i64* %13, align 8
  %15 = insertvalue { i8*, i64 } undef, i8* %12, 0
  %16 = insertvalue { i8*, i64 } %15, i64 %14, 1
  ret { i8*, i64 } %16
}

; <core::iter::adapters::step_by::StepBy<I> as core::iter::traits::iterator::Iterator>::next
; Function Attrs: inlinehint nonlazybind uwtable
define { i64, i64 } @"_ZN105_$LT$core..iter..adapters..step_by..StepBy$LT$I$GT$$u20$as$u20$core..iter..traits..iterator..Iterator$GT$4next17h0ad93d812beea318E"(%"core::iter::adapters::step_by::StepBy<core::ops::range::Range<usize>>"* align 8 dereferenceable(32) %self) unnamed_addr #1 {
start:
  %0 = alloca { i64, i64 }, align 8
  %1 = getelementptr inbounds %"core::iter::adapters::step_by::StepBy<core::ops::range::Range<usize>>", %"core::iter::adapters::step_by::StepBy<core::ops::range::Range<usize>>"* %self, i32 0, i32 2
  %2 = load i8, i8* %1, align 8, !range !4
  %_2 = trunc i8 %2 to i1
  br i1 %_2, label %bb1, label %bb3

bb3:                                              ; preds = %start
  %_4 = bitcast %"core::iter::adapters::step_by::StepBy<core::ops::range::Range<usize>>"* %self to { i64, i64 }*
  %3 = getelementptr inbounds %"core::iter::adapters::step_by::StepBy<core::ops::range::Range<usize>>", %"core::iter::adapters::step_by::StepBy<core::ops::range::Range<usize>>"* %self, i32 0, i32 1
  %_5 = load i64, i64* %3, align 8
; call core::iter::range::<impl core::iter::traits::iterator::Iterator for core::ops::range::Range<A>>::nth
  %4 = call { i64, i64 } @"_ZN4core4iter5range101_$LT$impl$u20$core..iter..traits..iterator..Iterator$u20$for$u20$core..ops..range..Range$LT$A$GT$$GT$3nth17h4f99d1afb93cd51cE"({ i64, i64 }* align 8 dereferenceable(16) %_4, i64 %_5)
  store { i64, i64 } %4, { i64, i64 }* %0, align 8
  br label %bb4

bb1:                                              ; preds = %start
  %5 = getelementptr inbounds %"core::iter::adapters::step_by::StepBy<core::ops::range::Range<usize>>", %"core::iter::adapters::step_by::StepBy<core::ops::range::Range<usize>>"* %self, i32 0, i32 2
  store i8 0, i8* %5, align 8
  %_3 = bitcast %"core::iter::adapters::step_by::StepBy<core::ops::range::Range<usize>>"* %self to { i64, i64 }*
; call core::iter::range::<impl core::iter::traits::iterator::Iterator for core::ops::range::Range<A>>::next
  %6 = call { i64, i64 } @"_ZN4core4iter5range101_$LT$impl$u20$core..iter..traits..iterator..Iterator$u20$for$u20$core..ops..range..Range$LT$A$GT$$GT$4next17h0e85e17e0284a4dfE"({ i64, i64 }* align 8 dereferenceable(16) %_3)
  store { i64, i64 } %6, { i64, i64 }* %0, align 8
  br label %bb2

bb2:                                              ; preds = %bb1
  br label %bb5

bb5:                                              ; preds = %bb4, %bb2
  %7 = getelementptr inbounds { i64, i64 }, { i64, i64 }* %0, i32 0, i32 0
  %8 = load i64, i64* %7, align 8, !range !2
  %9 = getelementptr inbounds { i64, i64 }, { i64, i64 }* %0, i32 0, i32 1
  %10 = load i64, i64* %9, align 8
  %11 = insertvalue { i64, i64 } undef, i64 %8, 0
  %12 = insertvalue { i64, i64 } %11, i64 %10, 1
  ret { i64, i64 } %12

bb4:                                              ; preds = %bb3
  br label %bb5
}

; <core::ops::range::Range<usize> as core::slice::index::SliceIndex<[T]>>::get_unchecked
; Function Attrs: inlinehint nonlazybind uwtable
define { [0 x i8]*, i64 } @"_ZN106_$LT$core..ops..range..Range$LT$usize$GT$$u20$as$u20$core..slice..index..SliceIndex$LT$$u5b$T$u5d$$GT$$GT$13get_unchecked17hca1d89c8ca04d749E"(i64 %self.0, i64 %self.1, [0 x i8]* %slice.0, i64 %slice.1) unnamed_addr #1 {
start:
  %0 = alloca i8*, align 8
; call core::ptr::const_ptr::<impl *const [T]>::as_ptr
  %_4 = call i8* @"_ZN4core3ptr9const_ptr43_$LT$impl$u20$$BP$const$u20$$u5b$T$u5d$$GT$6as_ptr17h33c8fef928034592E"([0 x i8]* %slice.0, i64 %slice.1)
  br label %bb1

bb1:                                              ; preds = %start
  %1 = getelementptr inbounds i8, i8* %_4, i64 %self.0
  store i8* %1, i8** %0, align 8
  %2 = load i8*, i8** %0, align 8
  br label %bb2

bb2:                                              ; preds = %bb1
  %_7 = sub i64 %self.1, %self.0
; call core::ptr::slice_from_raw_parts
  %3 = call { [0 x i8]*, i64 } @_ZN4core3ptr20slice_from_raw_parts17hf5bb20055aa66712E(i8* %2, i64 %_7)
  %4 = extractvalue { [0 x i8]*, i64 } %3, 0
  %5 = extractvalue { [0 x i8]*, i64 } %3, 1
  br label %bb3

bb3:                                              ; preds = %bb2
  %6 = insertvalue { [0 x i8]*, i64 } undef, [0 x i8]* %4, 0
  %7 = insertvalue { [0 x i8]*, i64 } %6, i64 %5, 1
  ret { [0 x i8]*, i64 } %7
}

; <core::ops::range::Range<usize> as core::slice::index::SliceIndex<[T]>>::get_unchecked_mut
; Function Attrs: inlinehint nonlazybind uwtable
define { [0 x i8]*, i64 } @"_ZN106_$LT$core..ops..range..Range$LT$usize$GT$$u20$as$u20$core..slice..index..SliceIndex$LT$$u5b$T$u5d$$GT$$GT$17get_unchecked_mut17h68dce87c441efd70E"(i64 %self.0, i64 %self.1, [0 x i8]* %slice.0, i64 %slice.1) unnamed_addr #1 {
start:
  %0 = alloca i8*, align 8
  %1 = bitcast [0 x i8]* %slice.0 to i8*
  br label %bb1

bb1:                                              ; preds = %start
  %2 = getelementptr inbounds i8, i8* %1, i64 %self.0
  store i8* %2, i8** %0, align 8
  %_3.i.i = load i8*, i8** %0, align 8
  br label %bb2

bb2:                                              ; preds = %bb1
  %_7 = sub i64 %self.1, %self.0
; call core::ptr::slice_from_raw_parts_mut
  %3 = call { [0 x i8]*, i64 } @_ZN4core3ptr24slice_from_raw_parts_mut17h2a23878c8d823489E(i8* %_3.i.i, i64 %_7)
  %4 = extractvalue { [0 x i8]*, i64 } %3, 0
  %5 = extractvalue { [0 x i8]*, i64 } %3, 1
  br label %bb3

bb3:                                              ; preds = %bb2
  %6 = insertvalue { [0 x i8]*, i64 } undef, [0 x i8]* %4, 0
  %7 = insertvalue { [0 x i8]*, i64 } %6, i64 %5, 1
  ret { [0 x i8]*, i64 } %7
}

; <core::ops::range::Range<usize> as core::slice::index::SliceIndex<[T]>>::get_unchecked_mut
; Function Attrs: inlinehint nonlazybind uwtable
define { [0 x i32]*, i64 } @"_ZN106_$LT$core..ops..range..Range$LT$usize$GT$$u20$as$u20$core..slice..index..SliceIndex$LT$$u5b$T$u5d$$GT$$GT$17get_unchecked_mut17hd08b356366a4c007E"(i64 %self.0, i64 %self.1, [0 x i32]* %slice.0, i64 %slice.1) unnamed_addr #1 {
start:
  %0 = alloca i32*, align 8
  %1 = bitcast [0 x i32]* %slice.0 to i32*
  br label %bb1

bb1:                                              ; preds = %start
  %2 = getelementptr inbounds i32, i32* %1, i64 %self.0
  store i32* %2, i32** %0, align 8
  %_3.i.i = load i32*, i32** %0, align 8
  br label %bb2

bb2:                                              ; preds = %bb1
  %_7 = sub i64 %self.1, %self.0
; call core::ptr::slice_from_raw_parts_mut
  %3 = call { [0 x i32]*, i64 } @_ZN4core3ptr24slice_from_raw_parts_mut17h5ccde716743148f3E(i32* %_3.i.i, i64 %_7)
  %4 = extractvalue { [0 x i32]*, i64 } %3, 0
  %5 = extractvalue { [0 x i32]*, i64 } %3, 1
  br label %bb3

bb3:                                              ; preds = %bb2
  %6 = insertvalue { [0 x i32]*, i64 } undef, [0 x i32]* %4, 0
  %7 = insertvalue { [0 x i32]*, i64 } %6, i64 %5, 1
  ret { [0 x i32]*, i64 } %7
}

; <core::ops::range::Range<usize> as core::slice::index::SliceIndex<[T]>>::index_mut
; Function Attrs: inlinehint nonlazybind uwtable
define { [0 x i8]*, i64 } @"_ZN106_$LT$core..ops..range..Range$LT$usize$GT$$u20$as$u20$core..slice..index..SliceIndex$LT$$u5b$T$u5d$$GT$$GT$9index_mut17h65df7b68350f6fb3E"(i64 %self.0, i64 %self.1, [0 x i8]* nonnull align 1 %slice.0, i64 %slice.1, %"core::panic::location::Location"* align 8 dereferenceable(24) %0) unnamed_addr #1 {
start:
  %_4 = icmp ugt i64 %self.0, %self.1
  br i1 %_4, label %bb1, label %bb2

bb2:                                              ; preds = %start
  %_9 = icmp ugt i64 %self.1, %slice.1
  br i1 %_9, label %bb3, label %bb4

bb1:                                              ; preds = %start
; call core::slice::index::slice_index_order_fail
  call void @_ZN4core5slice5index22slice_index_order_fail17hf6d6ed6dae21e8e9E(i64 %self.0, i64 %self.1, %"core::panic::location::Location"* align 8 dereferenceable(24) %0) #20
  unreachable

bb4:                                              ; preds = %bb2
; call <core::ops::range::Range<usize> as core::slice::index::SliceIndex<[T]>>::get_unchecked_mut
  %1 = call { [0 x i8]*, i64 } @"_ZN106_$LT$core..ops..range..Range$LT$usize$GT$$u20$as$u20$core..slice..index..SliceIndex$LT$$u5b$T$u5d$$GT$$GT$17get_unchecked_mut17h68dce87c441efd70E"(i64 %self.0, i64 %self.1, [0 x i8]* %slice.0, i64 %slice.1)
  %_18.0 = extractvalue { [0 x i8]*, i64 } %1, 0
  %_18.1 = extractvalue { [0 x i8]*, i64 } %1, 1
  br label %bb5

bb3:                                              ; preds = %bb2
; call core::slice::index::slice_end_index_len_fail
  call void @_ZN4core5slice5index24slice_end_index_len_fail17h811b684e8de6a021E(i64 %self.1, i64 %slice.1, %"core::panic::location::Location"* align 8 dereferenceable(24) %0) #20
  unreachable

bb5:                                              ; preds = %bb4
  %2 = insertvalue { [0 x i8]*, i64 } undef, [0 x i8]* %_18.0, 0
  %3 = insertvalue { [0 x i8]*, i64 } %2, i64 %_18.1, 1
  ret { [0 x i8]*, i64 } %3
}

; <core::ops::range::Range<usize> as core::slice::index::SliceIndex<[T]>>::index_mut
; Function Attrs: inlinehint nonlazybind uwtable
define { [0 x i32]*, i64 } @"_ZN106_$LT$core..ops..range..Range$LT$usize$GT$$u20$as$u20$core..slice..index..SliceIndex$LT$$u5b$T$u5d$$GT$$GT$9index_mut17hc2d640440e7d18dcE"(i64 %self.0, i64 %self.1, [0 x i32]* nonnull align 4 %slice.0, i64 %slice.1, %"core::panic::location::Location"* align 8 dereferenceable(24) %0) unnamed_addr #1 {
start:
  %_4 = icmp ugt i64 %self.0, %self.1
  br i1 %_4, label %bb1, label %bb2

bb2:                                              ; preds = %start
  %_9 = icmp ugt i64 %self.1, %slice.1
  br i1 %_9, label %bb3, label %bb4

bb1:                                              ; preds = %start
; call core::slice::index::slice_index_order_fail
  call void @_ZN4core5slice5index22slice_index_order_fail17hf6d6ed6dae21e8e9E(i64 %self.0, i64 %self.1, %"core::panic::location::Location"* align 8 dereferenceable(24) %0) #20
  unreachable

bb4:                                              ; preds = %bb2
; call <core::ops::range::Range<usize> as core::slice::index::SliceIndex<[T]>>::get_unchecked_mut
  %1 = call { [0 x i32]*, i64 } @"_ZN106_$LT$core..ops..range..Range$LT$usize$GT$$u20$as$u20$core..slice..index..SliceIndex$LT$$u5b$T$u5d$$GT$$GT$17get_unchecked_mut17hd08b356366a4c007E"(i64 %self.0, i64 %self.1, [0 x i32]* %slice.0, i64 %slice.1)
  %_18.0 = extractvalue { [0 x i32]*, i64 } %1, 0
  %_18.1 = extractvalue { [0 x i32]*, i64 } %1, 1
  br label %bb5

bb3:                                              ; preds = %bb2
; call core::slice::index::slice_end_index_len_fail
  call void @_ZN4core5slice5index24slice_end_index_len_fail17h811b684e8de6a021E(i64 %self.1, i64 %slice.1, %"core::panic::location::Location"* align 8 dereferenceable(24) %0) #20
  unreachable

bb5:                                              ; preds = %bb4
  %2 = insertvalue { [0 x i32]*, i64 } undef, [0 x i32]* %_18.0, 0
  %3 = insertvalue { [0 x i32]*, i64 } %2, i64 %_18.1, 1
  ret { [0 x i32]*, i64 } %3
}

; <core::iter::adapters::filter::Filter<I,P> as core::iter::traits::iterator::Iterator>::next
; Function Attrs: inlinehint nonlazybind uwtable
define { i8*, i64 } @"_ZN108_$LT$core..iter..adapters..filter..Filter$LT$I$C$P$GT$$u20$as$u20$core..iter..traits..iterator..Iterator$GT$4next17h4d5b87ca12f549c3E"(%"core::iter::adapters::filter::Filter<core::str::iter::Split<core::str::IsWhitespace>, core::str::IsNotEmpty>"* align 8 dereferenceable(64) %self) unnamed_addr #1 {
start:
  %_2 = bitcast %"core::iter::adapters::filter::Filter<core::str::iter::Split<core::str::IsWhitespace>, core::str::IsNotEmpty>"* %self to %"core::str::iter::Split<core::str::IsWhitespace>"*
  %_3 = bitcast %"core::iter::adapters::filter::Filter<core::str::iter::Split<core::str::IsWhitespace>, core::str::IsNotEmpty>"* %self to %"core::str::IsNotEmpty"*
; call core::iter::traits::iterator::Iterator::find
  %0 = call { i8*, i64 } @_ZN4core4iter6traits8iterator8Iterator4find17h836272c70930cc58E(%"core::str::iter::Split<core::str::IsWhitespace>"* align 8 dereferenceable(64) %_2, %"core::str::IsNotEmpty"* nonnull align 1 %_3)
  %1 = extractvalue { i8*, i64 } %0, 0
  %2 = extractvalue { i8*, i64 } %0, 1
  br label %bb1

bb1:                                              ; preds = %start
  %3 = insertvalue { i8*, i64 } undef, i8* %1, 0
  %4 = insertvalue { i8*, i64 } %3, i64 %2, 1
  ret { i8*, i64 } %4
}

; <core::iter::adapters::filter::Filter<I,P> as core::iter::traits::iterator::Iterator>::size_hint
; Function Attrs: inlinehint nonlazybind uwtable
define void @"_ZN108_$LT$core..iter..adapters..filter..Filter$LT$I$C$P$GT$$u20$as$u20$core..iter..traits..iterator..Iterator$GT$9size_hint17h75f7ca3554f872d0E"({ i64, { i64, i64 } }* noalias nocapture sret({ i64, { i64, i64 } }) dereferenceable(24) %0, %"core::iter::adapters::filter::Filter<core::str::iter::Split<core::str::IsWhitespace>, core::str::IsNotEmpty>"* align 8 dereferenceable(64) %self) unnamed_addr #1 {
start:
  %_3 = alloca { i64, { i64, i64 } }, align 8
  %_4 = bitcast %"core::iter::adapters::filter::Filter<core::str::iter::Split<core::str::IsWhitespace>, core::str::IsNotEmpty>"* %self to %"core::str::iter::Split<core::str::IsWhitespace>"*
; call core::iter::traits::iterator::Iterator::size_hint
  call void @_ZN4core4iter6traits8iterator8Iterator9size_hint17he9c72383f4646d51E({ i64, { i64, i64 } }* noalias nocapture sret({ i64, { i64, i64 } }) dereferenceable(24) %_3, %"core::str::iter::Split<core::str::IsWhitespace>"* align 8 dereferenceable(64) %_4)
  br label %bb1

bb1:                                              ; preds = %start
  %1 = getelementptr inbounds { i64, { i64, i64 } }, { i64, { i64, i64 } }* %_3, i32 0, i32 1
  %2 = getelementptr inbounds { i64, i64 }, { i64, i64 }* %1, i32 0, i32 0
  %upper.0 = load i64, i64* %2, align 8, !range !2
  %3 = getelementptr inbounds { i64, i64 }, { i64, i64 }* %1, i32 0, i32 1
  %upper.1 = load i64, i64* %3, align 8
  %4 = bitcast { i64, { i64, i64 } }* %0 to i64*
  store i64 0, i64* %4, align 8
  %5 = getelementptr inbounds { i64, { i64, i64 } }, { i64, { i64, i64 } }* %0, i32 0, i32 1
  %6 = getelementptr inbounds { i64, i64 }, { i64, i64 }* %5, i32 0, i32 0
  store i64 %upper.0, i64* %6, align 8
  %7 = getelementptr inbounds { i64, i64 }, { i64, i64 }* %5, i32 0, i32 1
  store i64 %upper.1, i64* %7, align 8
  ret void
}

; <core::ops::range::RangeTo<usize> as core::slice::index::SliceIndex<[T]>>::index_mut
; Function Attrs: inlinehint nonlazybind uwtable
define { [0 x i8]*, i64 } @"_ZN108_$LT$core..ops..range..RangeTo$LT$usize$GT$$u20$as$u20$core..slice..index..SliceIndex$LT$$u5b$T$u5d$$GT$$GT$9index_mut17hdb8aa586d2fbfc24E"(i64 %self, [0 x i8]* nonnull align 1 %slice.0, i64 %slice.1, %"core::panic::location::Location"* align 8 dereferenceable(24) %0) unnamed_addr #1 {
start:
  %_5 = alloca { i64, i64 }, align 8
  %1 = bitcast { i64, i64 }* %_5 to i64*
  store i64 0, i64* %1, align 8
  %2 = getelementptr inbounds { i64, i64 }, { i64, i64 }* %_5, i32 0, i32 1
  store i64 %self, i64* %2, align 8
  %3 = getelementptr inbounds { i64, i64 }, { i64, i64 }* %_5, i32 0, i32 0
  %4 = load i64, i64* %3, align 8
  %5 = getelementptr inbounds { i64, i64 }, { i64, i64 }* %_5, i32 0, i32 1
  %6 = load i64, i64* %5, align 8
; call <core::ops::range::Range<usize> as core::slice::index::SliceIndex<[T]>>::index_mut
  %7 = call { [0 x i8]*, i64 } @"_ZN106_$LT$core..ops..range..Range$LT$usize$GT$$u20$as$u20$core..slice..index..SliceIndex$LT$$u5b$T$u5d$$GT$$GT$9index_mut17h65df7b68350f6fb3E"(i64 %4, i64 %6, [0 x i8]* nonnull align 1 %slice.0, i64 %slice.1, %"core::panic::location::Location"* align 8 dereferenceable(24) %0)
  %_4.0 = extractvalue { [0 x i8]*, i64 } %7, 0
  %_4.1 = extractvalue { [0 x i8]*, i64 } %7, 1
  br label %bb1

bb1:                                              ; preds = %start
  %8 = insertvalue { [0 x i8]*, i64 } undef, [0 x i8]* %_4.0, 0
  %9 = insertvalue { [0 x i8]*, i64 } %8, i64 %_4.1, 1
  ret { [0 x i8]*, i64 } %9
}

; <core::ops::range::RangeFrom<usize> as core::slice::index::SliceIndex<[T]>>::get_unchecked
; Function Attrs: inlinehint nonlazybind uwtable
define { [0 x i8]*, i64 } @"_ZN110_$LT$core..ops..range..RangeFrom$LT$usize$GT$$u20$as$u20$core..slice..index..SliceIndex$LT$$u5b$T$u5d$$GT$$GT$13get_unchecked17hb9852e074c53aec2E"(i64 %self, [0 x i8]* %slice.0, i64 %slice.1) unnamed_addr #1 {
start:
  %_3 = alloca { i64, i64 }, align 8
; call core::ptr::const_ptr::<impl *const [T]>::len
  %_5 = call i64 @"_ZN4core3ptr9const_ptr43_$LT$impl$u20$$BP$const$u20$$u5b$T$u5d$$GT$3len17h09b58e9b0c38ed9dE"([0 x i8]* %slice.0, i64 %slice.1)
  br label %bb1

bb1:                                              ; preds = %start
  %0 = bitcast { i64, i64 }* %_3 to i64*
  store i64 %self, i64* %0, align 8
  %1 = getelementptr inbounds { i64, i64 }, { i64, i64 }* %_3, i32 0, i32 1
  store i64 %_5, i64* %1, align 8
  %2 = getelementptr inbounds { i64, i64 }, { i64, i64 }* %_3, i32 0, i32 0
  %3 = load i64, i64* %2, align 8
  %4 = getelementptr inbounds { i64, i64 }, { i64, i64 }* %_3, i32 0, i32 1
  %5 = load i64, i64* %4, align 8
; call <core::ops::range::Range<usize> as core::slice::index::SliceIndex<[T]>>::get_unchecked
  %6 = call { [0 x i8]*, i64 } @"_ZN106_$LT$core..ops..range..Range$LT$usize$GT$$u20$as$u20$core..slice..index..SliceIndex$LT$$u5b$T$u5d$$GT$$GT$13get_unchecked17hca1d89c8ca04d749E"(i64 %3, i64 %5, [0 x i8]* %slice.0, i64 %slice.1)
  %7 = extractvalue { [0 x i8]*, i64 } %6, 0
  %8 = extractvalue { [0 x i8]*, i64 } %6, 1
  br label %bb2

bb2:                                              ; preds = %bb1
  %9 = insertvalue { [0 x i8]*, i64 } undef, [0 x i8]* %7, 0
  %10 = insertvalue { [0 x i8]*, i64 } %9, i64 %8, 1
  ret { [0 x i8]*, i64 } %10
}

; <core::ops::range::RangeFrom<usize> as core::slice::index::SliceIndex<[T]>>::index
; Function Attrs: inlinehint nonlazybind uwtable
define { [0 x i8]*, i64 } @"_ZN110_$LT$core..ops..range..RangeFrom$LT$usize$GT$$u20$as$u20$core..slice..index..SliceIndex$LT$$u5b$T$u5d$$GT$$GT$5index17h1f27fe3d8735d746E"(i64 %self, [0 x i8]* nonnull align 1 %slice.0, i64 %slice.1, %"core::panic::location::Location"* align 8 dereferenceable(24) %0) unnamed_addr #1 {
start:
  %_3 = icmp ugt i64 %self, %slice.1
  br i1 %_3, label %bb1, label %bb2

bb2:                                              ; preds = %start
; call <core::ops::range::RangeFrom<usize> as core::slice::index::SliceIndex<[T]>>::get_unchecked
  %1 = call { [0 x i8]*, i64 } @"_ZN110_$LT$core..ops..range..RangeFrom$LT$usize$GT$$u20$as$u20$core..slice..index..SliceIndex$LT$$u5b$T$u5d$$GT$$GT$13get_unchecked17hb9852e074c53aec2E"(i64 %self, [0 x i8]* %slice.0, i64 %slice.1)
  %_10.0 = extractvalue { [0 x i8]*, i64 } %1, 0
  %_10.1 = extractvalue { [0 x i8]*, i64 } %1, 1
  br label %bb3

bb1:                                              ; preds = %start
; call core::slice::index::slice_start_index_len_fail
  call void @_ZN4core5slice5index26slice_start_index_len_fail17h429384a76db70f0fE(i64 %self, i64 %slice.1, %"core::panic::location::Location"* align 8 dereferenceable(24) %0) #20
  unreachable

bb3:                                              ; preds = %bb2
  %2 = insertvalue { [0 x i8]*, i64 } undef, [0 x i8]* %_10.0, 0
  %3 = insertvalue { [0 x i8]*, i64 } %2, i64 %_10.1, 1
  ret { [0 x i8]*, i64 } %3
}

; <alloc::vec::Vec<T> as alloc::vec::spec_from_iter_nested::SpecFromIterNested<T,I>>::from_iter
; Function Attrs: nonlazybind uwtable
define void @"_ZN111_$LT$alloc..vec..Vec$LT$T$GT$$u20$as$u20$alloc..vec..spec_from_iter_nested..SpecFromIterNested$LT$T$C$I$GT$$GT$9from_iter17hb83950a02f1d1969E"(%"alloc::vec::Vec<&str>"* noalias nocapture sret(%"alloc::vec::Vec<&str>") dereferenceable(24) %0, %"core::str::iter::SplitWhitespace"* noalias nocapture dereferenceable(64) %iterator) unnamed_addr #0 personality i32 (i32, i32, i64, %"unwind::libunwind::_Unwind_Exception"*, %"unwind::libunwind::_Unwind_Context"*)* @rust_eh_personality {
start:
  %1 = alloca i64, align 8
  %2 = alloca { i8*, i32 }, align 8
  %_24 = alloca i8, align 1
  %_23 = alloca i8, align 1
  %_22 = alloca %"core::str::iter::SplitWhitespace", align 8
  %vector1 = alloca %"alloc::vec::Vec<&str>", align 8
  %_8 = alloca { i64, { i64, i64 } }, align 8
  %_3 = alloca { i8*, i64 }, align 8
  %vector = alloca %"alloc::vec::Vec<&str>", align 8
  store i8 0, i8* %_24, align 1
  store i8 0, i8* %_23, align 1
  store i8 1, i8* %_24, align 1
; invoke <core::str::iter::SplitWhitespace as core::iter::traits::iterator::Iterator>::next
  %3 = invoke { i8*, i64 } @"_ZN91_$LT$core..str..iter..SplitWhitespace$u20$as$u20$core..iter..traits..iterator..Iterator$GT$4next17h50da6162aa518711E"(%"core::str::iter::SplitWhitespace"* align 8 dereferenceable(64) %iterator)
          to label %bb1 unwind label %cleanup

bb1:                                              ; preds = %start
  store { i8*, i64 } %3, { i8*, i64 }* %_3, align 8
  %4 = bitcast { i8*, i64 }* %_3 to {}**
  %5 = load {}*, {}** %4, align 8
  %6 = icmp eq {}* %5, null
  %_5 = select i1 %6, i64 0, i64 1
  switch i64 %_5, label %bb3 [
    i64 0, label %bb4
    i64 1, label %bb2
  ]

bb21:                                             ; preds = %bb19, %bb13, %cleanup
  %7 = load i8, i8* %_24, align 1, !range !4
  %8 = trunc i8 %7 to i1
  br i1 %8, label %bb20, label %bb15

cleanup:                                          ; preds = %start
  %9 = landingpad { i8*, i32 }
          cleanup
  %10 = extractvalue { i8*, i32 } %9, 0
  %11 = extractvalue { i8*, i32 } %9, 1
  %12 = getelementptr inbounds { i8*, i32 }, { i8*, i32 }* %2, i32 0, i32 0
  store i8* %10, i8** %12, align 8
  %13 = getelementptr inbounds { i8*, i32 }, { i8*, i32 }* %2, i32 0, i32 1
  store i32 %11, i32* %13, align 8
  br label %bb21

bb3:                                              ; preds = %bb1
  unreachable

bb4:                                              ; preds = %bb1
; invoke alloc::vec::Vec<T>::new
  invoke void @"_ZN5alloc3vec12Vec$LT$T$GT$3new17h61c0c20f3da59db7E"(%"alloc::vec::Vec<&str>"* noalias nocapture sret(%"alloc::vec::Vec<&str>") dereferenceable(24) %0)
          to label %bb16 unwind label %cleanup5

bb2:                                              ; preds = %bb1
  store i8 1, i8* %_23, align 1
  %14 = bitcast { i8*, i64 }* %_3 to { [0 x i8]*, i64 }*
  %15 = getelementptr inbounds { [0 x i8]*, i64 }, { [0 x i8]*, i64 }* %14, i32 0, i32 0
  %element.0 = load [0 x i8]*, [0 x i8]** %15, align 8, !nonnull !3
  %16 = getelementptr inbounds { [0 x i8]*, i64 }, { [0 x i8]*, i64 }* %14, i32 0, i32 1
  %element.1 = load i64, i64* %16, align 8
; invoke <core::str::iter::SplitWhitespace as core::iter::traits::iterator::Iterator>::size_hint
  invoke void @"_ZN91_$LT$core..str..iter..SplitWhitespace$u20$as$u20$core..iter..traits..iterator..Iterator$GT$9size_hint17h4088af0cda2b2972E"({ i64, { i64, i64 } }* noalias nocapture sret({ i64, { i64, i64 } }) dereferenceable(24) %_8, %"core::str::iter::SplitWhitespace"* align 8 dereferenceable(64) %iterator)
          to label %bb5 unwind label %cleanup2

bb5:                                              ; preds = %bb2
  %17 = bitcast { i64, { i64, i64 } }* %_8 to i64*
  %lower = load i64, i64* %17, align 8
  %18 = call i64 @llvm.uadd.sat.i64(i64 %lower, i64 1)
  store i64 %18, i64* %1, align 8
  %19 = load i64, i64* %1, align 8
  br label %bb6

bb18:                                             ; preds = %bb14, %cleanup2
  %20 = load i8, i8* %_23, align 1, !range !4
  %21 = trunc i8 %20 to i1
  br i1 %21, label %bb17, label %bb19

cleanup2:                                         ; preds = %bb6, %bb2
  %22 = landingpad { i8*, i32 }
          cleanup
  %23 = extractvalue { i8*, i32 } %22, 0
  %24 = extractvalue { i8*, i32 } %22, 1
  %25 = getelementptr inbounds { i8*, i32 }, { i8*, i32 }* %2, i32 0, i32 0
  store i8* %23, i8** %25, align 8
  %26 = getelementptr inbounds { i8*, i32 }, { i8*, i32 }* %2, i32 0, i32 1
  store i32 %24, i32* %26, align 8
  br label %bb18

bb6:                                              ; preds = %bb5
; invoke alloc::vec::Vec<T>::with_capacity
  invoke void @"_ZN5alloc3vec12Vec$LT$T$GT$13with_capacity17h334d68fe986639a5E"(%"alloc::vec::Vec<&str>"* noalias nocapture sret(%"alloc::vec::Vec<&str>") dereferenceable(24) %vector1, i64 %19)
          to label %bb7 unwind label %cleanup2

bb7:                                              ; preds = %bb6
; invoke alloc::vec::Vec<T,A>::as_mut_ptr
  %_14 = invoke { [0 x i8]*, i64 }* @"_ZN5alloc3vec16Vec$LT$T$C$A$GT$10as_mut_ptr17h80f2d9979e978176E"(%"alloc::vec::Vec<&str>"* align 8 dereferenceable(24) %vector1)
          to label %bb8 unwind label %cleanup3

bb8:                                              ; preds = %bb7
  store i8 0, i8* %_23, align 1
; invoke core::ptr::write
  invoke void @_ZN4core3ptr5write17h6c2b7fb957ce2bd5E({ [0 x i8]*, i64 }* %_14, [0 x i8]* nonnull align 1 %element.0, i64 %element.1)
          to label %bb9 unwind label %cleanup3

bb14:                                             ; preds = %cleanup3
; call core::ptr::drop_in_place<alloc::vec::Vec<&str>>
  call void @"_ZN4core3ptr51drop_in_place$LT$alloc..vec..Vec$LT$$RF$str$GT$$GT$17h79d85d6a9dea6092E"(%"alloc::vec::Vec<&str>"* %vector1) #21
  br label %bb18

cleanup3:                                         ; preds = %bb9, %bb8, %bb7
  %27 = landingpad { i8*, i32 }
          cleanup
  %28 = extractvalue { i8*, i32 } %27, 0
  %29 = extractvalue { i8*, i32 } %27, 1
  %30 = getelementptr inbounds { i8*, i32 }, { i8*, i32 }* %2, i32 0, i32 0
  store i8* %28, i8** %30, align 8
  %31 = getelementptr inbounds { i8*, i32 }, { i8*, i32 }* %2, i32 0, i32 1
  store i32 %29, i32* %31, align 8
  br label %bb14

bb9:                                              ; preds = %bb8
; invoke alloc::vec::Vec<T,A>::set_len
  invoke void @"_ZN5alloc3vec16Vec$LT$T$C$A$GT$7set_len17h89201302637a2f5fE"(%"alloc::vec::Vec<&str>"* align 8 dereferenceable(24) %vector1, i64 1)
          to label %bb10 unwind label %cleanup3

bb10:                                             ; preds = %bb9
  %32 = bitcast %"alloc::vec::Vec<&str>"* %vector to i8*
  %33 = bitcast %"alloc::vec::Vec<&str>"* %vector1 to i8*
  call void @llvm.memcpy.p0i8.p0i8.i64(i8* align 8 %32, i8* align 8 %33, i64 24, i1 false)
  store i8 0, i8* %_23, align 1
  store i8 0, i8* %_24, align 1
  %34 = bitcast %"core::str::iter::SplitWhitespace"* %_22 to i8*
  %35 = bitcast %"core::str::iter::SplitWhitespace"* %iterator to i8*
  call void @llvm.memcpy.p0i8.p0i8.i64(i8* align 8 %34, i8* align 8 %35, i64 64, i1 false)
; invoke <alloc::vec::Vec<T,A> as alloc::vec::spec_extend::SpecExtend<T,I>>::spec_extend
  invoke void @"_ZN97_$LT$alloc..vec..Vec$LT$T$C$A$GT$$u20$as$u20$alloc..vec..spec_extend..SpecExtend$LT$T$C$I$GT$$GT$11spec_extend17ha0aa8d66a0b35fd4E"(%"alloc::vec::Vec<&str>"* align 8 dereferenceable(24) %vector, %"core::str::iter::SplitWhitespace"* noalias nocapture dereferenceable(64) %_22)
          to label %bb11 unwind label %cleanup4

bb19:                                             ; preds = %cleanup5, %bb17, %bb18
  br label %bb21

bb17:                                             ; preds = %bb18
  br label %bb19

bb11:                                             ; preds = %bb10
  %36 = bitcast %"alloc::vec::Vec<&str>"* %0 to i8*
  %37 = bitcast %"alloc::vec::Vec<&str>"* %vector to i8*
  call void @llvm.memcpy.p0i8.p0i8.i64(i8* align 8 %36, i8* align 8 %37, i64 24, i1 false)
  br label %bb12

bb13:                                             ; preds = %cleanup4
; call core::ptr::drop_in_place<alloc::vec::Vec<&str>>
  call void @"_ZN4core3ptr51drop_in_place$LT$alloc..vec..Vec$LT$$RF$str$GT$$GT$17h79d85d6a9dea6092E"(%"alloc::vec::Vec<&str>"* %vector) #21
  br label %bb21

cleanup4:                                         ; preds = %bb10
  %38 = landingpad { i8*, i32 }
          cleanup
  %39 = extractvalue { i8*, i32 } %38, 0
  %40 = extractvalue { i8*, i32 } %38, 1
  %41 = getelementptr inbounds { i8*, i32 }, { i8*, i32 }* %2, i32 0, i32 0
  store i8* %39, i8** %41, align 8
  %42 = getelementptr inbounds { i8*, i32 }, { i8*, i32 }* %2, i32 0, i32 1
  store i32 %40, i32* %42, align 8
  br label %bb13

bb12:                                             ; preds = %bb16, %bb11
  ret void

bb16:                                             ; preds = %bb4
  br label %bb12

cleanup5:                                         ; preds = %bb4
  %43 = landingpad { i8*, i32 }
          cleanup
  %44 = extractvalue { i8*, i32 } %43, 0
  %45 = extractvalue { i8*, i32 } %43, 1
  %46 = getelementptr inbounds { i8*, i32 }, { i8*, i32 }* %2, i32 0, i32 0
  store i8* %44, i8** %46, align 8
  %47 = getelementptr inbounds { i8*, i32 }, { i8*, i32 }* %2, i32 0, i32 1
  store i32 %45, i32* %47, align 8
  br label %bb19

bb15:                                             ; preds = %bb20, %bb21
  %48 = bitcast { i8*, i32 }* %2 to i8**
  %49 = load i8*, i8** %48, align 8
  %50 = getelementptr inbounds { i8*, i32 }, { i8*, i32 }* %2, i32 0, i32 1
  %51 = load i32, i32* %50, align 8
  %52 = insertvalue { i8*, i32 } undef, i8* %49, 0
  %53 = insertvalue { i8*, i32 } %52, i32 %51, 1
  resume { i8*, i32 } %53

bb20:                                             ; preds = %bb21
  br label %bb15
}

; <core::ptr::non_null::NonNull<T> as core::convert::From<core::ptr::unique::Unique<T>>>::from
; Function Attrs: inlinehint nonlazybind uwtable
define nonnull i8* @"_ZN119_$LT$core..ptr..non_null..NonNull$LT$T$GT$$u20$as$u20$core..convert..From$LT$core..ptr..unique..Unique$LT$T$GT$$GT$$GT$4from17hd46ef77552d5e21bE"(i8* nonnull %unique) unnamed_addr #1 {
start:
; call core::ptr::unique::Unique<T>::as_ptr
  %_2 = call i8* @"_ZN4core3ptr6unique15Unique$LT$T$GT$6as_ptr17he98f1f261e87a8bdE"(i8* nonnull %unique)
  br label %bb1

bb1:                                              ; preds = %start
; call core::ptr::non_null::NonNull<T>::new_unchecked
  %0 = call nonnull i8* @"_ZN4core3ptr8non_null16NonNull$LT$T$GT$13new_unchecked17h1b169046760e8b76E"(i8* %_2)
  br label %bb2

bb2:                                              ; preds = %bb1
  ret i8* %0
}

; <alloc::collections::TryReserveError as core::convert::From<alloc::collections::TryReserveErrorKind>>::from
; Function Attrs: inlinehint nonlazybind uwtable
define internal { i64, i64 } @"_ZN122_$LT$alloc..collections..TryReserveError$u20$as$u20$core..convert..From$LT$alloc..collections..TryReserveErrorKind$GT$$GT$4from17h85904ef05060d28aE"(i64 %kind.0, i64 %kind.1) unnamed_addr #1 {
start:
  %0 = alloca { i64, i64 }, align 8
  %1 = getelementptr inbounds { i64, i64 }, { i64, i64 }* %0, i32 0, i32 0
  store i64 %kind.0, i64* %1, align 8
  %2 = getelementptr inbounds { i64, i64 }, { i64, i64 }* %0, i32 0, i32 1
  store i64 %kind.1, i64* %2, align 8
  %3 = getelementptr inbounds { i64, i64 }, { i64, i64 }* %0, i32 0, i32 0
  %4 = load i64, i64* %3, align 8
  %5 = getelementptr inbounds { i64, i64 }, { i64, i64 }* %0, i32 0, i32 1
  %6 = load i64, i64* %5, align 8
  %7 = insertvalue { i64, i64 } undef, i64 %4, 0
  %8 = insertvalue { i64, i64 } %7, i64 %6, 1
  ret { i64, i64 } %8
}

; <core::result::Result<T,F> as core::ops::try_trait::FromResidual<core::result::Result<core::convert::Infallible,E>>>::from_residual
; Function Attrs: inlinehint nonlazybind uwtable
define void @"_ZN153_$LT$core..result..Result$LT$T$C$F$GT$$u20$as$u20$core..ops..try_trait..FromResidual$LT$core..result..Result$LT$core..convert..Infallible$C$E$GT$$GT$$GT$13from_residual17h562cbd6b1b4ae4b3E"(%"core::result::Result<(), alloc::collections::TryReserveError>"* noalias nocapture sret(%"core::result::Result<(), alloc::collections::TryReserveError>") dereferenceable(24) %0, i64 %1, i64 %2) unnamed_addr #1 {
start:
  %residual = alloca { i64, i64 }, align 8
  %3 = getelementptr inbounds { i64, i64 }, { i64, i64 }* %residual, i32 0, i32 0
  store i64 %1, i64* %3, align 8
  %4 = getelementptr inbounds { i64, i64 }, { i64, i64 }* %residual, i32 0, i32 1
  store i64 %2, i64* %4, align 8
  %5 = getelementptr inbounds { i64, i64 }, { i64, i64 }* %residual, i32 0, i32 0
  %e.0 = load i64, i64* %5, align 8
  %6 = getelementptr inbounds { i64, i64 }, { i64, i64 }* %residual, i32 0, i32 1
  %e.1 = load i64, i64* %6, align 8
; call <alloc::collections::TryReserveError as core::convert::From<alloc::collections::TryReserveErrorKind>>::from
  %7 = call { i64, i64 } @"_ZN122_$LT$alloc..collections..TryReserveError$u20$as$u20$core..convert..From$LT$alloc..collections..TryReserveErrorKind$GT$$GT$4from17h85904ef05060d28aE"(i64 %e.0, i64 %e.1)
  %_3.0 = extractvalue { i64, i64 } %7, 0
  %_3.1 = extractvalue { i64, i64 } %7, 1
  br label %bb1

bb1:                                              ; preds = %start
  %8 = bitcast %"core::result::Result<(), alloc::collections::TryReserveError>"* %0 to %"core::result::Result<(), alloc::collections::TryReserveError>::Err"*
  %9 = getelementptr inbounds %"core::result::Result<(), alloc::collections::TryReserveError>::Err", %"core::result::Result<(), alloc::collections::TryReserveError>::Err"* %8, i32 0, i32 1
  %10 = getelementptr inbounds { i64, i64 }, { i64, i64 }* %9, i32 0, i32 0
  store i64 %_3.0, i64* %10, align 8
  %11 = getelementptr inbounds { i64, i64 }, { i64, i64 }* %9, i32 0, i32 1
  store i64 %_3.1, i64* %11, align 8
  %12 = bitcast %"core::result::Result<(), alloc::collections::TryReserveError>"* %0 to i64*
  store i64 1, i64* %12, align 8
  ret void
}

; <core::result::Result<T,F> as core::ops::try_trait::FromResidual<core::result::Result<core::convert::Infallible,E>>>::from_residual
; Function Attrs: inlinehint nonlazybind uwtable
define void @"_ZN153_$LT$core..result..Result$LT$T$C$F$GT$$u20$as$u20$core..ops..try_trait..FromResidual$LT$core..result..Result$LT$core..convert..Infallible$C$E$GT$$GT$$GT$13from_residual17h5885b61392823b10E"(%"core::result::Result<(core::alloc::layout::Layout, usize), core::alloc::layout::LayoutError>"* noalias nocapture sret(%"core::result::Result<(core::alloc::layout::Layout, usize), core::alloc::layout::LayoutError>") dereferenceable(24) %0) unnamed_addr #1 {
start:
; call <T as core::convert::From<T>>::from
  call void @"_ZN50_$LT$T$u20$as$u20$core..convert..From$LT$T$GT$$GT$4from17hc6c8826c50f47c04E"()
  br label %bb1

bb1:                                              ; preds = %start
  %1 = bitcast %"core::result::Result<(core::alloc::layout::Layout, usize), core::alloc::layout::LayoutError>"* %0 to %"core::result::Result<(core::alloc::layout::Layout, usize), core::alloc::layout::LayoutError>::Err"*
  %2 = bitcast %"core::result::Result<(core::alloc::layout::Layout, usize), core::alloc::layout::LayoutError>::Err"* %1 to %"core::alloc::layout::LayoutError"*
  %3 = getelementptr inbounds %"core::result::Result<(core::alloc::layout::Layout, usize), core::alloc::layout::LayoutError>", %"core::result::Result<(core::alloc::layout::Layout, usize), core::alloc::layout::LayoutError>"* %0, i32 0, i32 1
  store i64 0, i64* %3, align 8
  ret void
}

; <core::result::Result<T,F> as core::ops::try_trait::FromResidual<core::result::Result<core::convert::Infallible,E>>>::from_residual
; Function Attrs: inlinehint nonlazybind uwtable
define { i8*, i64 } @"_ZN153_$LT$core..result..Result$LT$T$C$F$GT$$u20$as$u20$core..ops..try_trait..FromResidual$LT$core..result..Result$LT$core..convert..Infallible$C$E$GT$$GT$$GT$13from_residual17h62dd9c26bfa1f216E"() unnamed_addr #1 {
start:
  %0 = alloca { i8*, i64 }, align 8
; call <T as core::convert::From<T>>::from
  call void @"_ZN50_$LT$T$u20$as$u20$core..convert..From$LT$T$GT$$GT$4from17haf4bffc006f7a99cE"()
  br label %bb1

bb1:                                              ; preds = %start
  %1 = bitcast { i8*, i64 }* %0 to %"core::result::Result<core::ptr::non_null::NonNull<[u8]>, core::alloc::AllocError>::Err"*
  %2 = bitcast %"core::result::Result<core::ptr::non_null::NonNull<[u8]>, core::alloc::AllocError>::Err"* %1 to %"core::alloc::AllocError"*
  %3 = bitcast { i8*, i64 }* %0 to {}**
  store {}* null, {}** %3, align 8
  %4 = getelementptr inbounds { i8*, i64 }, { i8*, i64 }* %0, i32 0, i32 0
  %5 = load i8*, i8** %4, align 8
  %6 = getelementptr inbounds { i8*, i64 }, { i8*, i64 }* %0, i32 0, i32 1
  %7 = load i64, i64* %6, align 8
  %8 = insertvalue { i8*, i64 } undef, i8* %5, 0
  %9 = insertvalue { i8*, i64 } %8, i64 %7, 1
  ret { i8*, i64 } %9
}

; <core::result::Result<T,F> as core::ops::try_trait::FromResidual<core::result::Result<core::convert::Infallible,E>>>::from_residual
; Function Attrs: inlinehint nonlazybind uwtable
define { i64, i64 } @"_ZN153_$LT$core..result..Result$LT$T$C$F$GT$$u20$as$u20$core..ops..try_trait..FromResidual$LT$core..result..Result$LT$core..convert..Infallible$C$E$GT$$GT$$GT$13from_residual17h745729f705e7f875E"() unnamed_addr #1 {
start:
  %0 = alloca { i64, i64 }, align 8
; call <T as core::convert::From<T>>::from
  call void @"_ZN50_$LT$T$u20$as$u20$core..convert..From$LT$T$GT$$GT$4from17hc6c8826c50f47c04E"()
  br label %bb1

bb1:                                              ; preds = %start
  %1 = bitcast { i64, i64 }* %0 to %"core::result::Result<core::alloc::layout::Layout, core::alloc::layout::LayoutError>::Err"*
  %2 = bitcast %"core::result::Result<core::alloc::layout::Layout, core::alloc::layout::LayoutError>::Err"* %1 to %"core::alloc::layout::LayoutError"*
  %3 = getelementptr inbounds { i64, i64 }, { i64, i64 }* %0, i32 0, i32 1
  store i64 0, i64* %3, align 8
  %4 = getelementptr inbounds { i64, i64 }, { i64, i64 }* %0, i32 0, i32 0
  %5 = load i64, i64* %4, align 8
  %6 = getelementptr inbounds { i64, i64 }, { i64, i64 }* %0, i32 0, i32 1
  %7 = load i64, i64* %6, align 8
  %8 = insertvalue { i64, i64 } undef, i64 %5, 0
  %9 = insertvalue { i64, i64 } %8, i64 %7, 1
  ret { i64, i64 } %9
}

; <core::result::Result<T,F> as core::ops::try_trait::FromResidual<core::result::Result<core::convert::Infallible,E>>>::from_residual
; Function Attrs: inlinehint nonlazybind uwtable
define void @"_ZN153_$LT$core..result..Result$LT$T$C$F$GT$$u20$as$u20$core..ops..try_trait..FromResidual$LT$core..result..Result$LT$core..convert..Infallible$C$E$GT$$GT$$GT$13from_residual17h7c9b06083ac4de8bE"(%"core::result::Result<hashbrown::scopeguard::ScopeGuard<hashbrown::raw::RawTableInner<alloc::alloc::Global>, [closure@hashbrown::raw::RawTableInner<alloc::alloc::Global>::prepare_resize::{closure#0}]>, hashbrown::TryReserveError>"* noalias nocapture sret(%"core::result::Result<hashbrown::scopeguard::ScopeGuard<hashbrown::raw::RawTableInner<alloc::alloc::Global>, [closure@hashbrown::raw::RawTableInner<alloc::alloc::Global>::prepare_resize::{closure#0}]>, hashbrown::TryReserveError>") dereferenceable(56) %0, i64 %1, i64 %2) unnamed_addr #1 {
start:
  %residual = alloca { i64, i64 }, align 8
  %3 = getelementptr inbounds { i64, i64 }, { i64, i64 }* %residual, i32 0, i32 0
  store i64 %1, i64* %3, align 8
  %4 = getelementptr inbounds { i64, i64 }, { i64, i64 }* %residual, i32 0, i32 1
  store i64 %2, i64* %4, align 8
  %5 = getelementptr inbounds { i64, i64 }, { i64, i64 }* %residual, i32 0, i32 0
  %e.0 = load i64, i64* %5, align 8
  %6 = getelementptr inbounds { i64, i64 }, { i64, i64 }* %residual, i32 0, i32 1
  %e.1 = load i64, i64* %6, align 8
; call <T as core::convert::From<T>>::from
  %7 = call { i64, i64 } @"_ZN50_$LT$T$u20$as$u20$core..convert..From$LT$T$GT$$GT$4from17h904b03d5beac2a2aE"(i64 %e.0, i64 %e.1)
  %_3.0 = extractvalue { i64, i64 } %7, 0
  %_3.1 = extractvalue { i64, i64 } %7, 1
  br label %bb1

bb1:                                              ; preds = %start
  %8 = bitcast %"core::result::Result<hashbrown::scopeguard::ScopeGuard<hashbrown::raw::RawTableInner<alloc::alloc::Global>, [closure@hashbrown::raw::RawTableInner<alloc::alloc::Global>::prepare_resize::{closure#0}]>, hashbrown::TryReserveError>"* %0 to %"core::result::Result<hashbrown::scopeguard::ScopeGuard<hashbrown::raw::RawTableInner<alloc::alloc::Global>, [closure@hashbrown::raw::RawTableInner<alloc::alloc::Global>::prepare_resize::{closure#0}]>, hashbrown::TryReserveError>::Err"*
  %9 = getelementptr inbounds %"core::result::Result<hashbrown::scopeguard::ScopeGuard<hashbrown::raw::RawTableInner<alloc::alloc::Global>, [closure@hashbrown::raw::RawTableInner<alloc::alloc::Global>::prepare_resize::{closure#0}]>, hashbrown::TryReserveError>::Err", %"core::result::Result<hashbrown::scopeguard::ScopeGuard<hashbrown::raw::RawTableInner<alloc::alloc::Global>, [closure@hashbrown::raw::RawTableInner<alloc::alloc::Global>::prepare_resize::{closure#0}]>, hashbrown::TryReserveError>::Err"* %8, i32 0, i32 1
  %10 = getelementptr inbounds { i64, i64 }, { i64, i64 }* %9, i32 0, i32 0
  store i64 %_3.0, i64* %10, align 8
  %11 = getelementptr inbounds { i64, i64 }, { i64, i64 }* %9, i32 0, i32 1
  store i64 %_3.1, i64* %11, align 8
  %12 = bitcast %"core::result::Result<hashbrown::scopeguard::ScopeGuard<hashbrown::raw::RawTableInner<alloc::alloc::Global>, [closure@hashbrown::raw::RawTableInner<alloc::alloc::Global>::prepare_resize::{closure#0}]>, hashbrown::TryReserveError>"* %0 to i64*
  store i64 1, i64* %12, align 8
  ret void
}

; <core::result::Result<T,F> as core::ops::try_trait::FromResidual<core::result::Result<core::convert::Infallible,E>>>::from_residual
; Function Attrs: inlinehint nonlazybind uwtable
define void @"_ZN153_$LT$core..result..Result$LT$T$C$F$GT$$u20$as$u20$core..ops..try_trait..FromResidual$LT$core..result..Result$LT$core..convert..Infallible$C$E$GT$$GT$$GT$13from_residual17h9fe578aa0942f458E"(%"core::result::Result<core::ptr::non_null::NonNull<[u8]>, alloc::collections::TryReserveError>"* noalias nocapture sret(%"core::result::Result<core::ptr::non_null::NonNull<[u8]>, alloc::collections::TryReserveError>") dereferenceable(24) %0, i64 %1, i64 %2) unnamed_addr #1 {
start:
  %residual = alloca { i64, i64 }, align 8
  %3 = getelementptr inbounds { i64, i64 }, { i64, i64 }* %residual, i32 0, i32 0
  store i64 %1, i64* %3, align 8
  %4 = getelementptr inbounds { i64, i64 }, { i64, i64 }* %residual, i32 0, i32 1
  store i64 %2, i64* %4, align 8
  %5 = getelementptr inbounds { i64, i64 }, { i64, i64 }* %residual, i32 0, i32 0
  %e.0 = load i64, i64* %5, align 8
  %6 = getelementptr inbounds { i64, i64 }, { i64, i64 }* %residual, i32 0, i32 1
  %e.1 = load i64, i64* %6, align 8
; call <T as core::convert::From<T>>::from
  %7 = call { i64, i64 } @"_ZN50_$LT$T$u20$as$u20$core..convert..From$LT$T$GT$$GT$4from17h360839fe85a6fb25E"(i64 %e.0, i64 %e.1)
  %_3.0 = extractvalue { i64, i64 } %7, 0
  %_3.1 = extractvalue { i64, i64 } %7, 1
  br label %bb1

bb1:                                              ; preds = %start
  %8 = bitcast %"core::result::Result<core::ptr::non_null::NonNull<[u8]>, alloc::collections::TryReserveError>"* %0 to %"core::result::Result<core::ptr::non_null::NonNull<[u8]>, alloc::collections::TryReserveError>::Err"*
  %9 = getelementptr inbounds %"core::result::Result<core::ptr::non_null::NonNull<[u8]>, alloc::collections::TryReserveError>::Err", %"core::result::Result<core::ptr::non_null::NonNull<[u8]>, alloc::collections::TryReserveError>::Err"* %8, i32 0, i32 1
  %10 = getelementptr inbounds { i64, i64 }, { i64, i64 }* %9, i32 0, i32 0
  store i64 %_3.0, i64* %10, align 8
  %11 = getelementptr inbounds { i64, i64 }, { i64, i64 }* %9, i32 0, i32 1
  store i64 %_3.1, i64* %11, align 8
  %12 = bitcast %"core::result::Result<core::ptr::non_null::NonNull<[u8]>, alloc::collections::TryReserveError>"* %0 to i64*
  store i64 1, i64* %12, align 8
  ret void
}

; <core::result::Result<T,F> as core::ops::try_trait::FromResidual<core::result::Result<core::convert::Infallible,E>>>::from_residual
; Function Attrs: inlinehint nonlazybind uwtable
define void @"_ZN153_$LT$core..result..Result$LT$T$C$F$GT$$u20$as$u20$core..ops..try_trait..FromResidual$LT$core..result..Result$LT$core..convert..Infallible$C$E$GT$$GT$$GT$13from_residual17ha2c05ca3d9c6943dE"(%"core::result::Result<std::collections::hash::map::RandomState, std::thread::local::AccessError>"* noalias nocapture sret(%"core::result::Result<std::collections::hash::map::RandomState, std::thread::local::AccessError>") dereferenceable(24) %0) unnamed_addr #1 {
start:
; call <T as core::convert::From<T>>::from
  call void @"_ZN50_$LT$T$u20$as$u20$core..convert..From$LT$T$GT$$GT$4from17h4e66fd1ad434bf3bE"()
  br label %bb1

bb1:                                              ; preds = %start
  %1 = bitcast %"core::result::Result<std::collections::hash::map::RandomState, std::thread::local::AccessError>"* %0 to %"core::result::Result<std::collections::hash::map::RandomState, std::thread::local::AccessError>::Err"*
  %2 = getelementptr inbounds %"core::result::Result<std::collections::hash::map::RandomState, std::thread::local::AccessError>::Err", %"core::result::Result<std::collections::hash::map::RandomState, std::thread::local::AccessError>::Err"* %1, i32 0, i32 1
  %3 = bitcast %"core::result::Result<std::collections::hash::map::RandomState, std::thread::local::AccessError>"* %0 to i64*
  store i64 1, i64* %3, align 8
  ret void
}

; <core::result::Result<T,F> as core::ops::try_trait::FromResidual<core::result::Result<core::convert::Infallible,E>>>::from_residual
; Function Attrs: inlinehint nonlazybind uwtable
define void @"_ZN153_$LT$core..result..Result$LT$T$C$F$GT$$u20$as$u20$core..ops..try_trait..FromResidual$LT$core..result..Result$LT$core..convert..Infallible$C$E$GT$$GT$$GT$13from_residual17ha4c61f6986952715E"(%"core::result::Result<(), alloc::collections::TryReserveError>"* noalias nocapture sret(%"core::result::Result<(), alloc::collections::TryReserveError>") dereferenceable(24) %0, i64 %1, i64 %2) unnamed_addr #1 {
start:
  %residual = alloca { i64, i64 }, align 8
  %3 = getelementptr inbounds { i64, i64 }, { i64, i64 }* %residual, i32 0, i32 0
  store i64 %1, i64* %3, align 8
  %4 = getelementptr inbounds { i64, i64 }, { i64, i64 }* %residual, i32 0, i32 1
  store i64 %2, i64* %4, align 8
  %5 = getelementptr inbounds { i64, i64 }, { i64, i64 }* %residual, i32 0, i32 0
  %e.0 = load i64, i64* %5, align 8
  %6 = getelementptr inbounds { i64, i64 }, { i64, i64 }* %residual, i32 0, i32 1
  %e.1 = load i64, i64* %6, align 8
; call <T as core::convert::From<T>>::from
  %7 = call { i64, i64 } @"_ZN50_$LT$T$u20$as$u20$core..convert..From$LT$T$GT$$GT$4from17h360839fe85a6fb25E"(i64 %e.0, i64 %e.1)
  %_3.0 = extractvalue { i64, i64 } %7, 0
  %_3.1 = extractvalue { i64, i64 } %7, 1
  br label %bb1

bb1:                                              ; preds = %start
  %8 = bitcast %"core::result::Result<(), alloc::collections::TryReserveError>"* %0 to %"core::result::Result<(), alloc::collections::TryReserveError>::Err"*
  %9 = getelementptr inbounds %"core::result::Result<(), alloc::collections::TryReserveError>::Err", %"core::result::Result<(), alloc::collections::TryReserveError>::Err"* %8, i32 0, i32 1
  %10 = getelementptr inbounds { i64, i64 }, { i64, i64 }* %9, i32 0, i32 0
  store i64 %_3.0, i64* %10, align 8
  %11 = getelementptr inbounds { i64, i64 }, { i64, i64 }* %9, i32 0, i32 1
  store i64 %_3.1, i64* %11, align 8
  %12 = bitcast %"core::result::Result<(), alloc::collections::TryReserveError>"* %0 to i64*
  store i64 1, i64* %12, align 8
  ret void
}

; <core::result::Result<T,F> as core::ops::try_trait::FromResidual<core::result::Result<core::convert::Infallible,E>>>::from_residual
; Function Attrs: inlinehint nonlazybind uwtable
define void @"_ZN153_$LT$core..result..Result$LT$T$C$F$GT$$u20$as$u20$core..ops..try_trait..FromResidual$LT$core..result..Result$LT$core..convert..Infallible$C$E$GT$$GT$$GT$13from_residual17hc980a609c0a9ed43E"(%"core::result::Result<(), hashbrown::TryReserveError>"* noalias nocapture sret(%"core::result::Result<(), hashbrown::TryReserveError>") dereferenceable(24) %0, i64 %1, i64 %2) unnamed_addr #1 {
start:
  %residual = alloca { i64, i64 }, align 8
  %3 = getelementptr inbounds { i64, i64 }, { i64, i64 }* %residual, i32 0, i32 0
  store i64 %1, i64* %3, align 8
  %4 = getelementptr inbounds { i64, i64 }, { i64, i64 }* %residual, i32 0, i32 1
  store i64 %2, i64* %4, align 8
  %5 = getelementptr inbounds { i64, i64 }, { i64, i64 }* %residual, i32 0, i32 0
  %e.0 = load i64, i64* %5, align 8
  %6 = getelementptr inbounds { i64, i64 }, { i64, i64 }* %residual, i32 0, i32 1
  %e.1 = load i64, i64* %6, align 8
; call <T as core::convert::From<T>>::from
  %7 = call { i64, i64 } @"_ZN50_$LT$T$u20$as$u20$core..convert..From$LT$T$GT$$GT$4from17h904b03d5beac2a2aE"(i64 %e.0, i64 %e.1)
  %_3.0 = extractvalue { i64, i64 } %7, 0
  %_3.1 = extractvalue { i64, i64 } %7, 1
  br label %bb1

bb1:                                              ; preds = %start
  %8 = bitcast %"core::result::Result<(), hashbrown::TryReserveError>"* %0 to %"core::result::Result<(), hashbrown::TryReserveError>::Err"*
  %9 = getelementptr inbounds %"core::result::Result<(), hashbrown::TryReserveError>::Err", %"core::result::Result<(), hashbrown::TryReserveError>::Err"* %8, i32 0, i32 1
  %10 = getelementptr inbounds { i64, i64 }, { i64, i64 }* %9, i32 0, i32 0
  store i64 %_3.0, i64* %10, align 8
  %11 = getelementptr inbounds { i64, i64 }, { i64, i64 }* %9, i32 0, i32 1
  store i64 %_3.1, i64* %11, align 8
  %12 = bitcast %"core::result::Result<(), hashbrown::TryReserveError>"* %0 to i64*
  store i64 1, i64* %12, align 8
  ret void
}

; <core::result::Result<T,F> as core::ops::try_trait::FromResidual<core::result::Result<core::convert::Infallible,E>>>::from_residual
; Function Attrs: inlinehint nonlazybind uwtable
define void @"_ZN153_$LT$core..result..Result$LT$T$C$F$GT$$u20$as$u20$core..ops..try_trait..FromResidual$LT$core..result..Result$LT$core..convert..Infallible$C$E$GT$$GT$$GT$13from_residual17he159bf1eb484ed92E"(%"core::result::Result<hashbrown::raw::RawTableInner<alloc::alloc::Global>, hashbrown::TryReserveError>"* noalias nocapture sret(%"core::result::Result<hashbrown::raw::RawTableInner<alloc::alloc::Global>, hashbrown::TryReserveError>") dereferenceable(40) %0, i64 %1, i64 %2) unnamed_addr #1 {
start:
  %residual = alloca { i64, i64 }, align 8
  %3 = getelementptr inbounds { i64, i64 }, { i64, i64 }* %residual, i32 0, i32 0
  store i64 %1, i64* %3, align 8
  %4 = getelementptr inbounds { i64, i64 }, { i64, i64 }* %residual, i32 0, i32 1
  store i64 %2, i64* %4, align 8
  %5 = getelementptr inbounds { i64, i64 }, { i64, i64 }* %residual, i32 0, i32 0
  %e.0 = load i64, i64* %5, align 8
  %6 = getelementptr inbounds { i64, i64 }, { i64, i64 }* %residual, i32 0, i32 1
  %e.1 = load i64, i64* %6, align 8
; call <T as core::convert::From<T>>::from
  %7 = call { i64, i64 } @"_ZN50_$LT$T$u20$as$u20$core..convert..From$LT$T$GT$$GT$4from17h904b03d5beac2a2aE"(i64 %e.0, i64 %e.1)
  %_3.0 = extractvalue { i64, i64 } %7, 0
  %_3.1 = extractvalue { i64, i64 } %7, 1
  br label %bb1

bb1:                                              ; preds = %start
  %8 = bitcast %"core::result::Result<hashbrown::raw::RawTableInner<alloc::alloc::Global>, hashbrown::TryReserveError>"* %0 to %"core::result::Result<hashbrown::raw::RawTableInner<alloc::alloc::Global>, hashbrown::TryReserveError>::Err"*
  %9 = getelementptr inbounds %"core::result::Result<hashbrown::raw::RawTableInner<alloc::alloc::Global>, hashbrown::TryReserveError>::Err", %"core::result::Result<hashbrown::raw::RawTableInner<alloc::alloc::Global>, hashbrown::TryReserveError>::Err"* %8, i32 0, i32 1
  %10 = getelementptr inbounds { i64, i64 }, { i64, i64 }* %9, i32 0, i32 0
  store i64 %_3.0, i64* %10, align 8
  %11 = getelementptr inbounds { i64, i64 }, { i64, i64 }* %9, i32 0, i32 1
  store i64 %_3.1, i64* %11, align 8
  %12 = bitcast %"core::result::Result<hashbrown::raw::RawTableInner<alloc::alloc::Global>, hashbrown::TryReserveError>"* %0 to i64*
  store i64 1, i64* %12, align 8
  ret void
}

; <core::result::Result<T,F> as core::ops::try_trait::FromResidual<core::result::Result<core::convert::Infallible,E>>>::from_residual
; Function Attrs: inlinehint nonlazybind uwtable
define void @"_ZN153_$LT$core..result..Result$LT$T$C$F$GT$$u20$as$u20$core..ops..try_trait..FromResidual$LT$core..result..Result$LT$core..convert..Infallible$C$E$GT$$GT$$GT$13from_residual17he85627546bc9d02fE"(%"core::result::Result<core::ptr::non_null::NonNull<[u8]>, alloc::collections::TryReserveError>"* noalias nocapture sret(%"core::result::Result<core::ptr::non_null::NonNull<[u8]>, alloc::collections::TryReserveError>") dereferenceable(24) %0, i64 %1, i64 %2) unnamed_addr #1 {
start:
  %residual = alloca { i64, i64 }, align 8
  %3 = getelementptr inbounds { i64, i64 }, { i64, i64 }* %residual, i32 0, i32 0
  store i64 %1, i64* %3, align 8
  %4 = getelementptr inbounds { i64, i64 }, { i64, i64 }* %residual, i32 0, i32 1
  store i64 %2, i64* %4, align 8
  %5 = getelementptr inbounds { i64, i64 }, { i64, i64 }* %residual, i32 0, i32 0
  %e.0 = load i64, i64* %5, align 8
  %6 = getelementptr inbounds { i64, i64 }, { i64, i64 }* %residual, i32 0, i32 1
  %e.1 = load i64, i64* %6, align 8
; call <alloc::collections::TryReserveError as core::convert::From<alloc::collections::TryReserveErrorKind>>::from
  %7 = call { i64, i64 } @"_ZN122_$LT$alloc..collections..TryReserveError$u20$as$u20$core..convert..From$LT$alloc..collections..TryReserveErrorKind$GT$$GT$4from17h85904ef05060d28aE"(i64 %e.0, i64 %e.1)
  %_3.0 = extractvalue { i64, i64 } %7, 0
  %_3.1 = extractvalue { i64, i64 } %7, 1
  br label %bb1

bb1:                                              ; preds = %start
  %8 = bitcast %"core::result::Result<core::ptr::non_null::NonNull<[u8]>, alloc::collections::TryReserveError>"* %0 to %"core::result::Result<core::ptr::non_null::NonNull<[u8]>, alloc::collections::TryReserveError>::Err"*
  %9 = getelementptr inbounds %"core::result::Result<core::ptr::non_null::NonNull<[u8]>, alloc::collections::TryReserveError>::Err", %"core::result::Result<core::ptr::non_null::NonNull<[u8]>, alloc::collections::TryReserveError>::Err"* %8, i32 0, i32 1
  %10 = getelementptr inbounds { i64, i64 }, { i64, i64 }* %9, i32 0, i32 0
  store i64 %_3.0, i64* %10, align 8
  %11 = getelementptr inbounds { i64, i64 }, { i64, i64 }* %9, i32 0, i32 1
  store i64 %_3.1, i64* %11, align 8
  %12 = bitcast %"core::result::Result<core::ptr::non_null::NonNull<[u8]>, alloc::collections::TryReserveError>"* %0 to i64*
  store i64 1, i64* %12, align 8
  ret void
}

; <<alloc::vec::into_iter::IntoIter<T,A> as core::ops::drop::Drop>::drop::DropGuard<T,A> as core::ops::drop::Drop>::drop
; Function Attrs: nonlazybind uwtable
define void @"_ZN157_$LT$$LT$alloc..vec..into_iter..IntoIter$LT$T$C$A$GT$$u20$as$u20$core..ops..drop..Drop$GT$..drop..DropGuard$LT$T$C$A$GT$$u20$as$u20$core..ops..drop..Drop$GT$4drop17hf206107d4cba666eE"(i64** align 8 dereferenceable(8) %self) unnamed_addr #0 personality i32 (i32, i32, i64, %"unwind::libunwind::_Unwind_Exception"*, %"unwind::libunwind::_Unwind_Context"*)* @rust_eh_personality {
start:
  %0 = alloca { i8*, i32 }, align 8
  %_10 = alloca i8, align 1
  %_5 = alloca { i64*, i64 }, align 8
  store i8 0, i8* %_10, align 1
  %1 = bitcast i64** %self to %"alloc::vec::into_iter::IntoIter<&str>"**
  %2 = load %"alloc::vec::into_iter::IntoIter<&str>"*, %"alloc::vec::into_iter::IntoIter<&str>"** %1, align 8, !nonnull !3
  %_4 = bitcast %"alloc::vec::into_iter::IntoIter<&str>"* %2 to %"alloc::alloc::Global"*
  store i8 1, i8* %_10, align 1
; call core::ptr::read
  call void @_ZN4core3ptr4read17hbce6ceabb48c7425E(%"alloc::alloc::Global"* %_4)
  br label %bb1

bb1:                                              ; preds = %start
  %3 = bitcast i64** %self to %"alloc::vec::into_iter::IntoIter<&str>"**
  %4 = load %"alloc::vec::into_iter::IntoIter<&str>"*, %"alloc::vec::into_iter::IntoIter<&str>"** %3, align 8, !nonnull !3
  %5 = bitcast %"alloc::vec::into_iter::IntoIter<&str>"* %4 to i64**
  %_7 = load i64*, i64** %5, align 8, !nonnull !3
; invoke core::ptr::non_null::NonNull<T>::as_ptr
  %_6 = invoke { [0 x i8]*, i64 }* @"_ZN4core3ptr8non_null16NonNull$LT$T$GT$6as_ptr17h6191cd23f8e44eacE"(i64* nonnull %_7)
          to label %bb2 unwind label %cleanup

bb2:                                              ; preds = %bb1
  %6 = bitcast i64** %self to %"alloc::vec::into_iter::IntoIter<&str>"**
  %7 = load %"alloc::vec::into_iter::IntoIter<&str>"*, %"alloc::vec::into_iter::IntoIter<&str>"** %6, align 8, !nonnull !3
  %8 = getelementptr inbounds %"alloc::vec::into_iter::IntoIter<&str>", %"alloc::vec::into_iter::IntoIter<&str>"* %7, i32 0, i32 3
  %_8 = load i64, i64* %8, align 8
  store i8 0, i8* %_10, align 1
; invoke alloc::raw_vec::RawVec<T,A>::from_raw_parts_in
  %9 = invoke { i64*, i64 } @"_ZN5alloc7raw_vec19RawVec$LT$T$C$A$GT$17from_raw_parts_in17h7d8428424c1d994aE"({ [0 x i8]*, i64 }* %_6, i64 %_8)
          to label %bb3 unwind label %cleanup

bb7:                                              ; preds = %cleanup
  %10 = load i8, i8* %_10, align 1, !range !4
  %11 = trunc i8 %10 to i1
  br i1 %11, label %bb6, label %bb5

cleanup:                                          ; preds = %bb3, %bb2, %bb1
  %12 = landingpad { i8*, i32 }
          cleanup
  %13 = extractvalue { i8*, i32 } %12, 0
  %14 = extractvalue { i8*, i32 } %12, 1
  %15 = getelementptr inbounds { i8*, i32 }, { i8*, i32 }* %0, i32 0, i32 0
  store i8* %13, i8** %15, align 8
  %16 = getelementptr inbounds { i8*, i32 }, { i8*, i32 }* %0, i32 0, i32 1
  store i32 %14, i32* %16, align 8
  br label %bb7

bb3:                                              ; preds = %bb2
  store { i64*, i64 } %9, { i64*, i64 }* %_5, align 8
; invoke core::ptr::drop_in_place<alloc::raw_vec::RawVec<&str>>
  invoke void @"_ZN4core3ptr58drop_in_place$LT$alloc..raw_vec..RawVec$LT$$RF$str$GT$$GT$17hb848d67a7d0929eeE"({ i64*, i64 }* %_5)
          to label %bb4 unwind label %cleanup

bb4:                                              ; preds = %bb3
  store i8 0, i8* %_10, align 1
  ret void

bb5:                                              ; preds = %bb6, %bb7
  %17 = bitcast { i8*, i32 }* %0 to i8**
  %18 = load i8*, i8** %17, align 8
  %19 = getelementptr inbounds { i8*, i32 }, { i8*, i32 }* %0, i32 0, i32 1
  %20 = load i32, i32* %19, align 8
  %21 = insertvalue { i8*, i32 } undef, i8* %18, 0
  %22 = insertvalue { i8*, i32 } %21, i32 %20, 1
  resume { i8*, i32 } %22

bb6:                                              ; preds = %bb7
  br label %bb5
}

; <<alloc::collections::vec_deque::VecDeque<T,A> as core::ops::drop::Drop>::drop::Dropper<T> as core::ops::drop::Drop>::drop
; Function Attrs: nonlazybind uwtable
define void @"_ZN159_$LT$$LT$alloc..collections..vec_deque..VecDeque$LT$T$C$A$GT$$u20$as$u20$core..ops..drop..Drop$GT$..drop..Dropper$LT$T$GT$$u20$as$u20$core..ops..drop..Drop$GT$4drop17h3a9e38bbc6e78318E"({ i32*, i64 }* align 8 dereferenceable(16) %self) unnamed_addr #0 {
start:
  %0 = bitcast { i32*, i64 }* %self to { [0 x i32]*, i64 }*
  %1 = getelementptr inbounds { [0 x i32]*, i64 }, { [0 x i32]*, i64 }* %0, i32 0, i32 0
  %_3.0 = load [0 x i32]*, [0 x i32]** %1, align 8, !nonnull !3
  %2 = getelementptr inbounds { [0 x i32]*, i64 }, { [0 x i32]*, i64 }* %0, i32 0, i32 1
  %_3.1 = load i64, i64* %2, align 8
  br label %bb1

bb1:                                              ; preds = %start
  ret void
}

; <T as core::any::Any>::type_id
; Function Attrs: nonlazybind uwtable
define i64 @"_ZN36_$LT$T$u20$as$u20$core..any..Any$GT$7type_id17h01c9823a85611c60E"({ [0 x i8]*, i64 }* align 8 dereferenceable(16) %self) unnamed_addr #0 {
start:
; call core::any::TypeId::of
  %0 = call i64 @_ZN4core3any6TypeId2of17hf7941339227356dfE()
  br label %bb1

bb1:                                              ; preds = %start
  ret i64 %0
}

; std::sys_common::mutex::MovableMutex::raw_unlock
; Function Attrs: inlinehint nonlazybind uwtable
define internal void @_ZN3std10sys_common5mutex12MovableMutex10raw_unlock17hf021d37193ae9062E(i64** align 8 dereferenceable(8) %self) unnamed_addr #1 {
start:
  %0 = bitcast i64** %self to %"std::sys::unix::mutex::Mutex"**
  %_2 = load %"std::sys::unix::mutex::Mutex"*, %"std::sys::unix::mutex::Mutex"** %0, align 8, !nonnull !3
; call std::sys::unix::mutex::Mutex::unlock
  call void @_ZN3std3sys4unix5mutex5Mutex6unlock17ha7f3529944b56876E(%"std::sys::unix::mutex::Mutex"* align 8 dereferenceable(40) %_2)
  br label %bb1

bb1:                                              ; preds = %start
  ret void
}

; std::sys_common::mutex::MovableMutex::raw_lock
; Function Attrs: inlinehint nonlazybind uwtable
define internal void @_ZN3std10sys_common5mutex12MovableMutex8raw_lock17h273d2dd79f30435aE(i64** align 8 dereferenceable(8) %self) unnamed_addr #1 {
start:
  %0 = bitcast i64** %self to %"std::sys::unix::mutex::Mutex"**
  %_2 = load %"std::sys::unix::mutex::Mutex"*, %"std::sys::unix::mutex::Mutex"** %0, align 8, !nonnull !3
; call std::sys::unix::mutex::Mutex::lock
  call void @_ZN3std3sys4unix5mutex5Mutex4lock17h81f51b77ca07a081E(%"std::sys::unix::mutex::Mutex"* align 8 dereferenceable(40) %_2)
  br label %bb1

bb1:                                              ; preds = %start
  ret void
}

; std::sys_common::rwlock::MovableRWLock::read_unlock
; Function Attrs: inlinehint nonlazybind uwtable
define internal void @_ZN3std10sys_common6rwlock13MovableRWLock11read_unlock17hd3ffb4a72e46d6cfE(i64** align 8 dereferenceable(8) %self) unnamed_addr #1 {
start:
  %0 = bitcast i64** %self to %"std::sys::unix::rwlock::RWLock"**
  %_2 = load %"std::sys::unix::rwlock::RWLock"*, %"std::sys::unix::rwlock::RWLock"** %0, align 8, !nonnull !3
; call std::sys::unix::rwlock::RWLock::read_unlock
  call void @_ZN3std3sys4unix6rwlock6RWLock11read_unlock17hc43cd3d383eefa03E(%"std::sys::unix::rwlock::RWLock"* align 8 dereferenceable(72) %_2)
  br label %bb1

bb1:                                              ; preds = %start
  ret void
}

; std::sys_common::rwlock::MovableRWLock::write_unlock
; Function Attrs: inlinehint nonlazybind uwtable
define internal void @_ZN3std10sys_common6rwlock13MovableRWLock12write_unlock17h87645411ef7cbdcdE(i64** align 8 dereferenceable(8) %self) unnamed_addr #1 {
start:
  %0 = bitcast i64** %self to %"std::sys::unix::rwlock::RWLock"**
  %_2 = load %"std::sys::unix::rwlock::RWLock"*, %"std::sys::unix::rwlock::RWLock"** %0, align 8, !nonnull !3
; call std::sys::unix::rwlock::RWLock::write_unlock
  call void @_ZN3std3sys4unix6rwlock6RWLock12write_unlock17hbc6d40648adb5949E(%"std::sys::unix::rwlock::RWLock"* align 8 dereferenceable(72) %_2)
  br label %bb1

bb1:                                              ; preds = %start
  ret void
}

; std::sys_common::rwlock::MovableRWLock::read
; Function Attrs: inlinehint nonlazybind uwtable
define internal void @_ZN3std10sys_common6rwlock13MovableRWLock4read17h4bd39e54facd5eeeE(i64** align 8 dereferenceable(8) %self) unnamed_addr #1 {
start:
  %0 = bitcast i64** %self to %"std::sys::unix::rwlock::RWLock"**
  %_2 = load %"std::sys::unix::rwlock::RWLock"*, %"std::sys::unix::rwlock::RWLock"** %0, align 8, !nonnull !3
; call std::sys::unix::rwlock::RWLock::read
  call void @_ZN3std3sys4unix6rwlock6RWLock4read17h63a7d60402fb5d61E(%"std::sys::unix::rwlock::RWLock"* align 8 dereferenceable(72) %_2)
  br label %bb1

bb1:                                              ; preds = %start
  ret void
}

; std::sys_common::rwlock::MovableRWLock::write
; Function Attrs: inlinehint nonlazybind uwtable
define internal void @_ZN3std10sys_common6rwlock13MovableRWLock5write17hc5be9b3cfa69a2f6E(i64** align 8 dereferenceable(8) %self) unnamed_addr #1 {
start:
  %0 = bitcast i64** %self to %"std::sys::unix::rwlock::RWLock"**
  %_2 = load %"std::sys::unix::rwlock::RWLock"*, %"std::sys::unix::rwlock::RWLock"** %0, align 8, !nonnull !3
; call std::sys::unix::rwlock::RWLock::write
  call void @_ZN3std3sys4unix6rwlock6RWLock5write17h7a1357fdcc0fab8cE(%"std::sys::unix::rwlock::RWLock"* align 8 dereferenceable(72) %_2)
  br label %bb1

bb1:                                              ; preds = %start
  ret void
}

; std::sys_common::condvar::Condvar::wait
; Function Attrs: inlinehint nonlazybind uwtable
define internal void @_ZN3std10sys_common7condvar7Condvar4wait17ha138f06521792bfbE(%"std::sys_common::condvar::Condvar"* align 8 dereferenceable(16) %self, i64** align 8 dereferenceable(8) %mutex) unnamed_addr #1 {
start:
  %_4 = getelementptr inbounds %"std::sys_common::condvar::Condvar", %"std::sys_common::condvar::Condvar"* %self, i32 0, i32 1
; call std::sys_common::condvar::check::SameMutexCheck::verify
  call void @_ZN3std10sys_common7condvar5check14SameMutexCheck6verify17h05fd77e152fcfa51E(%"std::sys_common::condvar::check::SameMutexCheck"* align 8 dereferenceable(8) %_4, i64** align 8 dereferenceable(8) %mutex)
  br label %bb1

bb1:                                              ; preds = %start
  %0 = bitcast %"std::sys_common::condvar::Condvar"* %self to %"std::sys::unix::condvar::Condvar"**
  %_6 = load %"std::sys::unix::condvar::Condvar"*, %"std::sys::unix::condvar::Condvar"** %0, align 8, !nonnull !3
; call std::sys_common::mutex::MovableMutex::raw
  %_8 = call align 8 dereferenceable(40) %"std::sys::unix::mutex::Mutex"* @_ZN3std10sys_common5mutex12MovableMutex3raw17h291a5d574400a240E(i64** align 8 dereferenceable(8) %mutex)
  br label %bb2

bb2:                                              ; preds = %bb1
; call std::sys::unix::condvar::Condvar::wait
  call void @_ZN3std3sys4unix7condvar7Condvar4wait17h21570249c6b3c9bdE(%"std::sys::unix::condvar::Condvar"* align 8 dereferenceable(48) %_6, %"std::sys::unix::mutex::Mutex"* align 8 dereferenceable(40) %_8)
  br label %bb3

bb3:                                              ; preds = %bb2
  ret void
}

; std::sys_common::backtrace::__rust_end_short_backtrace
; Function Attrs: noinline noreturn nonlazybind uwtable
define void @_ZN3std10sys_common9backtrace26__rust_end_short_backtrace17h1e2f96ed68be88ecE(%"[closure@std::panicking::begin_panic<&str>::{closure#0}]"* noalias nocapture dereferenceable(24) %f) unnamed_addr #2 personality i32 (i32, i32, i64, %"unwind::libunwind::_Unwind_Exception"*, %"unwind::libunwind::_Unwind_Context"*)* @rust_eh_personality {
start:
  %0 = alloca { i8*, i32 }, align 8
  %_2 = alloca %"[closure@std::panicking::begin_panic<&str>::{closure#0}]", align 8
  %1 = bitcast %"[closure@std::panicking::begin_panic<&str>::{closure#0}]"* %_2 to i8*
  %2 = bitcast %"[closure@std::panicking::begin_panic<&str>::{closure#0}]"* %f to i8*
  call void @llvm.memcpy.p0i8.p0i8.i64(i8* align 8 %1, i8* align 8 %2, i64 24, i1 false)
; call std::panicking::begin_panic::{{closure}}
  call void @"_ZN3std9panicking11begin_panic28_$u7b$$u7b$closure$u7d$$u7d$17h0cd692dac978da80E"(%"[closure@std::panicking::begin_panic<&str>::{closure#0}]"* noalias nocapture dereferenceable(24) %_2) #20
  br label %bb1

bb1:                                              ; preds = %start
; invoke core::hint::black_box
  invoke void @_ZN4core4hint9black_box17h4c7df2e865018a98E()
          to label %bb2 unwind label %cleanup

bb2:                                              ; preds = %bb1
  call void @llvm.trap()
  unreachable

bb3:                                              ; preds = %cleanup
  br label %bb4

cleanup:                                          ; preds = %bb1
  %3 = landingpad { i8*, i32 }
          cleanup
  %4 = extractvalue { i8*, i32 } %3, 0
  %5 = extractvalue { i8*, i32 } %3, 1
  %6 = getelementptr inbounds { i8*, i32 }, { i8*, i32 }* %0, i32 0, i32 0
  store i8* %4, i8** %6, align 8
  %7 = getelementptr inbounds { i8*, i32 }, { i8*, i32 }* %0, i32 0, i32 1
  store i32 %5, i32* %7, align 8
  br label %bb3

bb4:                                              ; preds = %bb3
  %8 = bitcast { i8*, i32 }* %0 to i8**
  %9 = load i8*, i8** %8, align 8
  %10 = getelementptr inbounds { i8*, i32 }, { i8*, i32 }* %0, i32 0, i32 1
  %11 = load i32, i32* %10, align 8
  %12 = insertvalue { i8*, i32 } undef, i8* %9, 0
  %13 = insertvalue { i8*, i32 } %12, i32 %11, 1
  resume { i8*, i32 } %13
}

; std::collections::hash::map::RandomState::new
; Function Attrs: inlinehint nonlazybind uwtable
define internal { i64, i64 } @_ZN3std11collections4hash3map11RandomState3new17hb37874bdd08cddd1E() unnamed_addr #1 {
start:
; call std::thread::local::LocalKey<T>::with
  %0 = call { i64, i64 } @"_ZN3std6thread5local17LocalKey$LT$T$GT$4with17h0b7ea76177e8514fE"(i64** align 8 dereferenceable(8) bitcast (<{ i8*, [0 x i8] }>* @alloc129 to i64**))
  %1 = extractvalue { i64, i64 } %0, 0
  %2 = extractvalue { i64, i64 } %0, 1
  br label %bb1

bb1:                                              ; preds = %start
  %3 = insertvalue { i64, i64 } undef, i64 %1, 0
  %4 = insertvalue { i64, i64 } %3, i64 %2, 1
  ret { i64, i64 } %4
}

; std::collections::hash::map::RandomState::new::{{closure}}
; Function Attrs: inlinehint nonlazybind uwtable
define { i64, i64 } @"_ZN3std11collections4hash3map11RandomState3new28_$u7b$$u7b$closure$u7d$$u7d$17h453e6777884ed1ddE"({ i64, i64 }* align 8 dereferenceable(16) %keys) unnamed_addr #1 {
start:
  %_9 = alloca { i64, i64 }, align 8
  %0 = alloca { i64, i64 }, align 8
; call core::cell::Cell<T>::get
  %1 = call { i64, i64 } @"_ZN4core4cell13Cell$LT$T$GT$3get17h4ce5ac50e5413e3bE"({ i64, i64 }* align 8 dereferenceable(16) %keys)
  %_5.0 = extractvalue { i64, i64 } %1, 0
  %_5.1 = extractvalue { i64, i64 } %1, 1
  br label %bb1

bb1:                                              ; preds = %start
  %2 = add i64 %_5.0, 1
  br label %bb2

bb2:                                              ; preds = %bb1
  %3 = bitcast { i64, i64 }* %_9 to i64*
  store i64 %2, i64* %3, align 8
  %4 = getelementptr inbounds { i64, i64 }, { i64, i64 }* %_9, i32 0, i32 1
  store i64 %_5.1, i64* %4, align 8
  %5 = getelementptr inbounds { i64, i64 }, { i64, i64 }* %_9, i32 0, i32 0
  %6 = load i64, i64* %5, align 8
  %7 = getelementptr inbounds { i64, i64 }, { i64, i64 }* %_9, i32 0, i32 1
  %8 = load i64, i64* %7, align 8
; call core::cell::Cell<T>::set
  call void @"_ZN4core4cell13Cell$LT$T$GT$3set17h76c672d251d71af1E"({ i64, i64 }* align 8 dereferenceable(16) %keys, i64 %6, i64 %8)
  br label %bb3

bb3:                                              ; preds = %bb2
  %9 = bitcast { i64, i64 }* %0 to i64*
  store i64 %_5.0, i64* %9, align 8
  %10 = getelementptr inbounds { i64, i64 }, { i64, i64 }* %0, i32 0, i32 1
  store i64 %_5.1, i64* %10, align 8
  %11 = getelementptr inbounds { i64, i64 }, { i64, i64 }* %0, i32 0, i32 0
  %12 = load i64, i64* %11, align 8
  %13 = getelementptr inbounds { i64, i64 }, { i64, i64 }* %0, i32 0, i32 1
  %14 = load i64, i64* %13, align 8
  %15 = insertvalue { i64, i64 } undef, i64 %12, 0
  %16 = insertvalue { i64, i64 } %15, i64 %14, 1
  ret { i64, i64 } %16
}

; std::collections::hash::map::RandomState::new::KEYS::__init
; Function Attrs: inlinehint nonlazybind uwtable
define internal { i64, i64 } @_ZN3std11collections4hash3map11RandomState3new4KEYS6__init17h43625dd4dbef490fE() unnamed_addr #1 {
start:
; call std::sys::unix::rand::hashmap_random_keys
  %0 = call { i64, i64 } @_ZN3std3sys4unix4rand19hashmap_random_keys17hef8077cc4ee723c6E()
  %_1.0 = extractvalue { i64, i64 } %0, 0
  %_1.1 = extractvalue { i64, i64 } %0, 1
  br label %bb1

bb1:                                              ; preds = %start
; call core::cell::Cell<T>::new
  %1 = call { i64, i64 } @"_ZN4core4cell13Cell$LT$T$GT$3new17h70ae99796dfa92e2E"(i64 %_1.0, i64 %_1.1)
  %2 = extractvalue { i64, i64 } %1, 0
  %3 = extractvalue { i64, i64 } %1, 1
  br label %bb2

bb2:                                              ; preds = %bb1
  %4 = insertvalue { i64, i64 } undef, i64 %2, 0
  %5 = insertvalue { i64, i64 } %4, i64 %3, 1
  ret { i64, i64 } %5
}

; std::collections::hash::map::RandomState::new::KEYS::__getit
; Function Attrs: inlinehint nonlazybind uwtable
define internal align 8 dereferenceable_or_null(16) i64* @_ZN3std11collections4hash3map11RandomState3new4KEYS7__getit17h46866a828f9fcf12E() unnamed_addr #1 {
start:
; call std::thread::local::fast::Key<T>::get
  %0 = call align 8 dereferenceable_or_null(16) i64* @"_ZN3std6thread5local4fast12Key$LT$T$GT$3get17hebf8f753599c2456E"(%"std::thread::local::fast::Key<core::cell::Cell<(u64, u64)>>"* align 8 dereferenceable(32) @_ZN3std11collections4hash3map11RandomState3new4KEYS7__getit5__KEY17h99907fa180e5819cE)
  br label %bb1

bb1:                                              ; preds = %start
  ret i64* %0
}

; std::collections::hash::map::Entry<K,V>::or_insert
; Function Attrs: inlinehint nonlazybind uwtable
define align 4 dereferenceable(4) i32* @"_ZN3std11collections4hash3map18Entry$LT$K$C$V$GT$9or_insert17h1a83f9084e716f88E"(%"std::collections::hash::map::Entry<std::thread::ThreadId, i32>"* noalias nocapture dereferenceable(32) %self, i32 %default) unnamed_addr #1 personality i32 (i32, i32, i64, %"unwind::libunwind::_Unwind_Exception"*, %"unwind::libunwind::_Unwind_Context"*)* @rust_eh_personality {
start:
  %0 = alloca { i8*, i32 }, align 8
  %_13 = alloca i8, align 1
  %_11 = alloca %"std::collections::hash::map::VacantEntry<std::thread::ThreadId, i32>", align 8
  %entry1 = alloca %"std::collections::hash::map::VacantEntry<std::thread::ThreadId, i32>", align 8
  %_8 = alloca %"std::collections::hash::map::OccupiedEntry<std::thread::ThreadId, i32>", align 8
  %entry = alloca %"std::collections::hash::map::OccupiedEntry<std::thread::ThreadId, i32>", align 8
  %_4 = alloca i32*, align 8
  store i8 0, i8* %_13, align 1
  store i8 1, i8* %_13, align 1
  %1 = bitcast %"std::collections::hash::map::Entry<std::thread::ThreadId, i32>"* %self to i64*
  %_5 = load i64, i64* %1, align 8, !range !2
  switch i64 %_5, label %bb2 [
    i64 0, label %bb3
    i64 1, label %bb1
  ]

bb2:                                              ; preds = %start
  unreachable

bb3:                                              ; preds = %start
  %2 = bitcast %"std::collections::hash::map::Entry<std::thread::ThreadId, i32>"* %self to %"std::collections::hash::map::Entry<std::thread::ThreadId, i32>::Occupied"*
  %3 = getelementptr inbounds %"std::collections::hash::map::Entry<std::thread::ThreadId, i32>::Occupied", %"std::collections::hash::map::Entry<std::thread::ThreadId, i32>::Occupied"* %2, i32 0, i32 1
  %4 = bitcast %"std::collections::hash::map::OccupiedEntry<std::thread::ThreadId, i32>"* %entry to i8*
  %5 = bitcast %"std::collections::hash::map::OccupiedEntry<std::thread::ThreadId, i32>"* %3 to i8*
  call void @llvm.memcpy.p0i8.p0i8.i64(i8* align 8 %4, i8* align 8 %5, i64 24, i1 false)
  %6 = bitcast %"std::collections::hash::map::OccupiedEntry<std::thread::ThreadId, i32>"* %_8 to i8*
  %7 = bitcast %"std::collections::hash::map::OccupiedEntry<std::thread::ThreadId, i32>"* %entry to i8*
  call void @llvm.memcpy.p0i8.p0i8.i64(i8* align 8 %6, i8* align 8 %7, i64 24, i1 false)
; invoke std::collections::hash::map::OccupiedEntry<K,V>::into_mut
  %_7 = invoke align 4 dereferenceable(4) i32* @"_ZN3std11collections4hash3map26OccupiedEntry$LT$K$C$V$GT$8into_mut17h1ca911e54dbcaaf1E"(%"std::collections::hash::map::OccupiedEntry<std::thread::ThreadId, i32>"* noalias nocapture dereferenceable(24) %_8)
          to label %bb4 unwind label %cleanup

bb1:                                              ; preds = %start
  %8 = bitcast %"std::collections::hash::map::Entry<std::thread::ThreadId, i32>"* %self to %"std::collections::hash::map::Entry<std::thread::ThreadId, i32>::Vacant"*
  %9 = getelementptr inbounds %"std::collections::hash::map::Entry<std::thread::ThreadId, i32>::Vacant", %"std::collections::hash::map::Entry<std::thread::ThreadId, i32>::Vacant"* %8, i32 0, i32 1
  %10 = bitcast %"std::collections::hash::map::VacantEntry<std::thread::ThreadId, i32>"* %entry1 to i8*
  %11 = bitcast %"std::collections::hash::map::VacantEntry<std::thread::ThreadId, i32>"* %9 to i8*
  call void @llvm.memcpy.p0i8.p0i8.i64(i8* align 8 %10, i8* align 8 %11, i64 24, i1 false)
  %12 = bitcast %"std::collections::hash::map::VacantEntry<std::thread::ThreadId, i32>"* %_11 to i8*
  %13 = bitcast %"std::collections::hash::map::VacantEntry<std::thread::ThreadId, i32>"* %entry1 to i8*
  call void @llvm.memcpy.p0i8.p0i8.i64(i8* align 8 %12, i8* align 8 %13, i64 24, i1 false)
  store i8 0, i8* %_13, align 1
; invoke std::collections::hash::map::VacantEntry<K,V>::insert
  %_10 = invoke align 4 dereferenceable(4) i32* @"_ZN3std11collections4hash3map24VacantEntry$LT$K$C$V$GT$6insert17h640a720c6dd561b3E"(%"std::collections::hash::map::VacantEntry<std::thread::ThreadId, i32>"* noalias nocapture dereferenceable(24) %_11, i32 %default)
          to label %bb5 unwind label %cleanup

bb5:                                              ; preds = %bb1
  store i32* %_10, i32** %_4, align 8
  br label %bb6

bb10:                                             ; preds = %cleanup
  %14 = load i8, i8* %_13, align 1, !range !4
  %15 = trunc i8 %14 to i1
  br i1 %15, label %bb9, label %bb11

cleanup:                                          ; preds = %bb3, %bb1
  %16 = landingpad { i8*, i32 }
          cleanup
  %17 = extractvalue { i8*, i32 } %16, 0
  %18 = extractvalue { i8*, i32 } %16, 1
  %19 = getelementptr inbounds { i8*, i32 }, { i8*, i32 }* %0, i32 0, i32 0
  store i8* %17, i8** %19, align 8
  %20 = getelementptr inbounds { i8*, i32 }, { i8*, i32 }* %0, i32 0, i32 1
  store i32 %18, i32* %20, align 8
  br label %bb10

bb6:                                              ; preds = %bb4, %bb5
  %_3 = load i32*, i32** %_4, align 8, !nonnull !3
  %21 = load i8, i8* %_13, align 1, !range !4
  %22 = trunc i8 %21 to i1
  br i1 %22, label %bb8, label %bb7

bb4:                                              ; preds = %bb3
  store i32* %_7, i32** %_4, align 8
  br label %bb6

bb11:                                             ; preds = %bb9, %bb10
  %23 = bitcast { i8*, i32 }* %0 to i8**
  %24 = load i8*, i8** %23, align 8
  %25 = getelementptr inbounds { i8*, i32 }, { i8*, i32 }* %0, i32 0, i32 1
  %26 = load i32, i32* %25, align 8
  %27 = insertvalue { i8*, i32 } undef, i8* %24, 0
  %28 = insertvalue { i8*, i32 } %27, i32 %26, 1
  resume { i8*, i32 } %28

bb9:                                              ; preds = %bb10
  br label %bb11

bb7:                                              ; preds = %bb8, %bb6
  ret i32* %_3

bb8:                                              ; preds = %bb6
  br label %bb7
}

; std::collections::hash::map::HashMap<K,V>::new
; Function Attrs: inlinehint nonlazybind uwtable
define void @"_ZN3std11collections4hash3map20HashMap$LT$K$C$V$GT$3new17h897dfa1f07da2d42E"(%"std::collections::hash::map::HashMap<std::thread::ThreadId, i32>"* noalias nocapture sret(%"std::collections::hash::map::HashMap<std::thread::ThreadId, i32>") dereferenceable(48) %0) unnamed_addr #1 {
start:
; call <std::collections::hash::map::HashMap<K,V,S> as core::default::Default>::default
  call void @"_ZN96_$LT$std..collections..hash..map..HashMap$LT$K$C$V$C$S$GT$$u20$as$u20$core..default..Default$GT$7default17h3965d4194a230f06E"(%"std::collections::hash::map::HashMap<std::thread::ThreadId, i32>"* noalias nocapture sret(%"std::collections::hash::map::HashMap<std::thread::ThreadId, i32>") dereferenceable(48) %0)
  br label %bb1

bb1:                                              ; preds = %start
  ret void
}

; std::collections::hash::map::HashMap<K,V,S>::with_hasher
; Function Attrs: inlinehint nonlazybind uwtable
define void @"_ZN3std11collections4hash3map24HashMap$LT$K$C$V$C$S$GT$11with_hasher17h9d91a2efa04c6e9aE"(%"std::collections::hash::map::HashMap<std::thread::ThreadId, i32>"* noalias nocapture sret(%"std::collections::hash::map::HashMap<std::thread::ThreadId, i32>") dereferenceable(48) %0, i64 %hash_builder.0, i64 %hash_builder.1) unnamed_addr #1 {
start:
  %_2 = alloca %"hashbrown::map::HashMap<std::thread::ThreadId, i32, std::collections::hash::map::RandomState>", align 8
; call hashbrown::map::HashMap<K,V,S>::with_hasher
  call void @"_ZN9hashbrown3map24HashMap$LT$K$C$V$C$S$GT$11with_hasher17hb97db696b3da97b8E"(%"hashbrown::map::HashMap<std::thread::ThreadId, i32, std::collections::hash::map::RandomState>"* noalias nocapture sret(%"hashbrown::map::HashMap<std::thread::ThreadId, i32, std::collections::hash::map::RandomState>") dereferenceable(48) %_2, i64 %hash_builder.0, i64 %hash_builder.1)
  br label %bb1

bb1:                                              ; preds = %start
  %1 = bitcast %"std::collections::hash::map::HashMap<std::thread::ThreadId, i32>"* %0 to %"hashbrown::map::HashMap<std::thread::ThreadId, i32, std::collections::hash::map::RandomState>"*
  %2 = bitcast %"hashbrown::map::HashMap<std::thread::ThreadId, i32, std::collections::hash::map::RandomState>"* %1 to i8*
  %3 = bitcast %"hashbrown::map::HashMap<std::thread::ThreadId, i32, std::collections::hash::map::RandomState>"* %_2 to i8*
  call void @llvm.memcpy.p0i8.p0i8.i64(i8* align 8 %2, i8* align 8 %3, i64 48, i1 false)
  ret void
}

; std::collections::hash::map::HashMap<K,V,S>::entry
; Function Attrs: inlinehint nonlazybind uwtable
define void @"_ZN3std11collections4hash3map24HashMap$LT$K$C$V$C$S$GT$5entry17h2dcf38ab880c8131E"(%"std::collections::hash::map::Entry<std::thread::ThreadId, i32>"* noalias nocapture sret(%"std::collections::hash::map::Entry<std::thread::ThreadId, i32>") dereferenceable(32) %0, %"std::collections::hash::map::HashMap<std::thread::ThreadId, i32>"* align 8 dereferenceable(48) %self, i64 %key) unnamed_addr #1 {
start:
  %_3 = alloca %"hashbrown::rustc_entry::RustcEntry<std::thread::ThreadId, i32>", align 8
  %_4 = bitcast %"std::collections::hash::map::HashMap<std::thread::ThreadId, i32>"* %self to %"hashbrown::map::HashMap<std::thread::ThreadId, i32, std::collections::hash::map::RandomState>"*
; call hashbrown::rustc_entry::<impl hashbrown::map::HashMap<K,V,S,A>>::rustc_entry
  call void @"_ZN9hashbrown11rustc_entry62_$LT$impl$u20$hashbrown..map..HashMap$LT$K$C$V$C$S$C$A$GT$$GT$11rustc_entry17hafe1c2ac87285debE"(%"hashbrown::rustc_entry::RustcEntry<std::thread::ThreadId, i32>"* noalias nocapture sret(%"hashbrown::rustc_entry::RustcEntry<std::thread::ThreadId, i32>") dereferenceable(32) %_3, %"hashbrown::map::HashMap<std::thread::ThreadId, i32, std::collections::hash::map::RandomState>"* align 8 dereferenceable(48) %_4, i64 %key)
  br label %bb1

bb1:                                              ; preds = %start
; call std::collections::hash::map::map_entry
  call void @_ZN3std11collections4hash3map9map_entry17h6bc91b92e44e71a7E(%"std::collections::hash::map::Entry<std::thread::ThreadId, i32>"* noalias nocapture sret(%"std::collections::hash::map::Entry<std::thread::ThreadId, i32>") dereferenceable(32) %0, %"hashbrown::rustc_entry::RustcEntry<std::thread::ThreadId, i32>"* noalias nocapture dereferenceable(32) %_3)
  br label %bb2

bb2:                                              ; preds = %bb1
  ret void
}

; std::collections::hash::map::VacantEntry<K,V>::insert
; Function Attrs: inlinehint nonlazybind uwtable
define align 4 dereferenceable(4) i32* @"_ZN3std11collections4hash3map24VacantEntry$LT$K$C$V$GT$6insert17h640a720c6dd561b3E"(%"std::collections::hash::map::VacantEntry<std::thread::ThreadId, i32>"* noalias nocapture dereferenceable(24) %self, i32 %value) unnamed_addr #1 {
start:
  %_5 = alloca %"hashbrown::rustc_entry::RustcVacantEntry<std::thread::ThreadId, i32>", align 8
  %0 = bitcast %"std::collections::hash::map::VacantEntry<std::thread::ThreadId, i32>"* %self to %"hashbrown::rustc_entry::RustcVacantEntry<std::thread::ThreadId, i32>"*
  %1 = bitcast %"hashbrown::rustc_entry::RustcVacantEntry<std::thread::ThreadId, i32>"* %_5 to i8*
  %2 = bitcast %"hashbrown::rustc_entry::RustcVacantEntry<std::thread::ThreadId, i32>"* %0 to i8*
  call void @llvm.memcpy.p0i8.p0i8.i64(i8* align 8 %1, i8* align 8 %2, i64 24, i1 false)
; call hashbrown::rustc_entry::RustcVacantEntry<K,V,A>::insert
  %_4 = call align 4 dereferenceable(4) i32* @"_ZN9hashbrown11rustc_entry33RustcVacantEntry$LT$K$C$V$C$A$GT$6insert17h61619651df5920e5E"(%"hashbrown::rustc_entry::RustcVacantEntry<std::thread::ThreadId, i32>"* noalias nocapture dereferenceable(24) %_5, i32 %value)
  br label %bb1

bb1:                                              ; preds = %start
  ret i32* %_4
}

; std::collections::hash::map::OccupiedEntry<K,V>::into_mut
; Function Attrs: inlinehint nonlazybind uwtable
define align 4 dereferenceable(4) i32* @"_ZN3std11collections4hash3map26OccupiedEntry$LT$K$C$V$GT$8into_mut17h1ca911e54dbcaaf1E"(%"std::collections::hash::map::OccupiedEntry<std::thread::ThreadId, i32>"* noalias nocapture dereferenceable(24) %self) unnamed_addr #1 {
start:
  %_4 = alloca %"hashbrown::rustc_entry::RustcOccupiedEntry<std::thread::ThreadId, i32>", align 8
  %0 = bitcast %"std::collections::hash::map::OccupiedEntry<std::thread::ThreadId, i32>"* %self to %"hashbrown::rustc_entry::RustcOccupiedEntry<std::thread::ThreadId, i32>"*
  %1 = bitcast %"hashbrown::rustc_entry::RustcOccupiedEntry<std::thread::ThreadId, i32>"* %_4 to i8*
  %2 = bitcast %"hashbrown::rustc_entry::RustcOccupiedEntry<std::thread::ThreadId, i32>"* %0 to i8*
  call void @llvm.memcpy.p0i8.p0i8.i64(i8* align 8 %1, i8* align 8 %2, i64 24, i1 false)
; call hashbrown::rustc_entry::RustcOccupiedEntry<K,V,A>::into_mut
  %_3 = call align 4 dereferenceable(4) i32* @"_ZN9hashbrown11rustc_entry35RustcOccupiedEntry$LT$K$C$V$C$A$GT$8into_mut17ha128a54a97928514E"(%"hashbrown::rustc_entry::RustcOccupiedEntry<std::thread::ThreadId, i32>"* noalias nocapture dereferenceable(24) %_4)
  br label %bb1

bb1:                                              ; preds = %start
  ret i32* %_3
}

; std::collections::hash::map::map_entry
; Function Attrs: inlinehint nonlazybind uwtable
define void @_ZN3std11collections4hash3map9map_entry17h6bc91b92e44e71a7E(%"std::collections::hash::map::Entry<std::thread::ThreadId, i32>"* noalias nocapture sret(%"std::collections::hash::map::Entry<std::thread::ThreadId, i32>") dereferenceable(32) %0, %"hashbrown::rustc_entry::RustcEntry<std::thread::ThreadId, i32>"* noalias nocapture dereferenceable(32) %raw) unnamed_addr #1 {
start:
  %_8 = alloca %"hashbrown::rustc_entry::RustcVacantEntry<std::thread::ThreadId, i32>", align 8
  %_7 = alloca %"std::collections::hash::map::VacantEntry<std::thread::ThreadId, i32>", align 8
  %base1 = alloca %"hashbrown::rustc_entry::RustcVacantEntry<std::thread::ThreadId, i32>", align 8
  %_5 = alloca %"hashbrown::rustc_entry::RustcOccupiedEntry<std::thread::ThreadId, i32>", align 8
  %_4 = alloca %"std::collections::hash::map::OccupiedEntry<std::thread::ThreadId, i32>", align 8
  %base = alloca %"hashbrown::rustc_entry::RustcOccupiedEntry<std::thread::ThreadId, i32>", align 8
  %1 = bitcast %"hashbrown::rustc_entry::RustcEntry<std::thread::ThreadId, i32>"* %raw to i64*
  %_2 = load i64, i64* %1, align 8, !range !2
  switch i64 %_2, label %bb2 [
    i64 0, label %bb3
    i64 1, label %bb1
  ]

bb2:                                              ; preds = %start
  unreachable

bb3:                                              ; preds = %start
  %2 = bitcast %"hashbrown::rustc_entry::RustcEntry<std::thread::ThreadId, i32>"* %raw to %"hashbrown::rustc_entry::RustcEntry<std::thread::ThreadId, i32>::Occupied"*
  %3 = getelementptr inbounds %"hashbrown::rustc_entry::RustcEntry<std::thread::ThreadId, i32>::Occupied", %"hashbrown::rustc_entry::RustcEntry<std::thread::ThreadId, i32>::Occupied"* %2, i32 0, i32 1
  %4 = bitcast %"hashbrown::rustc_entry::RustcOccupiedEntry<std::thread::ThreadId, i32>"* %base to i8*
  %5 = bitcast %"hashbrown::rustc_entry::RustcOccupiedEntry<std::thread::ThreadId, i32>"* %3 to i8*
  call void @llvm.memcpy.p0i8.p0i8.i64(i8* align 8 %4, i8* align 8 %5, i64 24, i1 false)
  %6 = bitcast %"hashbrown::rustc_entry::RustcOccupiedEntry<std::thread::ThreadId, i32>"* %_5 to i8*
  %7 = bitcast %"hashbrown::rustc_entry::RustcOccupiedEntry<std::thread::ThreadId, i32>"* %base to i8*
  call void @llvm.memcpy.p0i8.p0i8.i64(i8* align 8 %6, i8* align 8 %7, i64 24, i1 false)
  %8 = bitcast %"std::collections::hash::map::OccupiedEntry<std::thread::ThreadId, i32>"* %_4 to %"hashbrown::rustc_entry::RustcOccupiedEntry<std::thread::ThreadId, i32>"*
  %9 = bitcast %"hashbrown::rustc_entry::RustcOccupiedEntry<std::thread::ThreadId, i32>"* %8 to i8*
  %10 = bitcast %"hashbrown::rustc_entry::RustcOccupiedEntry<std::thread::ThreadId, i32>"* %_5 to i8*
  call void @llvm.memcpy.p0i8.p0i8.i64(i8* align 8 %9, i8* align 8 %10, i64 24, i1 false)
  %11 = bitcast %"std::collections::hash::map::Entry<std::thread::ThreadId, i32>"* %0 to %"std::collections::hash::map::Entry<std::thread::ThreadId, i32>::Occupied"*
  %12 = getelementptr inbounds %"std::collections::hash::map::Entry<std::thread::ThreadId, i32>::Occupied", %"std::collections::hash::map::Entry<std::thread::ThreadId, i32>::Occupied"* %11, i32 0, i32 1
  %13 = bitcast %"std::collections::hash::map::OccupiedEntry<std::thread::ThreadId, i32>"* %12 to i8*
  %14 = bitcast %"std::collections::hash::map::OccupiedEntry<std::thread::ThreadId, i32>"* %_4 to i8*
  call void @llvm.memcpy.p0i8.p0i8.i64(i8* align 8 %13, i8* align 8 %14, i64 24, i1 false)
  %15 = bitcast %"std::collections::hash::map::Entry<std::thread::ThreadId, i32>"* %0 to i64*
  store i64 0, i64* %15, align 8
  br label %bb4

bb1:                                              ; preds = %start
  %16 = bitcast %"hashbrown::rustc_entry::RustcEntry<std::thread::ThreadId, i32>"* %raw to %"hashbrown::rustc_entry::RustcEntry<std::thread::ThreadId, i32>::Vacant"*
  %17 = getelementptr inbounds %"hashbrown::rustc_entry::RustcEntry<std::thread::ThreadId, i32>::Vacant", %"hashbrown::rustc_entry::RustcEntry<std::thread::ThreadId, i32>::Vacant"* %16, i32 0, i32 1
  %18 = bitcast %"hashbrown::rustc_entry::RustcVacantEntry<std::thread::ThreadId, i32>"* %base1 to i8*
  %19 = bitcast %"hashbrown::rustc_entry::RustcVacantEntry<std::thread::ThreadId, i32>"* %17 to i8*
  call void @llvm.memcpy.p0i8.p0i8.i64(i8* align 8 %18, i8* align 8 %19, i64 24, i1 false)
  %20 = bitcast %"hashbrown::rustc_entry::RustcVacantEntry<std::thread::ThreadId, i32>"* %_8 to i8*
  %21 = bitcast %"hashbrown::rustc_entry::RustcVacantEntry<std::thread::ThreadId, i32>"* %base1 to i8*
  call void @llvm.memcpy.p0i8.p0i8.i64(i8* align 8 %20, i8* align 8 %21, i64 24, i1 false)
  %22 = bitcast %"std::collections::hash::map::VacantEntry<std::thread::ThreadId, i32>"* %_7 to %"hashbrown::rustc_entry::RustcVacantEntry<std::thread::ThreadId, i32>"*
  %23 = bitcast %"hashbrown::rustc_entry::RustcVacantEntry<std::thread::ThreadId, i32>"* %22 to i8*
  %24 = bitcast %"hashbrown::rustc_entry::RustcVacantEntry<std::thread::ThreadId, i32>"* %_8 to i8*
  call void @llvm.memcpy.p0i8.p0i8.i64(i8* align 8 %23, i8* align 8 %24, i64 24, i1 false)
  %25 = bitcast %"std::collections::hash::map::Entry<std::thread::ThreadId, i32>"* %0 to %"std::collections::hash::map::Entry<std::thread::ThreadId, i32>::Vacant"*
  %26 = getelementptr inbounds %"std::collections::hash::map::Entry<std::thread::ThreadId, i32>::Vacant", %"std::collections::hash::map::Entry<std::thread::ThreadId, i32>::Vacant"* %25, i32 0, i32 1
  %27 = bitcast %"std::collections::hash::map::VacantEntry<std::thread::ThreadId, i32>"* %26 to i8*
  %28 = bitcast %"std::collections::hash::map::VacantEntry<std::thread::ThreadId, i32>"* %_7 to i8*
  call void @llvm.memcpy.p0i8.p0i8.i64(i8* align 8 %27, i8* align 8 %28, i64 24, i1 false)
  %29 = bitcast %"std::collections::hash::map::Entry<std::thread::ThreadId, i32>"* %0 to i64*
  store i64 1, i64* %29, align 8
  br label %bb4

bb4:                                              ; preds = %bb3, %bb1
  ret void
}

; std::fs::OpenOptions::open
; Function Attrs: nonlazybind uwtable
define void @_ZN3std2fs11OpenOptions4open17h1cda0d010ba70858E(%"core::result::Result<std::fs::File, std::io::error::Error>"* noalias nocapture sret(%"core::result::Result<std::fs::File, std::io::error::Error>") dereferenceable(24) %0, %"std::fs::OpenOptions"* align 4 dereferenceable(16) %self, [0 x i8]* nonnull align 1 %1, i64 %2) unnamed_addr #0 personality i32 (i32, i32, i64, %"unwind::libunwind::_Unwind_Exception"*, %"unwind::libunwind::_Unwind_Context"*)* @rust_eh_personality {
start:
  %3 = alloca { i8*, i32 }, align 8
  %path = alloca { [0 x i8]*, i64 }, align 8
  %4 = getelementptr inbounds { [0 x i8]*, i64 }, { [0 x i8]*, i64 }* %path, i32 0, i32 0
  store [0 x i8]* %1, [0 x i8]** %4, align 8
  %5 = getelementptr inbounds { [0 x i8]*, i64 }, { [0 x i8]*, i64 }* %path, i32 0, i32 1
  store i64 %2, i64* %5, align 8
; invoke <&T as core::convert::AsRef<U>>::as_ref
  %6 = invoke { %"std::path::Path"*, i64 } @"_ZN55_$LT$$RF$T$u20$as$u20$core..convert..AsRef$LT$U$GT$$GT$6as_ref17hcd92eae36b9b473dE"({ [0 x i8]*, i64 }* align 8 dereferenceable(16) %path)
          to label %bb1 unwind label %cleanup

bb1:                                              ; preds = %start
  %_5.0 = extractvalue { %"std::path::Path"*, i64 } %6, 0
  %_5.1 = extractvalue { %"std::path::Path"*, i64 } %6, 1
; invoke std::fs::OpenOptions::_open
  invoke void @_ZN3std2fs11OpenOptions5_open17hf9a7f113c14c71dfE(%"core::result::Result<std::fs::File, std::io::error::Error>"* noalias nocapture sret(%"core::result::Result<std::fs::File, std::io::error::Error>") dereferenceable(24) %0, %"std::fs::OpenOptions"* align 4 dereferenceable(16) %self, %"std::path::Path"* nonnull align 1 %_5.0, i64 %_5.1)
          to label %bb2 unwind label %cleanup

bb4:                                              ; preds = %cleanup
  br label %bb5

cleanup:                                          ; preds = %bb1, %start
  %7 = landingpad { i8*, i32 }
          cleanup
  %8 = extractvalue { i8*, i32 } %7, 0
  %9 = extractvalue { i8*, i32 } %7, 1
  %10 = getelementptr inbounds { i8*, i32 }, { i8*, i32 }* %3, i32 0, i32 0
  store i8* %8, i8** %10, align 8
  %11 = getelementptr inbounds { i8*, i32 }, { i8*, i32 }* %3, i32 0, i32 1
  store i32 %9, i32* %11, align 8
  br label %bb4

bb2:                                              ; preds = %bb1
  br label %bb3

bb5:                                              ; preds = %bb4
  %12 = bitcast { i8*, i32 }* %3 to i8**
  %13 = load i8*, i8** %12, align 8
  %14 = getelementptr inbounds { i8*, i32 }, { i8*, i32 }* %3, i32 0, i32 1
  %15 = load i32, i32* %14, align 8
  %16 = insertvalue { i8*, i32 } undef, i8* %13, 0
  %17 = insertvalue { i8*, i32 } %16, i32 %15, 1
  resume { i8*, i32 } %17

bb3:                                              ; preds = %bb2
  ret void
}

; std::io::Write::write_all
; Function Attrs: nonlazybind uwtable
define i128 @_ZN3std2io5Write9write_all17h4b7afc93b95c103eE(i32* align 4 dereferenceable(4) %self, [0 x i8]* nonnull align 1 %0, i64 %1) unnamed_addr #0 personality i32 (i32, i32, i64, %"unwind::libunwind::_Unwind_Exception"*, %"unwind::libunwind::_Unwind_Context"*)* @rust_eh_personality {
start:
  %2 = alloca i128, align 8
  %3 = alloca { i8*, i32 }, align 8
  %_32 = alloca i8, align 1
  %_29 = alloca %"std::io::error::Error", align 8
  %e1 = alloca %"std::io::error::Error", align 8
  %_25 = alloca i8, align 1
  %e = alloca %"std::io::error::Error"*, align 8
  %_19 = alloca i64, align 8
  %_11 = alloca i8, align 1
  %_10 = alloca %"std::io::error::Error", align 8
  %_6 = alloca %"core::result::Result<usize, std::io::error::Error>", align 8
  %4 = alloca %"core::result::Result<(), std::io::error::Error>", align 8
  %buf = alloca { [0 x i8]*, i64 }, align 8
  %5 = getelementptr inbounds { [0 x i8]*, i64 }, { [0 x i8]*, i64 }* %buf, i32 0, i32 0
  store [0 x i8]* %0, [0 x i8]** %5, align 8
  %6 = getelementptr inbounds { [0 x i8]*, i64 }, { [0 x i8]*, i64 }* %buf, i32 0, i32 1
  store i64 %1, i64* %6, align 8
  store i8 0, i8* %_32, align 1
  br label %bb1

bb1:                                              ; preds = %bb20, %start
  %7 = getelementptr inbounds { [0 x i8]*, i64 }, { [0 x i8]*, i64 }* %buf, i32 0, i32 0
  %_5.0 = load [0 x i8]*, [0 x i8]** %7, align 8, !nonnull !3
  %8 = getelementptr inbounds { [0 x i8]*, i64 }, { [0 x i8]*, i64 }* %buf, i32 0, i32 1
  %_5.1 = load i64, i64* %8, align 8
; call core::slice::<impl [T]>::is_empty
  %_4 = call zeroext i1 @"_ZN4core5slice29_$LT$impl$u20$$u5b$T$u5d$$GT$8is_empty17hd5917bb55b00e93fE"([0 x i8]* nonnull align 1 %_5.0, i64 %_5.1)
  br label %bb2

bb2:                                              ; preds = %bb1
  %_3 = xor i1 %_4, true
  br i1 %_3, label %bb3, label %bb16

bb16:                                             ; preds = %bb2
  %9 = bitcast %"core::result::Result<(), std::io::error::Error>"* %4 to i8*
  store i8 4, i8* %9, align 8
  br label %bb18

bb3:                                              ; preds = %bb2
  %10 = getelementptr inbounds { [0 x i8]*, i64 }, { [0 x i8]*, i64 }* %buf, i32 0, i32 0
  %_8.0 = load [0 x i8]*, [0 x i8]** %10, align 8, !nonnull !3
  %11 = getelementptr inbounds { [0 x i8]*, i64 }, { [0 x i8]*, i64 }* %buf, i32 0, i32 1
  %_8.1 = load i64, i64* %11, align 8
  store i8 1, i8* %_32, align 1
; call <std::fs::File as std::io::Write>::write
  call void @"_ZN48_$LT$std..fs..File$u20$as$u20$std..io..Write$GT$5write17h03102cc4fd32491dE"(%"core::result::Result<usize, std::io::error::Error>"* noalias nocapture sret(%"core::result::Result<usize, std::io::error::Error>") dereferenceable(24) %_6, i32* align 4 dereferenceable(4) %self, [0 x i8]* nonnull align 1 %_8.0, i64 %_8.1)
  br label %bb4

bb4:                                              ; preds = %bb3
  %12 = bitcast %"core::result::Result<usize, std::io::error::Error>"* %_6 to i64*
  %_9 = load i64, i64* %12, align 8, !range !2
  switch i64 %_9, label %bb6 [
    i64 0, label %bb5
    i64 1, label %bb11
  ]

bb6:                                              ; preds = %bb4
  unreachable

bb5:                                              ; preds = %bb4
  %13 = bitcast %"core::result::Result<usize, std::io::error::Error>"* %_6 to %"core::result::Result<usize, std::io::error::Error>::Ok"*
  %14 = getelementptr inbounds %"core::result::Result<usize, std::io::error::Error>::Ok", %"core::result::Result<usize, std::io::error::Error>::Ok"* %13, i32 0, i32 1
  %15 = load i64, i64* %14, align 8
  %16 = icmp eq i64 %15, 0
  br i1 %16, label %bb7, label %bb9

bb11:                                             ; preds = %bb4
  %17 = bitcast %"core::result::Result<usize, std::io::error::Error>"* %_6 to %"core::result::Result<usize, std::io::error::Error>::Err"*
  %18 = getelementptr inbounds %"core::result::Result<usize, std::io::error::Error>::Err", %"core::result::Result<usize, std::io::error::Error>::Err"* %17, i32 0, i32 1
  store %"std::io::error::Error"* %18, %"std::io::error::Error"** %e, align 8
  %_26 = load %"std::io::error::Error"*, %"std::io::error::Error"** %e, align 8, !nonnull !3
; invoke std::io::error::Error::kind
  %19 = invoke i8 @_ZN3std2io5error5Error4kind17h930fbdc40b54cc50E(%"std::io::error::Error"* align 8 dereferenceable(16) %_26)
          to label %bb12 unwind label %cleanup, !range !5

bb12:                                             ; preds = %bb11
  store i8 %19, i8* %_25, align 1
; invoke <std::io::error::ErrorKind as core::cmp::PartialEq>::eq
  %_23 = invoke zeroext i1 @"_ZN66_$LT$std..io..error..ErrorKind$u20$as$u20$core..cmp..PartialEq$GT$2eq17h3114da9cff7372f6E"(i8* align 1 dereferenceable(1) %_25, i8* align 1 dereferenceable(1) getelementptr inbounds (<{ [1 x i8] }>, <{ [1 x i8] }>* @alloc92, i32 0, i32 0, i32 0))
          to label %bb13 unwind label %cleanup

bb26:                                             ; preds = %cleanup
  %20 = bitcast %"core::result::Result<usize, std::io::error::Error>"* %_6 to i64*
  %_34 = load i64, i64* %20, align 8, !range !2
  %21 = icmp eq i64 %_34, 1
  br i1 %21, label %bb24, label %bb19

cleanup:                                          ; preds = %bb7, %bb9, %bb12, %bb11
  %22 = landingpad { i8*, i32 }
          cleanup
  %23 = extractvalue { i8*, i32 } %22, 0
  %24 = extractvalue { i8*, i32 } %22, 1
  %25 = getelementptr inbounds { i8*, i32 }, { i8*, i32 }* %3, i32 0, i32 0
  store i8* %23, i8** %25, align 8
  %26 = getelementptr inbounds { i8*, i32 }, { i8*, i32 }* %3, i32 0, i32 1
  store i32 %24, i32* %26, align 8
  br label %bb26

bb13:                                             ; preds = %bb12
  br i1 %_23, label %bb14, label %bb15

bb15:                                             ; preds = %bb13
  store i8 0, i8* %_32, align 1
  %27 = bitcast %"core::result::Result<usize, std::io::error::Error>"* %_6 to %"core::result::Result<usize, std::io::error::Error>::Err"*
  %28 = getelementptr inbounds %"core::result::Result<usize, std::io::error::Error>::Err", %"core::result::Result<usize, std::io::error::Error>::Err"* %27, i32 0, i32 1
  %29 = bitcast %"std::io::error::Error"* %e1 to i8*
  %30 = bitcast %"std::io::error::Error"* %28 to i8*
  call void @llvm.memcpy.p0i8.p0i8.i64(i8* align 8 %29, i8* align 8 %30, i64 16, i1 false)
  %31 = bitcast %"std::io::error::Error"* %_29 to i8*
  %32 = bitcast %"std::io::error::Error"* %e1 to i8*
  call void @llvm.memcpy.p0i8.p0i8.i64(i8* align 8 %31, i8* align 8 %32, i64 16, i1 false)
  %33 = bitcast %"core::result::Result<(), std::io::error::Error>"* %4 to %"core::result::Result<(), std::io::error::Error>::Err"*
  %34 = bitcast %"core::result::Result<(), std::io::error::Error>::Err"* %33 to %"std::io::error::Error"*
  %35 = bitcast %"std::io::error::Error"* %34 to i8*
  %36 = bitcast %"std::io::error::Error"* %_29 to i8*
  call void @llvm.memcpy.p0i8.p0i8.i64(i8* align 8 %35, i8* align 8 %36, i64 16, i1 false)
  br label %bb17

bb14:                                             ; preds = %bb13
  br label %bb23

bb23:                                             ; preds = %bb10, %bb14
  %37 = bitcast %"core::result::Result<usize, std::io::error::Error>"* %_6 to i64*
  %_33 = load i64, i64* %37, align 8, !range !2
  %38 = icmp eq i64 %_33, 1
  br i1 %38, label %bb21, label %bb20

bb17:                                             ; preds = %bb8, %bb15
  store i8 0, i8* %_32, align 1
  br label %bb18

bb7:                                              ; preds = %bb5
  store i8 23, i8* %_11, align 1
  %39 = load i8, i8* %_11, align 1, !range !5
; invoke std::io::error::Error::new_const
  %40 = invoke i128 @_ZN3std2io5error5Error9new_const17ha2efdad0995b6808E(i8 %39, { [0 x i8]*, i64 }* align 8 dereferenceable(16) bitcast (<{ i8*, [8 x i8] }>* @alloc90 to { [0 x i8]*, i64 }*))
          to label %bb8 unwind label %cleanup

bb9:                                              ; preds = %bb5
  %41 = bitcast %"core::result::Result<usize, std::io::error::Error>"* %_6 to %"core::result::Result<usize, std::io::error::Error>::Ok"*
  %42 = getelementptr inbounds %"core::result::Result<usize, std::io::error::Error>::Ok", %"core::result::Result<usize, std::io::error::Error>::Ok"* %41, i32 0, i32 1
  %n = load i64, i64* %42, align 8
  %43 = getelementptr inbounds { [0 x i8]*, i64 }, { [0 x i8]*, i64 }* %buf, i32 0, i32 0
  %_18.0 = load [0 x i8]*, [0 x i8]** %43, align 8, !nonnull !3
  %44 = getelementptr inbounds { [0 x i8]*, i64 }, { [0 x i8]*, i64 }* %buf, i32 0, i32 1
  %_18.1 = load i64, i64* %44, align 8
  store i64 %n, i64* %_19, align 8
  %45 = load i64, i64* %_19, align 8
; invoke core::slice::index::<impl core::ops::index::Index<I> for [T]>::index
  %46 = invoke { [0 x i8]*, i64 } @"_ZN4core5slice5index74_$LT$impl$u20$core..ops..index..Index$LT$I$GT$$u20$for$u20$$u5b$T$u5d$$GT$5index17h741bc83631f22e6cE"([0 x i8]* nonnull align 1 %_18.0, i64 %_18.1, i64 %45, %"core::panic::location::Location"* align 8 dereferenceable(24) bitcast (<{ i8*, [16 x i8] }>* @alloc486 to %"core::panic::location::Location"*))
          to label %bb10 unwind label %cleanup

bb10:                                             ; preds = %bb9
  %_17.0 = extractvalue { [0 x i8]*, i64 } %46, 0
  %_17.1 = extractvalue { [0 x i8]*, i64 } %46, 1
  %47 = getelementptr inbounds { [0 x i8]*, i64 }, { [0 x i8]*, i64 }* %buf, i32 0, i32 0
  store [0 x i8]* %_17.0, [0 x i8]** %47, align 8
  %48 = getelementptr inbounds { [0 x i8]*, i64 }, { [0 x i8]*, i64 }* %buf, i32 0, i32 1
  store i64 %_17.1, i64* %48, align 8
  br label %bb23

bb21:                                             ; preds = %bb23
  %49 = load i8, i8* %_32, align 1, !range !4
  %50 = trunc i8 %49 to i1
  br i1 %50, label %bb22, label %bb20

bb20:                                             ; preds = %bb22, %bb21, %bb23
  store i8 0, i8* %_32, align 1
  br label %bb1

bb22:                                             ; preds = %bb21
  %51 = bitcast %"core::result::Result<usize, std::io::error::Error>"* %_6 to %"core::result::Result<usize, std::io::error::Error>::Err"*
  %52 = getelementptr inbounds %"core::result::Result<usize, std::io::error::Error>::Err", %"core::result::Result<usize, std::io::error::Error>::Err"* %51, i32 0, i32 1
; call core::ptr::drop_in_place<std::io::error::Error>
  call void @"_ZN4core3ptr42drop_in_place$LT$std..io..error..Error$GT$17h211456880990b21cE"(%"std::io::error::Error"* %52)
  br label %bb20

bb8:                                              ; preds = %bb7
  store i128 %40, i128* %2, align 8
  %53 = bitcast %"std::io::error::Error"* %_10 to i8*
  %54 = bitcast i128* %2 to i8*
  call void @llvm.memcpy.p0i8.p0i8.i64(i8* align 8 %53, i8* align 8 %54, i64 16, i1 false)
  %55 = bitcast %"core::result::Result<(), std::io::error::Error>"* %4 to %"core::result::Result<(), std::io::error::Error>::Err"*
  %56 = bitcast %"core::result::Result<(), std::io::error::Error>::Err"* %55 to %"std::io::error::Error"*
  %57 = bitcast %"std::io::error::Error"* %56 to i8*
  %58 = bitcast %"std::io::error::Error"* %_10 to i8*
  call void @llvm.memcpy.p0i8.p0i8.i64(i8* align 8 %57, i8* align 8 %58, i64 16, i1 false)
  br label %bb17

bb24:                                             ; preds = %bb26
  %59 = load i8, i8* %_32, align 1, !range !4
  %60 = trunc i8 %59 to i1
  br i1 %60, label %bb25, label %bb19

bb19:                                             ; preds = %bb25, %bb24, %bb26
  %61 = bitcast { i8*, i32 }* %3 to i8**
  %62 = load i8*, i8** %61, align 8
  %63 = getelementptr inbounds { i8*, i32 }, { i8*, i32 }* %3, i32 0, i32 1
  %64 = load i32, i32* %63, align 8
  %65 = insertvalue { i8*, i32 } undef, i8* %62, 0
  %66 = insertvalue { i8*, i32 } %65, i32 %64, 1
  resume { i8*, i32 } %66

bb25:                                             ; preds = %bb24
  %67 = bitcast %"core::result::Result<usize, std::io::error::Error>"* %_6 to %"core::result::Result<usize, std::io::error::Error>::Err"*
  %68 = getelementptr inbounds %"core::result::Result<usize, std::io::error::Error>::Err", %"core::result::Result<usize, std::io::error::Error>::Err"* %67, i32 0, i32 1
; call core::ptr::drop_in_place<std::io::error::Error>
  call void @"_ZN4core3ptr42drop_in_place$LT$std..io..error..Error$GT$17h211456880990b21cE"(%"std::io::error::Error"* %68) #21
  br label %bb19

bb18:                                             ; preds = %bb16, %bb17
  %69 = bitcast %"core::result::Result<(), std::io::error::Error>"* %4 to i128*
  %70 = load i128, i128* %69, align 8
  ret i128 %70
}

; std::io::Write::write_fmt
; Function Attrs: nonlazybind uwtable
define i128 @_ZN3std2io5Write9write_fmt17hf9981e1ad317e608E(i32* align 4 dereferenceable(4) %self, %"core::fmt::Arguments"* noalias nocapture dereferenceable(48) %fmt) unnamed_addr #0 personality i32 (i32, i32, i64, %"unwind::libunwind::_Unwind_Exception"*, %"unwind::libunwind::_Unwind_Context"*)* @rust_eh_personality {
start:
  %0 = alloca i128, align 8
  %1 = alloca { i8*, i32 }, align 8
  %_19 = alloca i8, align 1
  %_15 = alloca i8, align 1
  %_14 = alloca %"std::io::error::Error", align 8
  %_10 = alloca %"core::fmt::Arguments", align 8
  %_6 = alloca i8, align 1
  %_5 = alloca %"core::result::Result<(), std::io::error::Error>", align 8
  %output = alloca %"std::io::Write::write_fmt::Adapter<std::fs::File>", align 8
  %2 = alloca %"core::result::Result<(), std::io::error::Error>", align 8
  store i8 0, i8* %_19, align 1
  %3 = bitcast %"core::result::Result<(), std::io::error::Error>"* %_5 to i8*
  store i8 4, i8* %3, align 8
  store i8 1, i8* %_19, align 1
  %4 = bitcast %"std::io::Write::write_fmt::Adapter<std::fs::File>"* %output to i32**
  store i32* %self, i32** %4, align 8
  %5 = getelementptr inbounds %"std::io::Write::write_fmt::Adapter<std::fs::File>", %"std::io::Write::write_fmt::Adapter<std::fs::File>"* %output, i32 0, i32 1
  %6 = bitcast %"core::result::Result<(), std::io::error::Error>"* %5 to i8*
  %7 = bitcast %"core::result::Result<(), std::io::error::Error>"* %_5 to i8*
  call void @llvm.memcpy.p0i8.p0i8.i64(i8* align 8 %6, i8* align 8 %7, i64 16, i1 false)
  %_7.0 = bitcast %"std::io::Write::write_fmt::Adapter<std::fs::File>"* %output to {}*
  %8 = bitcast %"core::fmt::Arguments"* %_10 to i8*
  %9 = bitcast %"core::fmt::Arguments"* %fmt to i8*
  call void @llvm.memcpy.p0i8.p0i8.i64(i8* align 8 %8, i8* align 8 %9, i64 48, i1 false)
; invoke core::fmt::write
  %10 = invoke zeroext i1 @_ZN4core3fmt5write17h182b3dab33fa727dE({}* nonnull align 1 %_7.0, [3 x i64]* align 8 dereferenceable(24) bitcast (<{ i8*, [16 x i8], i8*, i8*, i8*, [0 x i8] }>* @vtable.0 to [3 x i64]*), %"core::fmt::Arguments"* noalias nocapture dereferenceable(48) %_10)
          to label %bb1 unwind label %cleanup

bb1:                                              ; preds = %start
  %11 = zext i1 %10 to i8
  store i8 %11, i8* %_6, align 1
  %12 = load i8, i8* %_6, align 1, !range !4
  %13 = trunc i8 %12 to i1
  %_11 = zext i1 %13 to i64
  switch i64 %_11, label %bb3 [
    i64 0, label %bb4
    i64 1, label %bb2
  ]

bb10:                                             ; preds = %cleanup
; call core::ptr::drop_in_place<std::io::Write::write_fmt::Adapter<std::fs::File>>
  call void @"_ZN4core3ptr76drop_in_place$LT$std..io..Write..write_fmt..Adapter$LT$std..fs..File$GT$$GT$17hcdc823dc7b0aab2cE"(%"std::io::Write::write_fmt::Adapter<std::fs::File>"* %output) #21
  br label %bb11

cleanup:                                          ; preds = %bb7, %bb2, %start
  %14 = landingpad { i8*, i32 }
          cleanup
  %15 = extractvalue { i8*, i32 } %14, 0
  %16 = extractvalue { i8*, i32 } %14, 1
  %17 = getelementptr inbounds { i8*, i32 }, { i8*, i32 }* %1, i32 0, i32 0
  store i8* %15, i8** %17, align 8
  %18 = getelementptr inbounds { i8*, i32 }, { i8*, i32 }* %1, i32 0, i32 1
  store i32 %16, i32* %18, align 8
  br label %bb10

bb3:                                              ; preds = %bb1
  unreachable

bb4:                                              ; preds = %bb1
  %19 = bitcast %"core::result::Result<(), std::io::error::Error>"* %2 to i8*
  store i8 4, i8* %19, align 8
  br label %bb14

bb2:                                              ; preds = %bb1
  %_13 = getelementptr inbounds %"std::io::Write::write_fmt::Adapter<std::fs::File>", %"std::io::Write::write_fmt::Adapter<std::fs::File>"* %output, i32 0, i32 1
; invoke core::result::Result<T,E>::is_err
  %_12 = invoke zeroext i1 @"_ZN4core6result19Result$LT$T$C$E$GT$6is_err17hbf4242f5832da1c1E"(%"core::result::Result<(), std::io::error::Error>"* align 8 dereferenceable(16) %_13)
          to label %bb5 unwind label %cleanup

bb5:                                              ; preds = %bb2
  br i1 %_12, label %bb6, label %bb7

bb7:                                              ; preds = %bb5
  store i8 40, i8* %_15, align 1
  %20 = load i8, i8* %_15, align 1, !range !5
; invoke std::io::error::Error::new_const
  %21 = invoke i128 @_ZN3std2io5error5Error9new_const17ha2efdad0995b6808E(i8 %20, { [0 x i8]*, i64 }* align 8 dereferenceable(16) bitcast (<{ i8*, [8 x i8] }>* @alloc87 to { [0 x i8]*, i64 }*))
          to label %bb8 unwind label %cleanup

bb6:                                              ; preds = %bb5
  store i8 0, i8* %_19, align 1
  %22 = getelementptr inbounds %"std::io::Write::write_fmt::Adapter<std::fs::File>", %"std::io::Write::write_fmt::Adapter<std::fs::File>"* %output, i32 0, i32 1
  %23 = bitcast %"core::result::Result<(), std::io::error::Error>"* %2 to i8*
  %24 = bitcast %"core::result::Result<(), std::io::error::Error>"* %22 to i8*
  call void @llvm.memcpy.p0i8.p0i8.i64(i8* align 8 %23, i8* align 8 %24, i64 16, i1 false)
  br label %bb9

bb9:                                              ; preds = %bb8, %bb6
  br label %bb14

bb8:                                              ; preds = %bb7
  store i128 %21, i128* %0, align 8
  %25 = bitcast %"std::io::error::Error"* %_14 to i8*
  %26 = bitcast i128* %0 to i8*
  call void @llvm.memcpy.p0i8.p0i8.i64(i8* align 8 %25, i8* align 8 %26, i64 16, i1 false)
  %27 = bitcast %"core::result::Result<(), std::io::error::Error>"* %2 to %"core::result::Result<(), std::io::error::Error>::Err"*
  %28 = bitcast %"core::result::Result<(), std::io::error::Error>::Err"* %27 to %"std::io::error::Error"*
  %29 = bitcast %"std::io::error::Error"* %28 to i8*
  %30 = bitcast %"std::io::error::Error"* %_14 to i8*
  call void @llvm.memcpy.p0i8.p0i8.i64(i8* align 8 %29, i8* align 8 %30, i64 16, i1 false)
  br label %bb9

bb11:                                             ; preds = %bb10
  %31 = bitcast { i8*, i32 }* %1 to i8**
  %32 = load i8*, i8** %31, align 8
  %33 = getelementptr inbounds { i8*, i32 }, { i8*, i32 }* %1, i32 0, i32 1
  %34 = load i32, i32* %33, align 8
  %35 = insertvalue { i8*, i32 } undef, i8* %32, 0
  %36 = insertvalue { i8*, i32 } %35, i32 %34, 1
  resume { i8*, i32 } %36

bb14:                                             ; preds = %bb4, %bb9
  %37 = load i8, i8* %_19, align 1, !range !4
  %38 = trunc i8 %37 to i1
  br i1 %38, label %bb13, label %bb12

bb12:                                             ; preds = %bb13, %bb14
  store i8 0, i8* %_19, align 1
  %39 = bitcast %"core::result::Result<(), std::io::error::Error>"* %2 to i128*
  %40 = load i128, i128* %39, align 8
  ret i128 %40

bb13:                                             ; preds = %bb14
  %41 = getelementptr inbounds %"std::io::Write::write_fmt::Adapter<std::fs::File>", %"std::io::Write::write_fmt::Adapter<std::fs::File>"* %output, i32 0, i32 1
; call core::ptr::drop_in_place<core::result::Result<(),std::io::error::Error>>
  call void @"_ZN4core3ptr81drop_in_place$LT$core..result..Result$LT$$LP$$RP$$C$std..io..error..Error$GT$$GT$17h676bc739b61a0c43E"(%"core::result::Result<(), std::io::error::Error>"* %41)
  br label %bb12
}

; std::io::error::Error::kind
; Function Attrs: inlinehint nonlazybind uwtable
define internal i8 @_ZN3std2io5error5Error4kind17h930fbdc40b54cc50E(%"std::io::error::Error"* align 8 dereferenceable(16) %self) unnamed_addr #1 {
start:
  %0 = alloca i8, align 1
  %1 = bitcast %"std::io::error::Error"* %self to %"std::io::error::Repr"*
  %2 = bitcast %"std::io::error::Repr"* %1 to i8*
  %3 = load i8, i8* %2, align 8, !range !6
  %_2 = zext i8 %3 to i64
  switch i64 %_2, label %bb2 [
    i64 0, label %bb3
    i64 1, label %bb6
    i64 2, label %bb1
    i64 3, label %bb5
  ]

bb2:                                              ; preds = %start
  unreachable

bb3:                                              ; preds = %start
  %4 = bitcast %"std::io::error::Error"* %self to %"std::io::error::Repr"*
  %5 = bitcast %"std::io::error::Repr"* %4 to %"std::io::error::Repr::Os"*
  %6 = getelementptr inbounds %"std::io::error::Repr::Os", %"std::io::error::Repr::Os"* %5, i32 0, i32 1
  %code = load i32, i32* %6, align 4
; call std::sys::unix::decode_error_kind
  %7 = call i8 @_ZN3std3sys4unix17decode_error_kind17h0b4b195659215c25E(i32 %code), !range !5
  store i8 %7, i8* %0, align 1
  br label %bb4

bb6:                                              ; preds = %start
  %8 = bitcast %"std::io::error::Error"* %self to %"std::io::error::Repr"*
  %9 = bitcast %"std::io::error::Repr"* %8 to %"std::io::error::Repr::Simple"*
  %10 = getelementptr inbounds %"std::io::error::Repr::Simple", %"std::io::error::Repr::Simple"* %9, i32 0, i32 1
  %kind1 = load i8, i8* %10, align 1, !range !5
  store i8 %kind1, i8* %0, align 1
  br label %bb7

bb1:                                              ; preds = %start
  %11 = bitcast %"std::io::error::Error"* %self to %"std::io::error::Repr"*
  %12 = bitcast %"std::io::error::Repr"* %11 to %"std::io::error::Repr::SimpleMessage"*
  %13 = getelementptr inbounds %"std::io::error::Repr::SimpleMessage", %"std::io::error::Repr::SimpleMessage"* %12, i32 0, i32 1
  %kind = load i8, i8* %13, align 1, !range !5
  store i8 %kind, i8* %0, align 1
  br label %bb7

bb5:                                              ; preds = %start
  %14 = bitcast %"std::io::error::Error"* %self to %"std::io::error::Repr"*
  %15 = bitcast %"std::io::error::Repr"* %14 to %"std::io::error::Repr::Custom"*
  %c = getelementptr inbounds %"std::io::error::Repr::Custom", %"std::io::error::Repr::Custom"* %15, i32 0, i32 1
  %16 = load %"std::io::error::Custom"*, %"std::io::error::Custom"** %c, align 8, !nonnull !3
  %17 = getelementptr inbounds %"std::io::error::Custom", %"std::io::error::Custom"* %16, i32 0, i32 1
  %18 = load i8, i8* %17, align 8, !range !5
  store i8 %18, i8* %0, align 1
  br label %bb7

bb7:                                              ; preds = %bb4, %bb6, %bb1, %bb5
  %19 = load i8, i8* %0, align 1, !range !5
  ret i8 %19

bb4:                                              ; preds = %bb3
  br label %bb7
}

; std::io::error::Error::new_const
; Function Attrs: inlinehint nonlazybind uwtable
define internal i128 @_ZN3std2io5error5Error9new_const17ha2efdad0995b6808E(i8 %kind, { [0 x i8]*, i64 }* align 8 dereferenceable(16) %message) unnamed_addr #1 {
start:
  %_3 = alloca %"std::io::error::Repr", align 8
  %0 = alloca %"std::io::error::Error", align 8
  %1 = bitcast %"std::io::error::Repr"* %_3 to %"std::io::error::Repr::SimpleMessage"*
  %2 = getelementptr inbounds %"std::io::error::Repr::SimpleMessage", %"std::io::error::Repr::SimpleMessage"* %1, i32 0, i32 1
  store i8 %kind, i8* %2, align 1
  %3 = bitcast %"std::io::error::Repr"* %_3 to %"std::io::error::Repr::SimpleMessage"*
  %4 = getelementptr inbounds %"std::io::error::Repr::SimpleMessage", %"std::io::error::Repr::SimpleMessage"* %3, i32 0, i32 3
  store { [0 x i8]*, i64 }* %message, { [0 x i8]*, i64 }** %4, align 8
  %5 = bitcast %"std::io::error::Repr"* %_3 to i8*
  store i8 2, i8* %5, align 8
  %6 = bitcast %"std::io::error::Error"* %0 to %"std::io::error::Repr"*
  %7 = bitcast %"std::io::error::Repr"* %6 to i8*
  %8 = bitcast %"std::io::error::Repr"* %_3 to i8*
  call void @llvm.memcpy.p0i8.p0i8.i64(i8* align 8 %7, i8* align 8 %8, i64 16, i1 false)
  %9 = bitcast %"std::io::error::Error"* %0 to i128*
  %10 = load i128, i128* %9, align 8
  ret i128 %10
}

; std::ffi::os_str::OsStr::from_inner
; Function Attrs: inlinehint nonlazybind uwtable
define internal { %"std::ffi::os_str::OsStr"*, i64 } @_ZN3std3ffi6os_str5OsStr10from_inner17hbc722e7632463b43E(%"std::sys::unix::os_str::Slice"* nonnull align 1 %inner.0, i64 %inner.1) unnamed_addr #1 {
start:
  %_2.0 = bitcast %"std::sys::unix::os_str::Slice"* %inner.0 to %"std::ffi::os_str::OsStr"*
  %0 = insertvalue { %"std::ffi::os_str::OsStr"*, i64 } undef, %"std::ffi::os_str::OsStr"* %_2.0, 0
  %1 = insertvalue { %"std::ffi::os_str::OsStr"*, i64 } %0, i64 %inner.1, 1
  ret { %"std::ffi::os_str::OsStr"*, i64 } %1
}

; std::ffi::os_str::<impl core::convert::AsRef<std::ffi::os_str::OsStr> for str>::as_ref
; Function Attrs: inlinehint nonlazybind uwtable
define internal { %"std::ffi::os_str::OsStr"*, i64 } @"_ZN3std3ffi6os_str85_$LT$impl$u20$core..convert..AsRef$LT$std..ffi..os_str..OsStr$GT$$u20$for$u20$str$GT$6as_ref17h17c35b61c8d6c8c4E"([0 x i8]* nonnull align 1 %self.0, i64 %self.1) unnamed_addr #1 {
start:
; call std::sys::unix::os_str::Slice::from_str
  %0 = call { %"std::sys::unix::os_str::Slice"*, i64 } @_ZN3std3sys4unix6os_str5Slice8from_str17h2d3e4903422b0c20E([0 x i8]* nonnull align 1 %self.0, i64 %self.1)
  %_3.0 = extractvalue { %"std::sys::unix::os_str::Slice"*, i64 } %0, 0
  %_3.1 = extractvalue { %"std::sys::unix::os_str::Slice"*, i64 } %0, 1
  br label %bb1

bb1:                                              ; preds = %start
; call std::ffi::os_str::OsStr::from_inner
  %1 = call { %"std::ffi::os_str::OsStr"*, i64 } @_ZN3std3ffi6os_str5OsStr10from_inner17hbc722e7632463b43E(%"std::sys::unix::os_str::Slice"* nonnull align 1 %_3.0, i64 %_3.1)
  %2 = extractvalue { %"std::ffi::os_str::OsStr"*, i64 } %1, 0
  %3 = extractvalue { %"std::ffi::os_str::OsStr"*, i64 } %1, 1
  br label %bb2

bb2:                                              ; preds = %bb1
  %4 = insertvalue { %"std::ffi::os_str::OsStr"*, i64 } undef, %"std::ffi::os_str::OsStr"* %2, 0
  %5 = insertvalue { %"std::ffi::os_str::OsStr"*, i64 } %4, i64 %3, 1
  ret { %"std::ffi::os_str::OsStr"*, i64 } %5
}

; std::sys::unix::mutex::raw
; Function Attrs: inlinehint nonlazybind uwtable
define internal %"libc::unix::linux_like::linux::pthread_mutex_t"* @_ZN3std3sys4unix5mutex3raw17hff7d63e15ace40e3E(%"std::sys::unix::mutex::Mutex"* align 8 dereferenceable(40) %m) unnamed_addr #1 {
start:
  %_2 = bitcast %"std::sys::unix::mutex::Mutex"* %m to %"core::cell::UnsafeCell<libc::unix::linux_like::linux::pthread_mutex_t>"*
  %_2.i = bitcast %"core::cell::UnsafeCell<libc::unix::linux_like::linux::pthread_mutex_t>"* %_2 to %"libc::unix::linux_like::linux::pthread_mutex_t"*
  br label %bb1

bb1:                                              ; preds = %start
  ret %"libc::unix::linux_like::linux::pthread_mutex_t"* %_2.i
}

; std::sys::unix::mutex::Mutex::lock
; Function Attrs: inlinehint nonlazybind uwtable
define internal void @_ZN3std3sys4unix5mutex5Mutex4lock17h81f51b77ca07a081E(%"std::sys::unix::mutex::Mutex"* align 8 dereferenceable(40) %self) unnamed_addr #1 {
start:
  %_4 = bitcast %"std::sys::unix::mutex::Mutex"* %self to %"core::cell::UnsafeCell<libc::unix::linux_like::linux::pthread_mutex_t>"*
  %_2.i = bitcast %"core::cell::UnsafeCell<libc::unix::linux_like::linux::pthread_mutex_t>"* %_4 to %"libc::unix::linux_like::linux::pthread_mutex_t"*
  br label %bb1

bb1:                                              ; preds = %start
  %r = call i32 @pthread_mutex_lock(%"libc::unix::linux_like::linux::pthread_mutex_t"* %_2.i)
  br label %bb2

bb2:                                              ; preds = %bb1
  ret void
}

; std::sys::unix::mutex::Mutex::unlock
; Function Attrs: inlinehint nonlazybind uwtable
define internal void @_ZN3std3sys4unix5mutex5Mutex6unlock17ha7f3529944b56876E(%"std::sys::unix::mutex::Mutex"* align 8 dereferenceable(40) %self) unnamed_addr #1 {
start:
  %_4 = bitcast %"std::sys::unix::mutex::Mutex"* %self to %"core::cell::UnsafeCell<libc::unix::linux_like::linux::pthread_mutex_t>"*
  %_2.i = bitcast %"core::cell::UnsafeCell<libc::unix::linux_like::linux::pthread_mutex_t>"* %_4 to %"libc::unix::linux_like::linux::pthread_mutex_t"*
  br label %bb1

bb1:                                              ; preds = %start
  %r = call i32 @pthread_mutex_unlock(%"libc::unix::linux_like::linux::pthread_mutex_t"* %_2.i)
  br label %bb2

bb2:                                              ; preds = %bb1
  ret void
}

; std::sys::unix::os_str::Slice::from_u8_slice
; Function Attrs: inlinehint nonlazybind uwtable
define internal { %"std::sys::unix::os_str::Slice"*, i64 } @_ZN3std3sys4unix6os_str5Slice13from_u8_slice17h4a9e29c182b42ffcE([0 x i8]* nonnull align 1 %s.0, i64 %s.1) unnamed_addr #1 {
start:
  %0 = alloca { %"std::sys::unix::os_str::Slice"*, i64 }, align 8
  %1 = bitcast { %"std::sys::unix::os_str::Slice"*, i64 }* %0 to { [0 x i8]*, i64 }*
  %2 = getelementptr inbounds { [0 x i8]*, i64 }, { [0 x i8]*, i64 }* %1, i32 0, i32 0
  store [0 x i8]* %s.0, [0 x i8]** %2, align 8
  %3 = getelementptr inbounds { [0 x i8]*, i64 }, { [0 x i8]*, i64 }* %1, i32 0, i32 1
  store i64 %s.1, i64* %3, align 8
  %4 = getelementptr inbounds { %"std::sys::unix::os_str::Slice"*, i64 }, { %"std::sys::unix::os_str::Slice"*, i64 }* %0, i32 0, i32 0
  %5 = load %"std::sys::unix::os_str::Slice"*, %"std::sys::unix::os_str::Slice"** %4, align 8, !nonnull !3
  %6 = getelementptr inbounds { %"std::sys::unix::os_str::Slice"*, i64 }, { %"std::sys::unix::os_str::Slice"*, i64 }* %0, i32 0, i32 1
  %7 = load i64, i64* %6, align 8
  br label %bb1

bb1:                                              ; preds = %start
  %8 = insertvalue { %"std::sys::unix::os_str::Slice"*, i64 } undef, %"std::sys::unix::os_str::Slice"* %5, 0
  %9 = insertvalue { %"std::sys::unix::os_str::Slice"*, i64 } %8, i64 %7, 1
  ret { %"std::sys::unix::os_str::Slice"*, i64 } %9
}

; std::sys::unix::os_str::Slice::from_str
; Function Attrs: inlinehint nonlazybind uwtable
define internal { %"std::sys::unix::os_str::Slice"*, i64 } @_ZN3std3sys4unix6os_str5Slice8from_str17h2d3e4903422b0c20E([0 x i8]* nonnull align 1 %s.0, i64 %s.1) unnamed_addr #1 {
start:
  %0 = alloca { [0 x i8]*, i64 }, align 8
  %1 = getelementptr inbounds { [0 x i8]*, i64 }, { [0 x i8]*, i64 }* %0, i32 0, i32 0
  store [0 x i8]* %s.0, [0 x i8]** %1, align 8
  %2 = getelementptr inbounds { [0 x i8]*, i64 }, { [0 x i8]*, i64 }* %0, i32 0, i32 1
  store i64 %s.1, i64* %2, align 8
  %3 = getelementptr inbounds { [0 x i8]*, i64 }, { [0 x i8]*, i64 }* %0, i32 0, i32 0
  %4 = load [0 x i8]*, [0 x i8]** %3, align 8, !nonnull !3
  %5 = getelementptr inbounds { [0 x i8]*, i64 }, { [0 x i8]*, i64 }* %0, i32 0, i32 1
  %6 = load i64, i64* %5, align 8
  %7 = insertvalue { [0 x i8]*, i64 } undef, [0 x i8]* %4, 0
  %8 = insertvalue { [0 x i8]*, i64 } %7, i64 %6, 1
  %_3.0 = extractvalue { [0 x i8]*, i64 } %8, 0
  %_3.1 = extractvalue { [0 x i8]*, i64 } %8, 1
  br label %bb1

bb1:                                              ; preds = %start
; call std::sys::unix::os_str::Slice::from_u8_slice
  %9 = call { %"std::sys::unix::os_str::Slice"*, i64 } @_ZN3std3sys4unix6os_str5Slice13from_u8_slice17h4a9e29c182b42ffcE([0 x i8]* nonnull align 1 %_3.0, i64 %_3.1)
  %10 = extractvalue { %"std::sys::unix::os_str::Slice"*, i64 } %9, 0
  %11 = extractvalue { %"std::sys::unix::os_str::Slice"*, i64 } %9, 1
  br label %bb2

bb2:                                              ; preds = %bb1
  %12 = insertvalue { %"std::sys::unix::os_str::Slice"*, i64 } undef, %"std::sys::unix::os_str::Slice"* %10, 0
  %13 = insertvalue { %"std::sys::unix::os_str::Slice"*, i64 } %12, i64 %11, 1
  ret { %"std::sys::unix::os_str::Slice"*, i64 } %13
}

; std::sys::unix::rwlock::RWLock::raw_unlock
; Function Attrs: inlinehint nonlazybind uwtable
define internal void @_ZN3std3sys4unix6rwlock6RWLock10raw_unlock17ha69cdd9d34dcbb58E(%"std::sys::unix::rwlock::RWLock"* align 8 dereferenceable(72) %self) unnamed_addr #1 {
start:
  %_4 = bitcast %"std::sys::unix::rwlock::RWLock"* %self to %"core::cell::UnsafeCell<libc::unix::linux_like::linux::pthread_rwlock_t>"*
  %_2.i = bitcast %"core::cell::UnsafeCell<libc::unix::linux_like::linux::pthread_rwlock_t>"* %_4 to %"libc::unix::linux_like::linux::pthread_rwlock_t"*
  br label %bb1

bb1:                                              ; preds = %start
  %r = call i32 @pthread_rwlock_unlock(%"libc::unix::linux_like::linux::pthread_rwlock_t"* %_2.i)
  br label %bb2

bb2:                                              ; preds = %bb1
  ret void
}

; std::sys::unix::rwlock::RWLock::read_unlock
; Function Attrs: inlinehint nonlazybind uwtable
define internal void @_ZN3std3sys4unix6rwlock6RWLock11read_unlock17hc43cd3d383eefa03E(%"std::sys::unix::rwlock::RWLock"* align 8 dereferenceable(72) %self) unnamed_addr #1 {
start:
  %_4 = alloca i8, align 1
  %_3 = getelementptr inbounds %"std::sys::unix::rwlock::RWLock", %"std::sys::unix::rwlock::RWLock"* %self, i32 0, i32 1
  store i8 0, i8* %_4, align 1
  %0 = load i8, i8* %_4, align 1, !range !7
; call core::sync::atomic::AtomicUsize::fetch_sub
  %_2 = call i64 @_ZN4core4sync6atomic11AtomicUsize9fetch_sub17h7dd0366ab65cada6E(%"core::sync::atomic::AtomicUsize"* align 8 dereferenceable(8) %_3, i64 1, i8 %0)
  br label %bb1

bb1:                                              ; preds = %start
; call std::sys::unix::rwlock::RWLock::raw_unlock
  call void @_ZN3std3sys4unix6rwlock6RWLock10raw_unlock17ha69cdd9d34dcbb58E(%"std::sys::unix::rwlock::RWLock"* align 8 dereferenceable(72) %self)
  br label %bb2

bb2:                                              ; preds = %bb1
  ret void
}

; std::sys::unix::rwlock::RWLock::write_unlock
; Function Attrs: inlinehint nonlazybind uwtable
define internal void @_ZN3std3sys4unix6rwlock6RWLock12write_unlock17hbc6d40648adb5949E(%"std::sys::unix::rwlock::RWLock"* align 8 dereferenceable(72) %self) unnamed_addr #1 {
start:
  %_6 = getelementptr inbounds %"std::sys::unix::rwlock::RWLock", %"std::sys::unix::rwlock::RWLock"* %self, i32 0, i32 2
  br label %bb1

bb1:                                              ; preds = %start
  store i8 0, i8* %_6, align 1
; call std::sys::unix::rwlock::RWLock::raw_unlock
  call void @_ZN3std3sys4unix6rwlock6RWLock10raw_unlock17ha69cdd9d34dcbb58E(%"std::sys::unix::rwlock::RWLock"* align 8 dereferenceable(72) %self)
  br label %bb2

bb2:                                              ; preds = %bb1
  ret void
}

; std::sys::unix::rwlock::RWLock::read
; Function Attrs: inlinehint nonlazybind uwtable
define internal void @_ZN3std3sys4unix6rwlock6RWLock4read17h63a7d60402fb5d61E(%"std::sys::unix::rwlock::RWLock"* align 8 dereferenceable(72) %self) unnamed_addr #1 {
start:
  %_23 = alloca i8, align 1
  %_10 = alloca i8, align 1
  %_7 = alloca i8, align 1
  %_4 = bitcast %"std::sys::unix::rwlock::RWLock"* %self to %"core::cell::UnsafeCell<libc::unix::linux_like::linux::pthread_rwlock_t>"*
  %_2.i = bitcast %"core::cell::UnsafeCell<libc::unix::linux_like::linux::pthread_rwlock_t>"* %_4 to %"libc::unix::linux_like::linux::pthread_rwlock_t"*
  br label %bb1

bb1:                                              ; preds = %start
  %r = call i32 @pthread_rwlock_rdlock(%"libc::unix::linux_like::linux::pthread_rwlock_t"* %_2.i)
  br label %bb2

bb2:                                              ; preds = %bb1
  %_5 = icmp eq i32 %r, 11
  br i1 %_5, label %bb3, label %bb4

bb4:                                              ; preds = %bb2
  %_8 = icmp eq i32 %r, 35
  br i1 %_8, label %bb5, label %bb6

bb3:                                              ; preds = %bb2
; call std::panicking::begin_panic
  call void @_ZN3std9panicking11begin_panic17ha42a2eee8544a2f2E([0 x i8]* nonnull align 1 bitcast (<{ [36 x i8] }>* @alloc492 to [0 x i8]*), i64 36, %"core::panic::location::Location"* align 8 dereferenceable(24) bitcast (<{ i8*, [16 x i8] }>* @alloc494 to %"core::panic::location::Location"*)) #20
  unreachable

bb6:                                              ; preds = %bb4
  %0 = icmp eq i32 %r, 0
  br i1 %0, label %bb9, label %bb8

bb5:                                              ; preds = %bb4
  store i8 1, i8* %_7, align 1
  br label %bb7

bb7:                                              ; preds = %bb10, %bb5
  %1 = load i8, i8* %_7, align 1, !range !4
  %2 = trunc i8 %1 to i1
  br i1 %2, label %bb12, label %bb17

bb9:                                              ; preds = %bb6
  %_14 = getelementptr inbounds %"std::sys::unix::rwlock::RWLock", %"std::sys::unix::rwlock::RWLock"* %self, i32 0, i32 2
  br label %bb11

bb8:                                              ; preds = %bb6
  store i8 0, i8* %_10, align 1
  br label %bb10

bb10:                                             ; preds = %bb11, %bb8
  %3 = load i8, i8* %_10, align 1, !range !4
  %4 = trunc i8 %3 to i1
  %5 = zext i1 %4 to i8
  store i8 %5, i8* %_7, align 1
  br label %bb7

bb11:                                             ; preds = %bb9
  %6 = load i8, i8* %_14, align 1, !range !4
  %_12 = trunc i8 %6 to i1
  %7 = zext i1 %_12 to i8
  store i8 %7, i8* %_10, align 1
  br label %bb10

bb17:                                             ; preds = %bb7
  %_22 = getelementptr inbounds %"std::sys::unix::rwlock::RWLock", %"std::sys::unix::rwlock::RWLock"* %self, i32 0, i32 1
  store i8 0, i8* %_23, align 1
  %8 = load i8, i8* %_23, align 1, !range !7
; call core::sync::atomic::AtomicUsize::fetch_add
  %_21 = call i64 @_ZN4core4sync6atomic11AtomicUsize9fetch_add17h1b161b556bcddfe8E(%"core::sync::atomic::AtomicUsize"* align 8 dereferenceable(8) %_22, i64 1, i8 %8)
  br label %bb18

bb12:                                             ; preds = %bb7
  %9 = icmp eq i32 %r, 0
  br i1 %9, label %bb13, label %bb15

bb13:                                             ; preds = %bb12
; call std::sys::unix::rwlock::RWLock::raw_unlock
  call void @_ZN3std3sys4unix6rwlock6RWLock10raw_unlock17ha69cdd9d34dcbb58E(%"std::sys::unix::rwlock::RWLock"* align 8 dereferenceable(72) %self)
  br label %bb14

bb15:                                             ; preds = %bb12
  br label %bb16

bb16:                                             ; preds = %bb14, %bb15
; call std::panicking::begin_panic
  call void @_ZN3std9panicking11begin_panic17ha42a2eee8544a2f2E([0 x i8]* nonnull align 1 bitcast (<{ [41 x i8] }>* @alloc495 to [0 x i8]*), i64 41, %"core::panic::location::Location"* align 8 dereferenceable(24) bitcast (<{ i8*, [16 x i8] }>* @alloc497 to %"core::panic::location::Location"*)) #20
  unreachable

bb14:                                             ; preds = %bb13
  br label %bb16

bb18:                                             ; preds = %bb17
  ret void
}

; std::sys::unix::rwlock::RWLock::write
; Function Attrs: inlinehint nonlazybind uwtable
define internal void @_ZN3std3sys4unix6rwlock6RWLock5write17h7a1357fdcc0fab8cE(%"std::sys::unix::rwlock::RWLock"* align 8 dereferenceable(72) %self) unnamed_addr #1 {
start:
  %_17 = alloca i8, align 1
  %_9 = alloca i8, align 1
  %_6 = alloca i8, align 1
  %_5 = alloca i8, align 1
  %_4 = bitcast %"std::sys::unix::rwlock::RWLock"* %self to %"core::cell::UnsafeCell<libc::unix::linux_like::linux::pthread_rwlock_t>"*
  %_2.i = bitcast %"core::cell::UnsafeCell<libc::unix::linux_like::linux::pthread_rwlock_t>"* %_4 to %"libc::unix::linux_like::linux::pthread_rwlock_t"*
  br label %bb1

bb1:                                              ; preds = %start
  %r = call i32 @pthread_rwlock_wrlock(%"libc::unix::linux_like::linux::pthread_rwlock_t"* %_2.i)
  br label %bb2

bb2:                                              ; preds = %bb1
  %_7 = icmp eq i32 %r, 35
  br i1 %_7, label %bb6, label %bb7

bb7:                                              ; preds = %bb2
  %0 = icmp eq i32 %r, 0
  br i1 %0, label %bb10, label %bb9

bb6:                                              ; preds = %bb2
  store i8 1, i8* %_6, align 1
  br label %bb8

bb8:                                              ; preds = %bb11, %bb6
  %1 = load i8, i8* %_6, align 1, !range !4
  %2 = trunc i8 %1 to i1
  br i1 %2, label %bb3, label %bb4

bb10:                                             ; preds = %bb7
  %_13 = getelementptr inbounds %"std::sys::unix::rwlock::RWLock", %"std::sys::unix::rwlock::RWLock"* %self, i32 0, i32 2
  br label %bb12

bb9:                                              ; preds = %bb7
  store i8 0, i8* %_9, align 1
  br label %bb11

bb11:                                             ; preds = %bb12, %bb9
  %3 = load i8, i8* %_9, align 1, !range !4
  %4 = trunc i8 %3 to i1
  %5 = zext i1 %4 to i8
  store i8 %5, i8* %_6, align 1
  br label %bb8

bb12:                                             ; preds = %bb10
  %6 = load i8, i8* %_13, align 1, !range !4
  %_11 = trunc i8 %6 to i1
  %7 = zext i1 %_11 to i8
  store i8 %7, i8* %_9, align 1
  br label %bb11

bb4:                                              ; preds = %bb8
  %_16 = getelementptr inbounds %"std::sys::unix::rwlock::RWLock", %"std::sys::unix::rwlock::RWLock"* %self, i32 0, i32 1
  store i8 0, i8* %_17, align 1
  %8 = load i8, i8* %_17, align 1, !range !7
; call core::sync::atomic::AtomicUsize::load
  %_15 = call i64 @_ZN4core4sync6atomic11AtomicUsize4load17hb942a0364fa6d354E(%"core::sync::atomic::AtomicUsize"* align 8 dereferenceable(8) %_16, i8 %8)
  br label %bb13

bb3:                                              ; preds = %bb8
  store i8 1, i8* %_5, align 1
  br label %bb5

bb5:                                              ; preds = %bb13, %bb3
  %9 = load i8, i8* %_5, align 1, !range !4
  %10 = trunc i8 %9 to i1
  br i1 %10, label %bb14, label %bb19

bb13:                                             ; preds = %bb4
  %_14 = icmp ne i64 %_15, 0
  %11 = zext i1 %_14 to i8
  store i8 %11, i8* %_5, align 1
  br label %bb5

bb19:                                             ; preds = %bb5
  %_25 = getelementptr inbounds %"std::sys::unix::rwlock::RWLock", %"std::sys::unix::rwlock::RWLock"* %self, i32 0, i32 2
  br label %bb20

bb14:                                             ; preds = %bb5
  %12 = icmp eq i32 %r, 0
  br i1 %12, label %bb15, label %bb17

bb15:                                             ; preds = %bb14
; call std::sys::unix::rwlock::RWLock::raw_unlock
  call void @_ZN3std3sys4unix6rwlock6RWLock10raw_unlock17ha69cdd9d34dcbb58E(%"std::sys::unix::rwlock::RWLock"* align 8 dereferenceable(72) %self)
  br label %bb16

bb17:                                             ; preds = %bb14
  br label %bb18

bb18:                                             ; preds = %bb16, %bb17
; call std::panicking::begin_panic
  call void @_ZN3std9panicking11begin_panic17ha42a2eee8544a2f2E([0 x i8]* nonnull align 1 bitcast (<{ [42 x i8] }>* @alloc498 to [0 x i8]*), i64 42, %"core::panic::location::Location"* align 8 dereferenceable(24) bitcast (<{ i8*, [16 x i8] }>* @alloc500 to %"core::panic::location::Location"*)) #20
  unreachable

bb16:                                             ; preds = %bb15
  br label %bb18

bb20:                                             ; preds = %bb19
  store i8 1, i8* %_25, align 1
  ret void
}

; std::sys::unix::condvar::Condvar::wait
; Function Attrs: inlinehint nonlazybind uwtable
define internal void @_ZN3std3sys4unix7condvar7Condvar4wait17h21570249c6b3c9bdE(%"std::sys::unix::condvar::Condvar"* align 8 dereferenceable(48) %self, %"std::sys::unix::mutex::Mutex"* align 8 dereferenceable(40) %mutex) unnamed_addr #1 {
start:
  %_5 = bitcast %"std::sys::unix::condvar::Condvar"* %self to %"core::cell::UnsafeCell<libc::unix::linux_like::linux::pthread_cond_t>"*
  %_2.i = bitcast %"core::cell::UnsafeCell<libc::unix::linux_like::linux::pthread_cond_t>"* %_5 to %"libc::unix::linux_like::linux::pthread_cond_t"*
  br label %bb1

bb1:                                              ; preds = %start
; call std::sys::unix::mutex::raw
  %_6 = call %"libc::unix::linux_like::linux::pthread_mutex_t"* @_ZN3std3sys4unix5mutex3raw17hff7d63e15ace40e3E(%"std::sys::unix::mutex::Mutex"* align 8 dereferenceable(40) %mutex)
  br label %bb2

bb2:                                              ; preds = %bb1
  %r = call i32 @pthread_cond_wait(%"libc::unix::linux_like::linux::pthread_cond_t"* %_2.i, %"libc::unix::linux_like::linux::pthread_mutex_t"* %_6)
  br label %bb3

bb3:                                              ; preds = %bb2
  ret void
}

; std::path::Path::new
; Function Attrs: nonlazybind uwtable
define { %"std::path::Path"*, i64 } @_ZN3std4path4Path3new17h7588003d88a2a081E([0 x i8]* nonnull align 1 %s.0, i64 %s.1) unnamed_addr #0 {
start:
; call std::ffi::os_str::<impl core::convert::AsRef<std::ffi::os_str::OsStr> for str>::as_ref
  %0 = call { %"std::ffi::os_str::OsStr"*, i64 } @"_ZN3std3ffi6os_str85_$LT$impl$u20$core..convert..AsRef$LT$std..ffi..os_str..OsStr$GT$$u20$for$u20$str$GT$6as_ref17h17c35b61c8d6c8c4E"([0 x i8]* nonnull align 1 %s.0, i64 %s.1)
  %_4.0 = extractvalue { %"std::ffi::os_str::OsStr"*, i64 } %0, 0
  %_4.1 = extractvalue { %"std::ffi::os_str::OsStr"*, i64 } %0, 1
  br label %bb1

bb1:                                              ; preds = %start
  %_2.0 = bitcast %"std::ffi::os_str::OsStr"* %_4.0 to %"std::path::Path"*
  %1 = insertvalue { %"std::path::Path"*, i64 } undef, %"std::path::Path"* %_2.0, 0
  %2 = insertvalue { %"std::path::Path"*, i64 } %1, i64 %_4.1, 1
  ret { %"std::path::Path"*, i64 } %2
}

; std::path::<impl core::convert::AsRef<std::path::Path> for str>::as_ref
; Function Attrs: inlinehint nonlazybind uwtable
define internal { %"std::path::Path"*, i64 } @"_ZN3std4path77_$LT$impl$u20$core..convert..AsRef$LT$std..path..Path$GT$$u20$for$u20$str$GT$6as_ref17he636b2d37ce78798E"([0 x i8]* nonnull align 1 %self.0, i64 %self.1) unnamed_addr #1 {
start:
; call std::path::Path::new
  %0 = call { %"std::path::Path"*, i64 } @_ZN3std4path4Path3new17h7588003d88a2a081E([0 x i8]* nonnull align 1 %self.0, i64 %self.1)
  %1 = extractvalue { %"std::path::Path"*, i64 } %0, 0
  %2 = extractvalue { %"std::path::Path"*, i64 } %0, 1
  br label %bb1

bb1:                                              ; preds = %start
  %3 = insertvalue { %"std::path::Path"*, i64 } undef, %"std::path::Path"* %1, 0
  %4 = insertvalue { %"std::path::Path"*, i64 } %3, i64 %2, 1
  ret { %"std::path::Path"*, i64 } %4
}

; std::sync::mutex::guard_lock
; Function Attrs: nonlazybind uwtable
define align 8 dereferenceable(8) i64** @_ZN3std4sync5mutex10guard_lock17h3ecb1d4ecdb2b6cfE({ i64*, i8 }* align 8 dereferenceable(16) %guard) unnamed_addr #0 {
start:
  %0 = bitcast { i64*, i8 }* %guard to %"std::sync::mutex::Mutex<i32>"**
  %1 = load %"std::sync::mutex::Mutex<i32>"*, %"std::sync::mutex::Mutex<i32>"** %0, align 8, !nonnull !3
  %2 = bitcast %"std::sync::mutex::Mutex<i32>"* %1 to i64**
  ret i64** %2
}

; std::sync::mutex::guard_lock
; Function Attrs: nonlazybind uwtable
define align 8 dereferenceable(8) i64** @_ZN3std4sync5mutex10guard_lock17h4021a8c0b8ce9662E({ i64*, i8 }* align 8 dereferenceable(16) %guard) unnamed_addr #0 {
start:
  %0 = bitcast { i64*, i8 }* %guard to %"std::sync::mutex::Mutex<()>"**
  %1 = load %"std::sync::mutex::Mutex<()>"*, %"std::sync::mutex::Mutex<()>"** %0, align 8, !nonnull !3
  %2 = bitcast %"std::sync::mutex::Mutex<()>"* %1 to i64**
  ret i64** %2
}

; std::sync::mutex::guard_poison
; Function Attrs: nonlazybind uwtable
define align 1 dereferenceable(1) %"std::sync::poison::Flag"* @_ZN3std4sync5mutex12guard_poison17ha0896f353e8dcd7eE({ i64*, i8 }* align 8 dereferenceable(16) %guard) unnamed_addr #0 {
start:
  %0 = bitcast { i64*, i8 }* %guard to %"std::sync::mutex::Mutex<()>"**
  %1 = load %"std::sync::mutex::Mutex<()>"*, %"std::sync::mutex::Mutex<()>"** %0, align 8, !nonnull !3
  %2 = getelementptr inbounds %"std::sync::mutex::Mutex<()>", %"std::sync::mutex::Mutex<()>"* %1, i32 0, i32 1
  ret %"std::sync::poison::Flag"* %2
}

; std::sync::mutex::guard_poison
