; ModuleID = 'probe_RSE.2652ab29-cgu.0'
source_filename = "probe_RSE.2652ab29-cgu.0"
target datalayout = "e-m:e-p270:32:32-p271:32:32-p272:64:64-i64:64-f80:128-n8:16:32:64-S128"
target triple = "x86_64-unknown-linux-gnu"

%"core::sync::atomic::AtomicUsize" = type { i64 }
%"[closure@alloc::str::join_generic_copy<str, u8, &str>::{closure#1}]" = type {}
%"[closure@alloc::str::join_generic_copy<str, u8, &str>::{closure#0}::{closure#0}]" = type {}
%"[closure@<core::ops::range::Range<usize> as core::slice::index::SliceIndex<[u8]>>::get_unchecked::{closure#0}]" = type { i64*, i64*, { [0 x i8]*, i64 }* }
%"[closure@<core::ops::range::Range<usize> as core::slice::index::SliceIndex<[core::mem::maybe_uninit::MaybeUninit<u8>]>>::get_unchecked_mut::{closure#0}]" = type { i64*, i64*, { [0 x i8]*, i64 }* }
%"[closure@<core::ops::range::Range<usize> as core::slice::index::SliceIndex<[u8]>>::get_unchecked_mut::{closure#0}]" = type { i64*, i64*, { [0 x i8]*, i64 }* }
%"core::panic::location::Location" = type { { [0 x i8]*, i64 }, i32, i32 }
%"alloc::vec::Vec<&str>" = type { { i64*, i64 }, i64 }
%"core::str::iter::Split<&str>" = type { %"core::str::iter::SplitInternal<&str>" }
%"core::str::iter::SplitInternal<&str>" = type { i64, i64, %"core::str::pattern::StrSearcher", i8, i8, [6 x i8] }
%"core::str::pattern::StrSearcher" = type { { [0 x i8]*, i64 }, { [0 x i8]*, i64 }, %"core::str::pattern::StrSearcherImpl" }
%"core::str::pattern::StrSearcherImpl" = type { i64, [8 x i64] }
%"alloc::vec::Vec<u8>" = type { { i8*, i64 }, i64 }
%"core::result::Result<core::ptr::non_null::NonNull<[u8]>, alloc::collections::TryReserveError>" = type { i64, [2 x i64] }
%"core::result::Result<core::ptr::non_null::NonNull<[u8]>, alloc::collections::TryReserveError>::Err" = type { [1 x i64], { i64, i64 } }
%"core::result::Result<core::ptr::non_null::NonNull<[u8]>, core::alloc::AllocError>::Err" = type { %"core::alloc::AllocError" }
%"core::alloc::AllocError" = type {}
%"std::thread::local::AccessError" = type {}
%"core::result::Result<core::alloc::layout::Layout, core::alloc::layout::LayoutError>::Err" = type { %"core::alloc::layout::LayoutError" }
%"core::alloc::layout::LayoutError" = type {}
%"std::sys_common::mutex::MovableMutex" = type { %"std::sys::unix::locks::futex::Mutex" }
%"std::sys::unix::locks::futex::Mutex" = type { %"core::sync::atomic::AtomicU32" }
%"core::sync::atomic::AtomicU32" = type { i32 }
%"std::sys::unix::locks::futex::Condvar" = type { %"core::sync::atomic::AtomicU32" }
%"std::sys_common::condvar::Condvar" = type { %"std::sys::unix::locks::futex::Condvar", %"std::sys_common::condvar::check::NoCheck" }
%"std::sys_common::condvar::check::NoCheck" = type {}
%"core::result::Result<std::fs::File, std::io::error::Error>" = type { i32, [3 x i32] }
%"std::fs::OpenOptions" = type { %"std::sys::unix::fs::OpenOptions" }
%"std::sys::unix::fs::OpenOptions" = type { i32, i32, i8, i8, i8, i8, i8, i8, [2 x i8] }
%"std::path::Path" = type { %"std::ffi::os_str::OsStr" }
%"std::ffi::os_str::OsStr" = type { %"std::sys::unix::os_str::Slice" }
%"std::sys::unix::os_str::Slice" = type { [0 x i8] }
%"core::result::Result<usize, std::io::error::Error>" = type { i64, [1 x i64] }
%"core::result::Result<usize, std::io::error::Error>::Ok" = type { [1 x i64], i64 }
%"core::result::Result<usize, std::io::error::Error>::Err" = type { [1 x i64], i8* }
%"std::io::error::SimpleMessage" = type { { [0 x i8]*, i64 }, i8, [7 x i8] }
%"core::fmt::Arguments" = type { { [0 x { [0 x i8]*, i64 }]*, i64 }, { i64*, i64 }, { [0 x { i8*, i64* }]*, i64 } }
%"std::io::error::ErrorData<&std::io::error::Custom>" = type { i8, [15 x i8] }
%"std::io::error::ErrorData<&std::io::error::Custom>::Os" = type { [1 x i32], i32 }
%"std::io::error::Custom" = type { { {}*, [3 x i64]* }, i8, [7 x i8] }
%"std::io::error::ErrorData<&std::io::error::Custom>::Custom" = type { [1 x i64], %"std::io::error::Custom"* }
%"std::io::error::ErrorData<&std::io::error::Custom>::SimpleMessage" = type { [1 x i64], %"std::io::error::SimpleMessage"* }
%"std::io::error::ErrorData<&std::io::error::Custom>::Simple" = type { [1 x i8], i8 }
%"std::io::error::ErrorData<alloc::boxed::Box<std::io::error::Custom>>" = type { i8, [15 x i8] }
%"std::io::error::ErrorData<alloc::boxed::Box<std::io::error::Custom>>::Os" = type { [1 x i32], i32 }
%"std::io::error::ErrorData<alloc::boxed::Box<std::io::error::Custom>>::Custom" = type { [1 x i64], %"std::io::error::Custom"* }
%"std::io::error::ErrorData<alloc::boxed::Box<std::io::error::Custom>>::SimpleMessage" = type { [1 x i64], %"std::io::error::SimpleMessage"* }
%"std::io::error::ErrorData<alloc::boxed::Box<std::io::error::Custom>>::Simple" = type { [1 x i8], i8 }
%"std::sync::mutex::Mutex<i32>" = type { %"std::sys_common::mutex::MovableMutex", %"std::sync::poison::Flag", [3 x i8], i32 }
%"std::sync::poison::Flag" = type { %"core::sync::atomic::AtomicBool" }
%"core::sync::atomic::AtomicBool" = type { i8 }
%"std::sync::mutex::Mutex<alloc::vec::Vec<alloc::vec::Vec<_ProbeNode>>>" = type { %"std::sys_common::mutex::MovableMutex", %"std::sync::poison::Flag", [3 x i8], %"core::cell::UnsafeCell<alloc::vec::Vec<alloc::vec::Vec<_ProbeNode>>>" }
%"core::cell::UnsafeCell<alloc::vec::Vec<alloc::vec::Vec<_ProbeNode>>>" = type { %"alloc::vec::Vec<alloc::vec::Vec<_ProbeNode>>" }
%"alloc::vec::Vec<alloc::vec::Vec<_ProbeNode>>" = type { { i64*, i64 }, i64 }
%"std::sync::mutex::Mutex<std::fs::File>" = type { %"std::sys_common::mutex::MovableMutex", %"std::sync::poison::Flag", [3 x i8], i32 }
%"core::result::Result<std::sync::mutex::MutexGuard<alloc::vec::Vec<alloc::vec::Vec<_ProbeNode>>>, std::sync::poison::PoisonError<std::sync::mutex::MutexGuard<alloc::vec::Vec<alloc::vec::Vec<_ProbeNode>>>>>" = type { i64, [2 x i64] }
%"core::result::Result<std::sync::mutex::MutexGuard<std::fs::File>, std::sync::poison::PoisonError<std::sync::mutex::MutexGuard<std::fs::File>>>" = type { i64, [2 x i64] }
%"core::result::Result<std::sync::mutex::MutexGuard<i32>, std::sync::poison::PoisonError<std::sync::mutex::MutexGuard<i32>>>" = type { i64, [2 x i64] }
%"core::result::Result<std::sync::mutex::MutexGuard<i32>, std::sync::poison::PoisonError<std::sync::mutex::MutexGuard<i32>>>::Err" = type { [1 x i64], { i32*, i8 } }
%"core::result::Result<std::sync::mutex::MutexGuard<i32>, std::sync::poison::PoisonError<std::sync::mutex::MutexGuard<i32>>>::Ok" = type { [1 x i64], { i32*, i8 } }
%"core::result::Result<std::sync::mutex::MutexGuard<alloc::vec::Vec<alloc::vec::Vec<_ProbeNode>>>, std::sync::poison::PoisonError<std::sync::mutex::MutexGuard<alloc::vec::Vec<alloc::vec::Vec<_ProbeNode>>>>>::Err" = type { [1 x i64], { i64*, i8 } }
%"core::result::Result<std::sync::mutex::MutexGuard<alloc::vec::Vec<alloc::vec::Vec<_ProbeNode>>>, std::sync::poison::PoisonError<std::sync::mutex::MutexGuard<alloc::vec::Vec<alloc::vec::Vec<_ProbeNode>>>>>::Ok" = type { [1 x i64], { i64*, i8 } }
%"core::result::Result<std::sync::mutex::MutexGuard<std::fs::File>, std::sync::poison::PoisonError<std::sync::mutex::MutexGuard<std::fs::File>>>::Err" = type { [1 x i64], { i32*, i8 } }
%"core::result::Result<std::sync::mutex::MutexGuard<std::fs::File>, std::sync::poison::PoisonError<std::sync::mutex::MutexGuard<std::fs::File>>>::Ok" = type { [1 x i64], { i32*, i8 } }
%"std::sync::condvar::Condvar" = type { %"std::sys_common::condvar::Condvar" }
%"[closure@./probe_RSE.rs:141:34: 144:18]" = type { i8**, %"core::cell::RefCell<alloc::string::String>"**, i32* }
%"core::cell::RefCell<alloc::string::String>" = type { i64, %"core::cell::UnsafeCell<alloc::string::String>" }
%"core::cell::UnsafeCell<alloc::string::String>" = type { %"alloc::string::String" }
%"alloc::string::String" = type { %"alloc::vec::Vec<u8>" }
%"[closure@./probe_RSE.rs:118:30: 121:14]" = type { i8**, %"core::cell::RefCell<alloc::string::String>"**, i32*, { [0 x i8]*, i64 }* }
%"[closure@./probe_RSE.rs:97:18: 103:10]" = type { i32*, i8**, i32*, { [0 x i8]*, i64 }*, i64** }
%"[closure@./probe_RSE.rs:116:18: 122:10]" = type { i32*, i8**, i32*, { [0 x i8]*, i64 }* }
%"[closure@./probe_RSE.rs:136:27: 145:14]" = type { %"core::cell::RefCell<alloc::string::String>"**, i8**, i32* }
%"[closure@./probe_RSE.rs:99:30: 102:14]" = type { i8**, %"core::cell::RefCell<alloc::string::String>"**, i32*, { [0 x i8]*, i64 }*, i64** }
%"[closure@./probe_RSE.rs:134:18: 146:10]" = type { i32*, i8**, i32* }
%"std::thread::local::fast::Key<core::cell::RefCell<usize>>" = type { %"std::thread::local::lazy::LazyKeyInner<core::cell::RefCell<usize>>", i8, [7 x i8] }
%"std::thread::local::lazy::LazyKeyInner<core::cell::RefCell<usize>>" = type { %"core::cell::UnsafeCell<core::option::Option<core::cell::RefCell<usize>>>" }
%"core::cell::UnsafeCell<core::option::Option<core::cell::RefCell<usize>>>" = type { %"core::option::Option<core::cell::RefCell<usize>>" }
%"core::option::Option<core::cell::RefCell<usize>>" = type { i64, [2 x i64] }
%"std::thread::local::fast::Key<core::cell::RefCell<alloc::string::String>>" = type { %"std::thread::local::lazy::LazyKeyInner<core::cell::RefCell<alloc::string::String>>", i8, [7 x i8] }
%"std::thread::local::lazy::LazyKeyInner<core::cell::RefCell<alloc::string::String>>" = type { %"core::cell::UnsafeCell<core::option::Option<core::cell::RefCell<alloc::string::String>>>" }
%"core::cell::UnsafeCell<core::option::Option<core::cell::RefCell<alloc::string::String>>>" = type { %"core::option::Option<core::cell::RefCell<alloc::string::String>>" }
%"core::option::Option<core::cell::RefCell<alloc::string::String>>" = type { i64, [4 x i64] }
%"std::thread::local::fast::Key<core::cell::RefCell<i32>>" = type { %"std::thread::local::lazy::LazyKeyInner<core::cell::RefCell<i32>>", i8, [7 x i8] }
%"std::thread::local::lazy::LazyKeyInner<core::cell::RefCell<i32>>" = type { %"core::cell::UnsafeCell<core::option::Option<core::cell::RefCell<i32>>>" }
%"core::cell::UnsafeCell<core::option::Option<core::cell::RefCell<i32>>>" = type { %"core::option::Option<core::cell::RefCell<i32>>" }
%"core::option::Option<core::cell::RefCell<i32>>" = type { i64, [2 x i64] }
%"core::option::Option<core::cell::RefCell<alloc::string::String>>::Some" = type { [1 x i64], %"core::cell::RefCell<alloc::string::String>" }
%"core::option::Option<core::cell::RefCell<i32>>::Some" = type { [1 x i64], { i64, i32 } }
%"core::option::Option<core::cell::RefCell<usize>>::Some" = type { [1 x i64], { i64, i64 } }
%"core::fmt::Formatter" = type { { i64, i64 }, { i64, i64 }, { {}*, [3 x i64]* }, i32, i32, i8, [7 x i8] }
%_ProbeNode = type { %"alloc::string::String", { [0 x i8]*, i64 }, { i64, i8* }, %"alloc::string::String", i32, [1 x i32] }
%"[closure@core::intrinsics::copy_nonoverlapping<u8>::{closure#0}]" = type { i8**, i8**, i64* }
%"[closure@core::intrinsics::copy_nonoverlapping<core::mem::maybe_uninit::MaybeUninit<u8>>::{closure#0}]" = type { i8**, i8**, i64* }
%"core::ffi::c_str::CStr" = type { [0 x i8] }
%"core::fmt::Opaque" = type {}
%"core::fmt::rt::v1::Argument" = type { i64, %"core::fmt::rt::v1::FormatSpec" }
%"core::fmt::rt::v1::FormatSpec" = type { { i64, i64 }, { i64, i64 }, i32, i32, i8, [7 x i8] }
%"alloc::sync::ArcInner<_ProbeSemaphore>" = type { %"core::sync::atomic::AtomicUsize", %"core::sync::atomic::AtomicUsize", %_ProbeSemaphore }
%_ProbeSemaphore = type { %"std::sync::mutex::Mutex<i32>", %"std::sync::condvar::Condvar" }
%"alloc::sync::ArcInner<std::sync::mutex::Mutex<alloc::vec::Vec<alloc::vec::Vec<_ProbeNode>>>>" = type { %"core::sync::atomic::AtomicUsize", %"core::sync::atomic::AtomicUsize", %"std::sync::mutex::Mutex<alloc::vec::Vec<alloc::vec::Vec<_ProbeNode>>>" }
%"alloc::sync::ArcInner<std::sync::mutex::Mutex<std::fs::File>>" = type { %"core::sync::atomic::AtomicUsize", %"core::sync::atomic::AtomicUsize", %"std::sync::mutex::Mutex<std::fs::File>", [1 x i32] }
%"core::panic::panic_info::PanicInfo" = type { { {}*, [3 x i64]* }, i64*, %"core::panic::location::Location"*, i8, [7 x i8] }
%"alloc::vec::Vec<_ProbeNode>" = type { { i64*, i64 }, i64 }
%"core::fmt::Error" = type {}
%"core::cell::BorrowError" = type {}
%"core::cell::BorrowMutError" = type {}
%"core::str::error::Utf8Error" = type { i64, { i8, i8 }, [6 x i8] }
%"core::mem::manually_drop::ManuallyDrop<core::option::Option<core::cell::RefCell<alloc::string::String>>>" = type { %"core::option::Option<core::cell::RefCell<alloc::string::String>>" }
%"core::mem::maybe_uninit::MaybeUninit<core::option::Option<core::cell::RefCell<alloc::string::String>>>" = type { [5 x i64] }
%"core::mem::manually_drop::ManuallyDrop<core::option::Option<core::cell::RefCell<usize>>>" = type { %"core::option::Option<core::cell::RefCell<usize>>" }
%"core::mem::maybe_uninit::MaybeUninit<core::option::Option<core::cell::RefCell<usize>>>" = type { [3 x i64] }
%"core::mem::manually_drop::ManuallyDrop<alloc::string::String>" = type { %"alloc::string::String" }
%"core::mem::maybe_uninit::MaybeUninit<alloc::string::String>" = type { [3 x i64] }
%"core::mem::manually_drop::ManuallyDrop<core::option::Option<core::cell::RefCell<i32>>>" = type { %"core::option::Option<core::cell::RefCell<i32>>" }
%"core::mem::maybe_uninit::MaybeUninit<core::option::Option<core::cell::RefCell<i32>>>" = type { [3 x i64] }
%"core::num::error::TryFromIntError" = type { {} }
%"core::option::Option<alloc::string::String>" = type { {}*, [2 x i64] }
%"core::option::Option<alloc::string::String>::Some" = type { %"alloc::string::String" }
%"core::result::Result<std::fs::File, std::io::error::Error>::Ok" = type { [1 x i32], i32 }
%"core::result::Result<std::fs::File, std::io::error::Error>::Err" = type { [1 x i64], i8* }
%"core::ptr::metadata::PtrRepr<[core::mem::maybe_uninit::MaybeUninit<u8>]>" = type { [2 x i64] }
%"core::ptr::metadata::PtrRepr<[_ProbeNode]>" = type { [2 x i64] }
%"core::ptr::metadata::PtrRepr<[u8]>" = type { [2 x i64] }
%"core::ptr::metadata::PtrRepr<[alloc::vec::Vec<_ProbeNode>]>" = type { [2 x i64] }
%"core::ptr::metadata::PtrComponents<u8>" = type { {}*, {} }
%"core::ptr::metadata::PtrRepr<u8>" = type { [1 x i64] }
%"core::ptr::metadata::PtrRepr<[&str]>" = type { [2 x i64] }
%"core::option::Option<(usize, usize)>" = type { i64, [2 x i64] }
%"core::option::Option<(usize, usize)>::Some" = type { [1 x i64], { i64, i64 } }
%"core::str::pattern::TwoWaySearcher" = type { i64, i64, i64, i64, i64, i64, i64, i64 }
%"core::str::pattern::SearchStep" = type { i64, [2 x i64] }
%"core::result::Result<&core::cell::RefCell<usize>, std::thread::local::AccessError>::Err" = type { %"std::thread::local::AccessError" }
%"core::result::Result<&core::cell::RefCell<i32>, std::thread::local::AccessError>::Err" = type { %"std::thread::local::AccessError" }
%"core::result::Result<core::ptr::non_null::NonNull<u8>, core::alloc::AllocError>::Err" = type { %"core::alloc::AllocError" }
%"core::result::Result<usize, alloc::collections::TryReserveErrorKind>" = type { i64, [2 x i64] }
%"core::result::Result<usize, alloc::collections::TryReserveErrorKind>::Err" = type { [1 x i64], { i64, i64 } }
%"core::result::Result<usize, alloc::collections::TryReserveErrorKind>::Ok" = type { [1 x i64], i64 }
%"core::result::Result<&core::cell::RefCell<alloc::string::String>, std::thread::local::AccessError>::Err" = type { %"std::thread::local::AccessError" }
%"core::result::Result<&str, core::str::error::Utf8Error>" = type { i64, [2 x i64] }
%"core::result::Result<&str, core::str::error::Utf8Error>::Ok" = type { [1 x i64], { [0 x i8]*, i64 } }
%"core::result::Result<&str, core::str::error::Utf8Error>::Err" = type { [1 x i64], %"core::str::error::Utf8Error" }
%"core::result::Result<(), alloc::collections::TryReserveErrorKind>::Ok" = type { {} }
%"core::result::Result<core::ptr::non_null::NonNull<[u8]>, alloc::collections::TryReserveError>::Ok" = type { [1 x i64], { i8*, i64 } }
%"core::result::Result<core::alloc::layout::Layout, alloc::collections::TryReserveErrorKind>" = type { i64, [2 x i64] }
%"core::result::Result<core::alloc::layout::Layout, alloc::collections::TryReserveErrorKind>::Ok" = type { [1 x i64], { i64, i64 } }
%"core::result::Result<core::alloc::layout::Layout, alloc::collections::TryReserveErrorKind>::Err" = type { [1 x i64], { i64, i64 } }
%"alloc::alloc::Global" = type {}
%"core::option::Option<(core::ptr::non_null::NonNull<u8>, core::alloc::layout::Layout)>" = type { [2 x i64], i64 }
%"core::ops::control_flow::ControlFlow<core::result::Result<core::convert::Infallible, alloc::collections::TryReserveErrorKind>, core::alloc::layout::Layout>" = type { i64, [2 x i64] }
%"core::ops::control_flow::ControlFlow<core::result::Result<core::convert::Infallible, alloc::collections::TryReserveErrorKind>, core::alloc::layout::Layout>::Continue" = type { [1 x i64], { i64, i64 } }
%"core::ops::control_flow::ControlFlow<core::result::Result<core::convert::Infallible, alloc::collections::TryReserveErrorKind>, core::alloc::layout::Layout>::Break" = type { [1 x i64], { i64, i64 } }
%"core::option::Option<(core::ptr::non_null::NonNull<u8>, core::alloc::layout::Layout)>::Some" = type { { i8*, { i64, i64 } } }
%"core::ops::control_flow::ControlFlow<core::result::Result<core::convert::Infallible, alloc::collections::TryReserveError>, core::ptr::non_null::NonNull<[u8]>>" = type { i64, [2 x i64] }
%"core::ops::control_flow::ControlFlow<core::result::Result<core::convert::Infallible, alloc::collections::TryReserveErrorKind>, usize>" = type { i64, [2 x i64] }
%"core::ops::control_flow::ControlFlow<core::result::Result<core::convert::Infallible, alloc::collections::TryReserveErrorKind>, usize>::Continue" = type { [1 x i64], i64 }
%"core::ops::control_flow::ControlFlow<core::result::Result<core::convert::Infallible, alloc::collections::TryReserveErrorKind>, usize>::Break" = type { [1 x i64], { i64, i64 } }
%"core::ops::control_flow::ControlFlow<core::result::Result<core::convert::Infallible, alloc::collections::TryReserveError>, core::ptr::non_null::NonNull<[u8]>>::Continue" = type { [1 x i64], { i8*, i64 } }
%"core::ops::control_flow::ControlFlow<core::result::Result<core::convert::Infallible, alloc::collections::TryReserveError>, core::ptr::non_null::NonNull<[u8]>>::Break" = type { [1 x i64], { i64, i64 } }
%"core::fmt::builders::DebugStruct" = type { %"core::fmt::Formatter"*, i8, i8, [6 x i8] }
%"core::result::Result<core::convert::Infallible, std::thread::local::AccessError>::Err" = type { %"std::thread::local::AccessError" }
%"core::ops::control_flow::ControlFlow<core::result::Result<core::convert::Infallible, std::thread::local::AccessError>, &core::cell::RefCell<alloc::string::String>>::Break" = type { %"core::result::Result<core::convert::Infallible, std::thread::local::AccessError>::Err" }
%"core::result::Result<core::convert::Infallible, core::alloc::AllocError>::Err" = type { %"core::alloc::AllocError" }
%"core::ops::control_flow::ControlFlow<core::result::Result<core::convert::Infallible, core::alloc::AllocError>, core::ptr::non_null::NonNull<[u8]>>::Break" = type { %"core::result::Result<core::convert::Infallible, core::alloc::AllocError>::Err" }
%"core::ops::control_flow::ControlFlow<core::result::Result<core::convert::Infallible, std::thread::local::AccessError>, &core::cell::RefCell<usize>>::Break" = type { %"core::result::Result<core::convert::Infallible, std::thread::local::AccessError>::Err" }
%"core::ops::control_flow::ControlFlow<core::result::Result<core::convert::Infallible, core::alloc::AllocError>, core::ptr::non_null::NonNull<u8>>::Break" = type { %"core::result::Result<core::convert::Infallible, core::alloc::AllocError>::Err" }
%"core::ops::control_flow::ControlFlow<core::result::Result<core::convert::Infallible, std::thread::local::AccessError>, &core::cell::RefCell<i32>>::Break" = type { %"core::result::Result<core::convert::Infallible, std::thread::local::AccessError>::Err" }
%"core::result::Result<core::convert::Infallible, core::alloc::layout::LayoutError>::Err" = type { %"core::alloc::layout::LayoutError" }
%"core::ops::control_flow::ControlFlow<core::result::Result<core::convert::Infallible, alloc::collections::TryReserveError>>::Continue" = type { {} }
%"core::str::pattern::StrSearcherImpl::TwoWay" = type { [1 x i64], %"core::str::pattern::TwoWaySearcher" }
%"core::str::pattern::SearchStep::Match" = type { [1 x i64], i64, i64 }
%"core::str::pattern::StrSearcherImpl::Empty" = type { [1 x i64], %"core::str::pattern::EmptyNeedle" }
%"core::str::pattern::EmptyNeedle" = type { i64, i64, i8, i8, i8, [5 x i8] }
%"core::str::pattern::SearchStep::Reject" = type { [1 x i64], i64, i64 }
%"unwind::libunwind::_Unwind_Exception" = type { i64, void (i32, %"unwind::libunwind::_Unwind_Exception"*)*, [6 x i64] }
%"unwind::libunwind::_Unwind_Context" = type { [0 x i8] }

@alloc353 = private unnamed_addr constant <{ [1 x i8] }> <{ [1 x i8] c"#" }>, align 1
@alloc648 = private unnamed_addr constant <{ [73 x i8] }> <{ [73 x i8] c"/rustc/43347397f7c5ca9a670a3bb3890c7187e24a52ab/library/std/src/io/mod.rs" }>, align 1
@alloc649 = private unnamed_addr constant <{ i8*, [16 x i8] }> <{ i8* getelementptr inbounds (<{ [73 x i8] }>, <{ [73 x i8] }>* @alloc648, i32 0, i32 0, i32 0), [16 x i8] c"I\00\00\00\00\00\00\00\03\06\00\00!\00\00\00" }>, align 8
@alloc348 = private unnamed_addr constant <{ [28 x i8] }> <{ [28 x i8] c"failed to write whole buffer" }>, align 1
@alloc351 = private unnamed_addr constant <{ i8*, [9 x i8], [7 x i8] }> <{ i8* getelementptr inbounds (<{ [28 x i8] }>, <{ [28 x i8] }>* @alloc348, i32 0, i32 0, i32 0), [9 x i8] c"\1C\00\00\00\00\00\00\00\17", [7 x i8] undef }>, align 8
@vtable.0 = private unnamed_addr constant <{ i8*, [16 x i8], i8*, i8*, i8* }> <{ i8* bitcast (void ({ i32*, i8* }*)* @"_ZN4core3ptr76drop_in_place$LT$std..io..Write..write_fmt..Adapter$LT$std..fs..File$GT$$GT$17h646dc496cf61cd3eE" to i8*), [16 x i8] c"\10\00\00\00\00\00\00\00\08\00\00\00\00\00\00\00", i8* bitcast (i1 ({ i32*, i8* }*, [0 x i8]*, i64)* @"_ZN80_$LT$std..io..Write..write_fmt..Adapter$LT$T$GT$$u20$as$u20$core..fmt..Write$GT$9write_str17h7ad4762307c07efbE" to i8*), i8* bitcast (i1 ({ i32*, i8* }*, i32)* @_ZN4core3fmt5Write10write_char17h71075877e8117c5bE to i8*), i8* bitcast (i1 ({ i32*, i8* }*, %"core::fmt::Arguments"*)* @_ZN4core3fmt5Write9write_fmt17h4af0c010c9cce504E to i8*) }>, align 8
@alloc341 = private unnamed_addr constant <{ [15 x i8] }> <{ [15 x i8] c"formatter error" }>, align 1
@alloc344 = private unnamed_addr constant <{ i8*, [9 x i8], [7 x i8] }> <{ i8* getelementptr inbounds (<{ [15 x i8] }>, <{ [15 x i8] }>* @alloc341, i32 0, i32 0, i32 0), [9 x i8] c"\0F\00\00\00\00\00\00\00(", [7 x i8] undef }>, align 8
@alloc658 = private unnamed_addr constant <{ [40 x i8] }> <{ [40 x i8] c"internal error: entered unreachable code" }>, align 1
@alloc656 = private unnamed_addr constant <{ [90 x i8] }> <{ [90 x i8] c"/rustc/43347397f7c5ca9a670a3bb3890c7187e24a52ab/library/std/src/io/error/repr_bitpacked.rs" }>, align 1
@alloc657 = private unnamed_addr constant <{ i8*, [16 x i8] }> <{ i8* getelementptr inbounds (<{ [90 x i8] }>, <{ [90 x i8] }>* @alloc656, i32 0, i32 0, i32 0), [16 x i8] c"Z\00\00\00\00\00\00\00\0F\01\00\00\0D\00\00\00" }>, align 8
@alloc672 = private unnamed_addr constant <{ [70 x i8] }> <{ [70 x i8] c"cannot access a Thread Local Storage value during or after destruction" }>, align 1
@alloc673 = private unnamed_addr constant <{ [79 x i8] }> <{ [79 x i8] c"/rustc/43347397f7c5ca9a670a3bb3890c7187e24a52ab/library/std/src/thread/local.rs" }>, align 1
@alloc661 = private unnamed_addr constant <{ i8*, [16 x i8] }> <{ i8* getelementptr inbounds (<{ [79 x i8] }>, <{ [79 x i8] }>* @alloc673, i32 0, i32 0, i32 0), [16 x i8] c"O\00\00\00\00\00\00\00\A5\01\00\00\1A\00\00\00" }>, align 8
@alloc674 = private unnamed_addr constant <{ i8*, [16 x i8] }> <{ i8* getelementptr inbounds (<{ [79 x i8] }>, <{ [79 x i8] }>* @alloc673, i32 0, i32 0, i32 0), [16 x i8] c"O\00\00\00\00\00\00\00\BC\01\00\00 \00\00\00" }>, align 8
@_ZN3std9panicking11panic_count18GLOBAL_PANIC_COUNT17hbdafec5367c29702E = external global %"core::sync::atomic::AtomicUsize"
@vtable.1 = private unnamed_addr constant <{ i8*, [16 x i8], i8*, i8*, i8* }> <{ i8* bitcast (void (%"alloc::string::String"*)* @"_ZN4core3ptr42drop_in_place$LT$alloc..string..String$GT$17h4e849759aad899b4E" to i8*), [16 x i8] c"\18\00\00\00\00\00\00\00\08\00\00\00\00\00\00\00", i8* bitcast (i1 (%"alloc::string::String"*, [0 x i8]*, i64)* @"_ZN58_$LT$alloc..string..String$u20$as$u20$core..fmt..Write$GT$9write_str17he5943151ef74dfafE" to i8*), i8* bitcast (i1 (%"alloc::string::String"*, i32)* @"_ZN58_$LT$alloc..string..String$u20$as$u20$core..fmt..Write$GT$10write_char17h5086c5c6294a93bbE" to i8*), i8* bitcast (i1 (%"alloc::string::String"*, %"core::fmt::Arguments"*)* @_ZN4core3fmt5Write9write_fmt17h593c63e97458c52aE to i8*) }>, align 8
@alloc680 = private unnamed_addr constant <{ [55 x i8] }> <{ [55 x i8] c"a Display implementation returned an error unexpectedly" }>, align 1
@alloc681 = private unnamed_addr constant <{ [75 x i8] }> <{ [75 x i8] c"/rustc/43347397f7c5ca9a670a3bb3890c7187e24a52ab/library/alloc/src/string.rs" }>, align 1
@alloc682 = private unnamed_addr constant <{ i8*, [16 x i8] }> <{ i8* getelementptr inbounds (<{ [75 x i8] }>, <{ [75 x i8] }>* @alloc681, i32 0, i32 0, i32 0), [16 x i8] c"K\00\00\00\00\00\00\00\BA\09\00\00\0E\00\00\00" }>, align 8
@vtable.2 = private unnamed_addr constant <{ i8*, [16 x i8], i8*, i8*, i8* }> <{ i8* bitcast (void ({ i32*, i8* }**)* @"_ZN4core3ptr88drop_in_place$LT$$RF$mut$u20$std..io..Write..write_fmt..Adapter$LT$std..fs..File$GT$$GT$17ha489f31b6c4efb0dE" to i8*), [16 x i8] c"\08\00\00\00\00\00\00\00\08\00\00\00\00\00\00\00", i8* bitcast (i1 ({ i32*, i8* }**, [0 x i8]*, i64)* @"_ZN50_$LT$$RF$mut$u20$W$u20$as$u20$core..fmt..Write$GT$9write_str17h5cd4a60194bdede9E" to i8*), i8* bitcast (i1 ({ i32*, i8* }**, i32)* @"_ZN50_$LT$$RF$mut$u20$W$u20$as$u20$core..fmt..Write$GT$10write_char17h2085213c73451cefE" to i8*), i8* bitcast (i1 ({ i32*, i8* }**, %"core::fmt::Arguments"*)* @"_ZN50_$LT$$RF$mut$u20$W$u20$as$u20$core..fmt..Write$GT$9write_fmt17he8b31c3c8c7f50d7E" to i8*) }>, align 8
@vtable.3 = private unnamed_addr constant <{ i8*, [16 x i8], i8*, i8*, i8* }> <{ i8* bitcast (void (%"alloc::string::String"**)* @"_ZN4core3ptr54drop_in_place$LT$$RF$mut$u20$alloc..string..String$GT$17h52547f9fdce9ab4aE" to i8*), [16 x i8] c"\08\00\00\00\00\00\00\00\08\00\00\00\00\00\00\00", i8* bitcast (i1 (%"alloc::string::String"**, [0 x i8]*, i64)* @"_ZN50_$LT$$RF$mut$u20$W$u20$as$u20$core..fmt..Write$GT$9write_str17h243dd22d0783e4daE" to i8*), i8* bitcast (i1 (%"alloc::string::String"**, i32)* @"_ZN50_$LT$$RF$mut$u20$W$u20$as$u20$core..fmt..Write$GT$10write_char17h19f5a9fc9da38a44E" to i8*), i8* bitcast (i1 (%"alloc::string::String"**, %"core::fmt::Arguments"*)* @"_ZN50_$LT$$RF$mut$u20$W$u20$as$u20$core..fmt..Write$GT$9write_fmt17h36a6cfe93b04b59dE" to i8*) }>, align 8
@alloc222 = private unnamed_addr constant <{}> zeroinitializer, align 8
@alloc183 = private unnamed_addr constant <{ [12 x i8] }> <{ [12 x i8] c"invalid args" }>, align 1
@alloc184 = private unnamed_addr constant <{ i8*, [8 x i8] }> <{ i8* getelementptr inbounds (<{ [12 x i8] }>, <{ [12 x i8] }>* @alloc183, i32 0, i32 0, i32 0), [8 x i8] c"\0C\00\00\00\00\00\00\00" }>, align 8
@alloc694 = private unnamed_addr constant <{ [75 x i8] }> <{ [75 x i8] c"/rustc/43347397f7c5ca9a670a3bb3890c7187e24a52ab/library/core/src/fmt/mod.rs" }>, align 1
@alloc695 = private unnamed_addr constant <{ i8*, [16 x i8] }> <{ i8* getelementptr inbounds (<{ [75 x i8] }>, <{ [75 x i8] }>* @alloc694, i32 0, i32 0, i32 0), [16 x i8] c"K\00\00\00\00\00\00\00\87\01\00\00\0D\00\00\00" }>, align 8
@alloc696 = private unnamed_addr constant <{ [75 x i8] }> <{ [75 x i8] c"/rustc/43347397f7c5ca9a670a3bb3890c7187e24a52ab/library/core/src/ptr/mod.rs" }>, align 1
@alloc697 = private unnamed_addr constant <{ i8*, [16 x i8] }> <{ i8* getelementptr inbounds (<{ [75 x i8] }>, <{ [75 x i8] }>* @alloc696, i32 0, i32 0, i32 0), [16 x i8] c"K\00\00\00\00\00\00\00\80\04\00\00\0D\00\00\00" }>, align 8
@alloc702 = private unnamed_addr constant <{ [83 x i8] }> <{ [83 x i8] c"/rustc/43347397f7c5ca9a670a3bb3890c7187e24a52ab/library/core/src/str/validations.rs" }>, align 1
@alloc699 = private unnamed_addr constant <{ i8*, [16 x i8] }> <{ i8* getelementptr inbounds (<{ [83 x i8] }>, <{ [83 x i8] }>* @alloc702, i32 0, i32 0, i32 0), [16 x i8] c"S\00\00\00\00\00\00\001\00\00\00$\00\00\00" }>, align 8
@alloc701 = private unnamed_addr constant <{ i8*, [16 x i8] }> <{ i8* getelementptr inbounds (<{ [83 x i8] }>, <{ [83 x i8] }>* @alloc702, i32 0, i32 0, i32 0), [16 x i8] c"S\00\00\00\00\00\00\008\00\00\00(\00\00\00" }>, align 8
@alloc703 = private unnamed_addr constant <{ i8*, [16 x i8] }> <{ i8* getelementptr inbounds (<{ [83 x i8] }>, <{ [83 x i8] }>* @alloc702, i32 0, i32 0, i32 0), [16 x i8] c"S\00\00\00\00\00\00\00@\00\00\00,\00\00\00" }>, align 8
@alloc803 = private unnamed_addr constant <{ [79 x i8] }> <{ [79 x i8] c"/rustc/43347397f7c5ca9a670a3bb3890c7187e24a52ab/library/core/src/str/pattern.rs" }>, align 1
@alloc705 = private unnamed_addr constant <{ i8*, [16 x i8] }> <{ i8* getelementptr inbounds (<{ [79 x i8] }>, <{ [79 x i8] }>* @alloc803, i32 0, i32 0, i32 0), [16 x i8] c"O\00\00\00\00\00\00\00\8C\05\00\00\14\00\00\00" }>, align 8
@alloc707 = private unnamed_addr constant <{ i8*, [16 x i8] }> <{ i8* getelementptr inbounds (<{ [79 x i8] }>, <{ [79 x i8] }>* @alloc803, i32 0, i32 0, i32 0), [16 x i8] c"O\00\00\00\00\00\00\00\8C\05\00\00!\00\00\00" }>, align 8
@alloc709 = private unnamed_addr constant <{ i8*, [16 x i8] }> <{ i8* getelementptr inbounds (<{ [79 x i8] }>, <{ [79 x i8] }>* @alloc803, i32 0, i32 0, i32 0), [16 x i8] c"O\00\00\00\00\00\00\00\98\05\00\00\14\00\00\00" }>, align 8
@alloc711 = private unnamed_addr constant <{ i8*, [16 x i8] }> <{ i8* getelementptr inbounds (<{ [79 x i8] }>, <{ [79 x i8] }>* @alloc803, i32 0, i32 0, i32 0), [16 x i8] c"O\00\00\00\00\00\00\00\98\05\00\00!\00\00\00" }>, align 8
@alloc714 = private unnamed_addr constant <{ [16 x i8] }> <{ [16 x i8] c"already borrowed" }>, align 1
@alloc716 = private unnamed_addr constant <{ [24 x i8] }> <{ [24 x i8] c"already mutably borrowed" }>, align 1
@alloc721 = private unnamed_addr constant <{ [80 x i8] }> <{ [80 x i8] c"/rustc/43347397f7c5ca9a670a3bb3890c7187e24a52ab/library/core/src/char/methods.rs" }>, align 1
@alloc718 = private unnamed_addr constant <{ i8*, [16 x i8] }> <{ i8* getelementptr inbounds (<{ [80 x i8] }>, <{ [80 x i8] }>* @alloc721, i32 0, i32 0, i32 0), [16 x i8] c"P\00\00\00\00\00\00\00\83\06\00\00\16\00\00\00" }>, align 8
@alloc720 = private unnamed_addr constant <{ i8*, [16 x i8] }> <{ i8* getelementptr inbounds (<{ [80 x i8] }>, <{ [80 x i8] }>* @alloc721, i32 0, i32 0, i32 0), [16 x i8] c"P\00\00\00\00\00\00\00\9D\06\00\00\0A\00\00\00" }>, align 8
@alloc355 = private unnamed_addr constant <{ [18 x i8] }> <{ [18 x i8] c"encode_utf8: need " }>, align 1
@alloc357 = private unnamed_addr constant <{ [19 x i8] }> <{ [19 x i8] c" bytes to encode U+" }>, align 1
@alloc358 = private unnamed_addr constant <{ [21 x i8] }> <{ [21 x i8] c", but the buffer has " }>, align 1
@alloc356 = private unnamed_addr constant <{ i8*, [8 x i8], i8*, [8 x i8], i8*, [8 x i8] }> <{ i8* getelementptr inbounds (<{ [18 x i8] }>, <{ [18 x i8] }>* @alloc355, i32 0, i32 0, i32 0), [8 x i8] c"\12\00\00\00\00\00\00\00", i8* getelementptr inbounds (<{ [19 x i8] }>, <{ [19 x i8] }>* @alloc357, i32 0, i32 0, i32 0), [8 x i8] c"\13\00\00\00\00\00\00\00", i8* getelementptr inbounds (<{ [21 x i8] }>, <{ [21 x i8] }>* @alloc358, i32 0, i32 0, i32 0), [8 x i8] c"\15\00\00\00\00\00\00\00" }>, align 8
@alloc722 = private unnamed_addr constant <{ i8*, [16 x i8] }> <{ i8* getelementptr inbounds (<{ [80 x i8] }>, <{ [80 x i8] }>* @alloc721, i32 0, i32 0, i32 0), [16 x i8] c"P\00\00\00\00\00\00\00\96\06\00\00\0E\00\00\00" }>, align 8
@alloc319 = private unnamed_addr constant <{ [49 x i8] }> <{ [49 x i8] c"there is no such thing as an acquire/release load" }>, align 1
@alloc320 = private unnamed_addr constant <{ i8*, [8 x i8] }> <{ i8* getelementptr inbounds (<{ [49 x i8] }>, <{ [49 x i8] }>* @alloc319, i32 0, i32 0, i32 0), [8 x i8] c"1\00\00\00\00\00\00\00" }>, align 8
@alloc737 = private unnamed_addr constant <{ [79 x i8] }> <{ [79 x i8] c"/rustc/43347397f7c5ca9a670a3bb3890c7187e24a52ab/library/core/src/sync/atomic.rs" }>, align 1
@alloc724 = private unnamed_addr constant <{ i8*, [16 x i8] }> <{ i8* getelementptr inbounds (<{ [79 x i8] }>, <{ [79 x i8] }>* @alloc737, i32 0, i32 0, i32 0), [16 x i8] c"O\00\00\00\00\00\00\00$\0A\00\00\17\00\00\00" }>, align 8
@alloc324 = private unnamed_addr constant <{ [40 x i8] }> <{ [40 x i8] c"there is no such thing as a release load" }>, align 1
@alloc325 = private unnamed_addr constant <{ i8*, [8 x i8] }> <{ i8* getelementptr inbounds (<{ [40 x i8] }>, <{ [40 x i8] }>* @alloc324, i32 0, i32 0, i32 0), [8 x i8] c"(\00\00\00\00\00\00\00" }>, align 8
@alloc726 = private unnamed_addr constant <{ i8*, [16 x i8] }> <{ i8* getelementptr inbounds (<{ [79 x i8] }>, <{ [79 x i8] }>* @alloc737, i32 0, i32 0, i32 0), [16 x i8] c"O\00\00\00\00\00\00\00#\0A\00\00\18\00\00\00" }>, align 8
@alloc329 = private unnamed_addr constant <{ [50 x i8] }> <{ [50 x i8] c"there is no such thing as an acquire/release store" }>, align 1
@alloc330 = private unnamed_addr constant <{ i8*, [8 x i8] }> <{ i8* getelementptr inbounds (<{ [50 x i8] }>, <{ [50 x i8] }>* @alloc329, i32 0, i32 0, i32 0), [8 x i8] c"2\00\00\00\00\00\00\00" }>, align 8
@alloc728 = private unnamed_addr constant <{ i8*, [16 x i8] }> <{ i8* getelementptr inbounds (<{ [79 x i8] }>, <{ [79 x i8] }>* @alloc737, i32 0, i32 0, i32 0), [16 x i8] c"O\00\00\00\00\00\00\00\16\0A\00\00\17\00\00\00" }>, align 8
@alloc334 = private unnamed_addr constant <{ [42 x i8] }> <{ [42 x i8] c"there is no such thing as an acquire store" }>, align 1
@alloc335 = private unnamed_addr constant <{ i8*, [8 x i8] }> <{ i8* getelementptr inbounds (<{ [42 x i8] }>, <{ [42 x i8] }>* @alloc334, i32 0, i32 0, i32 0), [8 x i8] c"*\00\00\00\00\00\00\00" }>, align 8
@alloc730 = private unnamed_addr constant <{ i8*, [16 x i8] }> <{ i8* getelementptr inbounds (<{ [79 x i8] }>, <{ [79 x i8] }>* @alloc737, i32 0, i32 0, i32 0), [16 x i8] c"O\00\00\00\00\00\00\00\15\0A\00\00\18\00\00\00" }>, align 8
@alloc292 = private unnamed_addr constant <{ [60 x i8] }> <{ [60 x i8] c"a failure ordering can't be stronger than a success ordering" }>, align 1
@alloc293 = private unnamed_addr constant <{ i8*, [8 x i8] }> <{ i8* getelementptr inbounds (<{ [60 x i8] }>, <{ [60 x i8] }>* @alloc292, i32 0, i32 0, i32 0), [8 x i8] c"<\00\00\00\00\00\00\00" }>, align 8
@alloc732 = private unnamed_addr constant <{ i8*, [16 x i8] }> <{ i8* getelementptr inbounds (<{ [79 x i8] }>, <{ [79 x i8] }>* @alloc737, i32 0, i32 0, i32 0), [16 x i8] c"O\00\00\00\00\00\00\00o\0A\00\00\12\00\00\00" }>, align 8
@alloc297 = private unnamed_addr constant <{ [61 x i8] }> <{ [61 x i8] c"there is no such thing as an acquire/release failure ordering" }>, align 1
@alloc298 = private unnamed_addr constant <{ i8*, [8 x i8] }> <{ i8* getelementptr inbounds (<{ [61 x i8] }>, <{ [61 x i8] }>* @alloc297, i32 0, i32 0, i32 0), [8 x i8] c"=\00\00\00\00\00\00\00" }>, align 8
@alloc734 = private unnamed_addr constant <{ i8*, [16 x i8] }> <{ i8* getelementptr inbounds (<{ [79 x i8] }>, <{ [79 x i8] }>* @alloc737, i32 0, i32 0, i32 0), [16 x i8] c"O\00\00\00\00\00\00\00m\0A\00\00\1C\00\00\00" }>, align 8
@alloc302 = private unnamed_addr constant <{ [52 x i8] }> <{ [52 x i8] c"there is no such thing as a release failure ordering" }>, align 1
@alloc303 = private unnamed_addr constant <{ i8*, [8 x i8] }> <{ i8* getelementptr inbounds (<{ [52 x i8] }>, <{ [52 x i8] }>* @alloc302, i32 0, i32 0, i32 0), [8 x i8] c"4\00\00\00\00\00\00\00" }>, align 8
@alloc736 = private unnamed_addr constant <{ i8*, [16 x i8] }> <{ i8* getelementptr inbounds (<{ [79 x i8] }>, <{ [79 x i8] }>* @alloc737, i32 0, i32 0, i32 0), [16 x i8] c"O\00\00\00\00\00\00\00n\0A\00\00\1D\00\00\00" }>, align 8
@alloc178 = private unnamed_addr constant <{ [41 x i8] }> <{ [41 x i8] c"there is no such thing as a relaxed fence" }>, align 1
@alloc179 = private unnamed_addr constant <{ i8*, [8 x i8] }> <{ i8* getelementptr inbounds (<{ [41 x i8] }>, <{ [41 x i8] }>* @alloc178, i32 0, i32 0, i32 0), [8 x i8] c")\00\00\00\00\00\00\00" }>, align 8
@alloc738 = private unnamed_addr constant <{ i8*, [16 x i8] }> <{ i8* getelementptr inbounds (<{ [79 x i8] }>, <{ [79 x i8] }>* @alloc737, i32 0, i32 0, i32 0), [16 x i8] c"O\00\00\00\00\00\00\00c\0B\00\00\18\00\00\00" }>, align 8
@alloc739 = private unnamed_addr constant <{ [80 x i8] }> <{ [80 x i8] c"/rustc/43347397f7c5ca9a670a3bb3890c7187e24a52ab/library/core/src/alloc/layout.rs" }>, align 1
@alloc740 = private unnamed_addr constant <{ i8*, [16 x i8] }> <{ i8* getelementptr inbounds (<{ [80 x i8] }>, <{ [80 x i8] }>* @alloc739, i32 0, i32 0, i32 0), [16 x i8] c"P\00\00\00\00\00\00\00\97\01\00\00\1A\00\00\00" }>, align 8
@alloc741 = private unnamed_addr constant <{ [35 x i8] }> <{ [35 x i8] c"assertion failed: mid <= self.len()" }>, align 1
@vtable.4 = private unnamed_addr constant <{ i8*, [16 x i8], i8* }> <{ i8* bitcast (void (i8**)* @"_ZN4core3ptr42drop_in_place$LT$std..io..error..Error$GT$17h40e63bf6e01db46fE" to i8*), [16 x i8] c"\08\00\00\00\00\00\00\00\08\00\00\00\00\00\00\00", i8* bitcast (i1 (i8**, %"core::fmt::Formatter"*)* @"_ZN58_$LT$std..io..error..Error$u20$as$u20$core..fmt..Debug$GT$3fmt17h0105867e837c5397E" to i8*) }>, align 8
@vtable.5 = private unnamed_addr constant <{ i8*, [16 x i8], i8* }> <{ i8* bitcast (void (%"core::cell::BorrowError"*)* @"_ZN4core3ptr44drop_in_place$LT$core..cell..BorrowError$GT$17hbdc327fc0c766312E" to i8*), [16 x i8] c"\00\00\00\00\00\00\00\00\01\00\00\00\00\00\00\00", i8* bitcast (i1 (%"core::cell::BorrowError"*, %"core::fmt::Formatter"*)* @"_ZN60_$LT$core..cell..BorrowError$u20$as$u20$core..fmt..Debug$GT$3fmt17h72cd10022f05d097E" to i8*) }>, align 8
@vtable.6 = private unnamed_addr constant <{ i8*, [16 x i8], i8* }> <{ i8* bitcast (void (%"std::thread::local::AccessError"*)* @"_ZN4core3ptr52drop_in_place$LT$std..thread..local..AccessError$GT$17h7e759a795d6355ecE" to i8*), [16 x i8] c"\00\00\00\00\00\00\00\00\01\00\00\00\00\00\00\00", i8* bitcast (i1 (%"std::thread::local::AccessError"*, %"core::fmt::Formatter"*)* @"_ZN68_$LT$std..thread..local..AccessError$u20$as$u20$core..fmt..Debug$GT$3fmt17h34b34bfb4b17421aE" to i8*) }>, align 8
@vtable.7 = private unnamed_addr constant <{ i8*, [16 x i8], i8* }> <{ i8* bitcast (void (%"core::cell::BorrowMutError"*)* @"_ZN4core3ptr47drop_in_place$LT$core..cell..BorrowMutError$GT$17h83972e3e95d77b74E" to i8*), [16 x i8] c"\00\00\00\00\00\00\00\00\01\00\00\00\00\00\00\00", i8* bitcast (i1 (%"core::cell::BorrowMutError"*, %"core::fmt::Formatter"*)* @"_ZN63_$LT$core..cell..BorrowMutError$u20$as$u20$core..fmt..Debug$GT$3fmt17hc351f090db32f140E" to i8*) }>, align 8
@vtable.8 = private unnamed_addr constant <{ i8*, [16 x i8], i8* }> <{ i8* bitcast (void (%"core::fmt::Error"*)* @"_ZN4core3ptr37drop_in_place$LT$core..fmt..Error$GT$17h73dc73bb78a6021dE" to i8*), [16 x i8] c"\00\00\00\00\00\00\00\00\01\00\00\00\00\00\00\00", i8* bitcast (i1 (%"core::fmt::Error"*, %"core::fmt::Formatter"*)* @"_ZN53_$LT$core..fmt..Error$u20$as$u20$core..fmt..Debug$GT$3fmt17h5047489994ec6febE" to i8*) }>, align 8
@alloc775 = private unnamed_addr constant <{ [43 x i8] }> <{ [43 x i8] c"called `Result::unwrap()` on an `Err` value" }>, align 1
@vtable.9 = private unnamed_addr constant <{ i8*, [16 x i8], i8* }> <{ i8* bitcast (void (%"core::num::error::TryFromIntError"*)* @"_ZN4core3ptr54drop_in_place$LT$core..num..error..TryFromIntError$GT$17h839a7c0c4efc941aE" to i8*), [16 x i8] c"\00\00\00\00\00\00\00\00\01\00\00\00\00\00\00\00", i8* bitcast (i1 (%"core::num::error::TryFromIntError"*, %"core::fmt::Formatter"*)* @"_ZN70_$LT$core..num..error..TryFromIntError$u20$as$u20$core..fmt..Debug$GT$3fmt17hdc6f451ac6548ca8E" to i8*) }>, align 8
@vtable.a = private unnamed_addr constant <{ i8*, [16 x i8], i8* }> <{ i8* bitcast (void (%"core::str::error::Utf8Error"*)* @"_ZN4core3ptr48drop_in_place$LT$core..str..error..Utf8Error$GT$17h086ad9ca9bd849e5E" to i8*), [16 x i8] c"\10\00\00\00\00\00\00\00\08\00\00\00\00\00\00\00", i8* bitcast (i1 (%"core::str::error::Utf8Error"*, %"core::fmt::Formatter"*)* @"_ZN64_$LT$core..str..error..Utf8Error$u20$as$u20$core..fmt..Debug$GT$3fmt17h095ae28033eaf4f9E" to i8*) }>, align 8
@vtable.b = private unnamed_addr constant <{ i8*, [16 x i8], i8* }> <{ i8* bitcast (void ({ i32*, i8 }*)* @"_ZN4core3ptr98drop_in_place$LT$std..sync..poison..PoisonError$LT$std..sync..mutex..MutexGuard$LT$i32$GT$$GT$$GT$17h3af6d6f6447e4e59E" to i8*), [16 x i8] c"\10\00\00\00\00\00\00\00\08\00\00\00\00\00\00\00", i8* bitcast (i1 ({ i32*, i8 }*, %"core::fmt::Formatter"*)* @"_ZN76_$LT$std..sync..poison..PoisonError$LT$T$GT$$u20$as$u20$core..fmt..Debug$GT$3fmt17hb60005733391d9f1E" to i8*) }>, align 8
@vtable.c = private unnamed_addr constant <{ i8*, [16 x i8], i8* }> <{ i8* bitcast (void ({ i64*, i8 }*)* @"_ZN4core3ptr162drop_in_place$LT$std..sync..poison..PoisonError$LT$std..sync..mutex..MutexGuard$LT$alloc..vec..Vec$LT$alloc..vec..Vec$LT$probe_RSE.._ProbeNode$GT$$GT$$GT$$GT$$GT$17hd16bc80bfb8b53e2E" to i8*), [16 x i8] c"\10\00\00\00\00\00\00\00\08\00\00\00\00\00\00\00", i8* bitcast (i1 ({ i64*, i8 }*, %"core::fmt::Formatter"*)* @"_ZN76_$LT$std..sync..poison..PoisonError$LT$T$GT$$u20$as$u20$core..fmt..Debug$GT$3fmt17hc1b125b91bcf889eE" to i8*) }>, align 8
@vtable.d = private unnamed_addr constant <{ i8*, [16 x i8], i8* }> <{ i8* bitcast (void ({ i32*, i8 }*)* @"_ZN4core3ptr108drop_in_place$LT$std..sync..poison..PoisonError$LT$std..sync..mutex..MutexGuard$LT$std..fs..File$GT$$GT$$GT$17h16682211493c70a8E" to i8*), [16 x i8] c"\10\00\00\00\00\00\00\00\08\00\00\00\00\00\00\00", i8* bitcast (i1 ({ i32*, i8 }*, %"core::fmt::Formatter"*)* @"_ZN76_$LT$std..sync..poison..PoisonError$LT$T$GT$$u20$as$u20$core..fmt..Debug$GT$3fmt17hbc7e5de43e347243E" to i8*) }>, align 8
@alloc779 = private unnamed_addr constant <{ [53 x i8] }> <{ [53 x i8] c"attempt to join into collection with len > usize::MAX" }>, align 1
@alloc782 = private unnamed_addr constant <{ [72 x i8] }> <{ [72 x i8] c"/rustc/43347397f7c5ca9a670a3bb3890c7187e24a52ab/library/alloc/src/str.rs" }>, align 1
@alloc781 = private unnamed_addr constant <{ i8*, [16 x i8] }> <{ i8* getelementptr inbounds (<{ [72 x i8] }>, <{ [72 x i8] }>* @alloc782, i32 0, i32 0, i32 0), [16 x i8] c"H\00\00\00\00\00\00\00\AB\00\00\00\0A\00\00\00" }>, align 8
@alloc783 = private unnamed_addr constant <{ i8*, [16 x i8] }> <{ i8* getelementptr inbounds (<{ [72 x i8] }>, <{ [72 x i8] }>* @alloc782, i32 0, i32 0, i32 0), [16 x i8] c"H\00\00\00\00\00\00\00\C2\00\00\00\16\00\00\00" }>, align 8
@0 = private unnamed_addr constant <{ [16 x i8] }> <{ [16 x i8] c"\08\00\00\00\00\00\00\00\00\00\00\00\00\00\00\00" }>, align 8
@1 = private unnamed_addr constant <{ [16 x i8] }> <{ [16 x i8] c"\01\00\00\00\00\00\00\00\00\00\00\00\00\00\00\00" }>, align 8
@alloc788 = private unnamed_addr constant <{ [74 x i8] }> <{ [74 x i8] c"/rustc/43347397f7c5ca9a670a3bb3890c7187e24a52ab/library/alloc/src/alloc.rs" }>, align 1
@alloc785 = private unnamed_addr constant <{ i8*, [16 x i8] }> <{ i8* getelementptr inbounds (<{ [74 x i8] }>, <{ [74 x i8] }>* @alloc788, i32 0, i32 0, i32 0), [16 x i8] c"J\00\00\00\00\00\00\00\AC\00\00\00\1B\00\00\00" }>, align 8
@alloc787 = private unnamed_addr constant <{ i8*, [16 x i8] }> <{ i8* getelementptr inbounds (<{ [74 x i8] }>, <{ [74 x i8] }>* @alloc788, i32 0, i32 0, i32 0), [16 x i8] c"J\00\00\00\00\00\00\00\CC\00\00\00\1B\00\00\00" }>, align 8
@alloc789 = private unnamed_addr constant <{ i8*, [16 x i8] }> <{ i8* getelementptr inbounds (<{ [74 x i8] }>, <{ [74 x i8] }>* @alloc788, i32 0, i32 0, i32 0), [16 x i8] c"J\00\00\00\00\00\00\00\D9\00\00\00\1F\00\00\00" }>, align 8
@alloc798 = private unnamed_addr constant <{ [76 x i8] }> <{ [76 x i8] c"/rustc/43347397f7c5ca9a670a3bb3890c7187e24a52ab/library/alloc/src/raw_vec.rs" }>, align 1
@alloc791 = private unnamed_addr constant <{ i8*, [16 x i8] }> <{ i8* getelementptr inbounds (<{ [76 x i8] }>, <{ [76 x i8] }>* @alloc798, i32 0, i32 0, i32 0), [16 x i8] c"L\00\00\00\00\00\00\00\C8\01\00\00\16\00\00\00" }>, align 8
@alloc793 = private unnamed_addr constant <{ i8*, [16 x i8] }> <{ i8* getelementptr inbounds (<{ [76 x i8] }>, <{ [76 x i8] }>* @alloc798, i32 0, i32 0, i32 0), [16 x i8] c"L\00\00\00\00\00\00\00\CA\01\00\00\05\00\00\00" }>, align 8
@alloc795 = private unnamed_addr constant <{ i8*, [16 x i8] }> <{ i8* getelementptr inbounds (<{ [76 x i8] }>, <{ [76 x i8] }>* @alloc798, i32 0, i32 0, i32 0), [16 x i8] c"L\00\00\00\00\00\00\00\F7\00\00\00;\00\00\00" }>, align 8
@alloc797 = private unnamed_addr constant <{ i8*, [16 x i8] }> <{ i8* getelementptr inbounds (<{ [76 x i8] }>, <{ [76 x i8] }>* @alloc798, i32 0, i32 0, i32 0), [16 x i8] c"L\00\00\00\00\00\00\00\86\01\00\00\1C\00\00\00" }>, align 8
@alloc799 = private unnamed_addr constant <{ i8*, [16 x i8] }> <{ i8* getelementptr inbounds (<{ [76 x i8] }>, <{ [76 x i8] }>* @alloc798, i32 0, i32 0, i32 0), [16 x i8] c"L\00\00\00\00\00\00\00\90\01\00\00\13\00\00\00" }>, align 8
@alloc802 = private unnamed_addr constant <{ [11 x i8] }> <{ [11 x i8] c"PoisonError" }>, align 1
@alloc804 = private unnamed_addr constant <{ i8*, [16 x i8] }> <{ i8* getelementptr inbounds (<{ [79 x i8] }>, <{ [79 x i8] }>* @alloc803, i32 0, i32 0, i32 0), [16 x i8] c"O\00\00\00\00\00\00\00\1C\04\00\00\17\00\00\00" }>, align 8
@_ZN9probe_RSE9_PROBE_FP17heeddb26bdf91b043E = internal global <{ [8 x i8] }> zeroinitializer, align 8
@_ZN9probe_RSE15_PROBE_THRD_SEM17h8031662f11c75f52E = internal global <{ [8 x i8] }> zeroinitializer, align 8
@_ZN9probe_RSE20_PROBE_NEW_THREAD_ID17hb3c5bb923c61dc6aE = internal global <{ [8 x i8], [16 x i8] }> <{ [8 x i8] zeroinitializer, [16 x i8] undef }>, align 8
@_ZN9probe_RSE15_PROBE_THRD_EXE17h6cfd9f0d4be367c8E = internal global <{ [8 x i8] }> zeroinitializer, align 8
@alloc225 = private unnamed_addr constant <{ [39 x i8] }> <{ [39 x i8] c"***** INITIATING PROBE FUNCTINOS *****\0A" }>, align 1
@alloc226 = private unnamed_addr constant <{ i8*, [8 x i8] }> <{ i8* getelementptr inbounds (<{ [39 x i8] }>, <{ [39 x i8] }>* @alloc225, i32 0, i32 0, i32 0), [8 x i8] c"'\00\00\00\00\00\00\00" }>, align 8
@alloc805 = private unnamed_addr constant <{ [3 x i8] }> <{ [3 x i8] c"log" }>, align 1
@alloc921 = private unnamed_addr constant <{ [14 x i8] }> <{ [14 x i8] c"./probe_RSE.rs" }>, align 1
@alloc807 = private unnamed_addr constant <{ i8*, [16 x i8] }> <{ i8* getelementptr inbounds (<{ [14 x i8] }>, <{ [14 x i8] }>* @alloc921, i32 0, i32 0, i32 0), [16 x i8] c"\0E\00\00\00\00\00\00\002\00\00\00.\00\00\00" }>, align 8
@alloc819 = private unnamed_addr constant <{ [6 x i8] }> <{ [6 x i8] c"struct" }>, align 1
@alloc563 = private unnamed_addr constant <{ i8* }> <{ i8* bitcast (i64* (i64*)* @_ZN9probe_RSE11EXE_NODE_ID7__getit17h8b72b9ffbc5aba84E to i8*) }>, align 8
@alloc554 = private unnamed_addr constant <{ i8* }> <{ i8* bitcast (i64* (i64*)* @_ZN9probe_RSE3TID7__getit17hbf808cfb437c2ed1E to i8*) }>, align 8
@vtable.e = private unnamed_addr constant <{ i8*, [16 x i8], i8*, i8*, i8* }> <{ i8* bitcast (void ({ i8*, i64* }*)* @"_ZN4core3ptr67drop_in_place$LT$probe_RSE.._init_..$u7b$$u7b$closure$u7d$$u7d$$GT$17hbd64bf292dedb01fE" to i8*), [16 x i8] c"\10\00\00\00\00\00\00\00\08\00\00\00\00\00\00\00", i8* bitcast (void ({ i8*, i64* }*, %"core::panic::panic_info::PanicInfo"*)* @"_ZN4core3ops8function6FnOnce40call_once$u7b$$u7b$vtable.shim$u7d$$u7d$17ha275d01ff2c3f421E" to i8*), i8* bitcast (void ({ i8*, i64* }*, %"core::panic::panic_info::PanicInfo"*)* @"_ZN9probe_RSE6_init_28_$u7b$$u7b$closure$u7d$$u7d$17h424f42a2ccf1e0b6E" to i8*), i8* bitcast (void ({ i8*, i64* }*, %"core::panic::panic_info::PanicInfo"*)* @"_ZN9probe_RSE6_init_28_$u7b$$u7b$closure$u7d$$u7d$17h424f42a2ccf1e0b6E" to i8*) }>, align 8
@alloc815 = private unnamed_addr constant <{ i8*, [16 x i8] }> <{ i8* getelementptr inbounds (<{ [14 x i8] }>, <{ [14 x i8] }>* @alloc921, i32 0, i32 0, i32 0), [16 x i8] c"\0E\00\00\00\00\00\00\00>\00\00\00\15\00\00\00" }>, align 8
@alloc816 = private unnamed_addr constant <{ [1 x i8] }> <{ [1 x i8] c"1" }>, align 1
@alloc818 = private unnamed_addr constant <{ i8*, [16 x i8] }> <{ i8* getelementptr inbounds (<{ [14 x i8] }>, <{ [14 x i8] }>* @alloc921, i32 0, i32 0, i32 0), [16 x i8] c"\0E\00\00\00\00\00\00\00A\00\00\00\0D\00\00\00" }>, align 8
@alloc821 = private unnamed_addr constant <{ i8*, [16 x i8] }> <{ i8* getelementptr inbounds (<{ [14 x i8] }>, <{ [14 x i8] }>* @alloc921, i32 0, i32 0, i32 0), [16 x i8] c"\0E\00\00\00\00\00\00\00N\00\00\00m\00\00\00" }>, align 8
@alloc823 = private unnamed_addr constant <{ i8*, [16 x i8] }> <{ i8* getelementptr inbounds (<{ [14 x i8] }>, <{ [14 x i8] }>* @alloc921, i32 0, i32 0, i32 0), [16 x i8] c"\0E\00\00\00\00\00\00\00O\00\00\00.\00\00\00" }>, align 8
@alloc274 = private unnamed_addr constant <{ [4 x i8] }> <{ [4 x i8] c"tid " }>, align 1
@alloc276 = private unnamed_addr constant <{ [10 x i8] }> <{ [10 x i8] c" --------\0A" }>, align 1
@alloc275 = private unnamed_addr constant <{ i8*, [8 x i8], i8*, [8 x i8] }> <{ i8* getelementptr inbounds (<{ [4 x i8] }>, <{ [4 x i8] }>* @alloc274, i32 0, i32 0, i32 0), [8 x i8] c"\04\00\00\00\00\00\00\00", i8* getelementptr inbounds (<{ [10 x i8] }>, <{ [10 x i8] }>* @alloc276, i32 0, i32 0, i32 0), [8 x i8] c"\0A\00\00\00\00\00\00\00" }>, align 8
@alloc901 = private unnamed_addr constant <{ [13 x i8] }> <{ [13 x i8] c"write failed\0A" }>, align 1
@alloc826 = private unnamed_addr constant <{ i8*, [16 x i8] }> <{ i8* getelementptr inbounds (<{ [14 x i8] }>, <{ [14 x i8] }>* @alloc921, i32 0, i32 0, i32 0), [16 x i8] c"\0E\00\00\00\00\00\00\00R\00\00\00?\00\00\00" }>, align 8
@alloc828 = private unnamed_addr constant <{ i8*, [16 x i8] }> <{ i8* getelementptr inbounds (<{ [14 x i8] }>, <{ [14 x i8] }>* @alloc921, i32 0, i32 0, i32 0), [16 x i8] c"\0E\00\00\00\00\00\00\00S\00\00\00\11\00\00\00" }>, align 8
@str.f = internal constant [28 x i8] c"attempt to add with overflow"
@alloc280 = private unnamed_addr constant <{ [1 x i8] }> <{ [1 x i8] c"\09" }>, align 1
@alloc282 = private unnamed_addr constant <{ [1 x i8] }> <{ [1 x i8] c"\0A" }>, align 1
@alloc281 = private unnamed_addr constant <{ i8*, [8 x i8], i8*, [8 x i8] }> <{ i8* getelementptr inbounds (<{ [1 x i8] }>, <{ [1 x i8] }>* @alloc280, i32 0, i32 0, i32 0), [8 x i8] c"\01\00\00\00\00\00\00\00", i8* getelementptr inbounds (<{ [1 x i8] }>, <{ [1 x i8] }>* @alloc282, i32 0, i32 0, i32 0), [8 x i8] c"\01\00\00\00\00\00\00\00" }>, align 8
@alloc831 = private unnamed_addr constant <{ i8*, [16 x i8] }> <{ i8* getelementptr inbounds (<{ [14 x i8] }>, <{ [14 x i8] }>* @alloc921, i32 0, i32 0, i32 0), [16 x i8] c"\0E\00\00\00\00\00\00\00U\00\00\00;\00\00\00" }>, align 8
@alloc833 = private unnamed_addr constant <{ i8*, [16 x i8] }> <{ i8* getelementptr inbounds (<{ [14 x i8] }>, <{ [14 x i8] }>* @alloc921, i32 0, i32 0, i32 0), [16 x i8] c"\0E\00\00\00\00\00\00\00`\00\00\00@\00\00\00" }>, align 8
@alloc835 = private unnamed_addr constant <{ i8*, [16 x i8] }> <{ i8* getelementptr inbounds (<{ [14 x i8] }>, <{ [14 x i8] }>* @alloc921, i32 0, i32 0, i32 0), [16 x i8] c"\0E\00\00\00\00\00\00\00b\00\00\00\1D\00\00\00" }>, align 8
@alloc837 = private unnamed_addr constant <{ i8*, [16 x i8] }> <{ i8* getelementptr inbounds (<{ [14 x i8] }>, <{ [14 x i8] }>* @alloc921, i32 0, i32 0, i32 0), [16 x i8] c"\0E\00\00\00\00\00\00\00d\00\00\00H\00\00\00" }>, align 8
@alloc839 = private unnamed_addr constant <{ i8*, [16 x i8] }> <{ i8* getelementptr inbounds (<{ [14 x i8] }>, <{ [14 x i8] }>* @alloc921, i32 0, i32 0, i32 0), [16 x i8] c"\0E\00\00\00\00\00\00\00e\00\00\008\00\00\00" }>, align 8
@alloc841 = private unnamed_addr constant <{ i8*, [16 x i8] }> <{ i8* getelementptr inbounds (<{ [14 x i8] }>, <{ [14 x i8] }>* @alloc921, i32 0, i32 0, i32 0), [16 x i8] c"\0E\00\00\00\00\00\00\00e\00\00\00H\00\00\00" }>, align 8
@alloc843 = private unnamed_addr constant <{ i8*, [16 x i8] }> <{ i8* getelementptr inbounds (<{ [14 x i8] }>, <{ [14 x i8] }>* @alloc921, i32 0, i32 0, i32 0), [16 x i8] c"\0E\00\00\00\00\00\00\00m\00\00\00,\00\00\00" }>, align 8
@alloc515 = private unnamed_addr constant <{ [4 x i8] }> <{ [4 x i8] c"join" }>, align 1
@alloc516 = private unnamed_addr constant <{ i8*, [8 x i8] }> <{ i8* getelementptr inbounds (<{ [4 x i8] }>, <{ [4 x i8] }>* @alloc515, i32 0, i32 0, i32 0), [8 x i8] c"\04\00\00\00\00\00\00\00" }>, align 8
@alloc845 = private unnamed_addr constant <{ i8*, [16 x i8] }> <{ i8* getelementptr inbounds (<{ [14 x i8] }>, <{ [14 x i8] }>* @alloc921, i32 0, i32 0, i32 0), [16 x i8] c"\0E\00\00\00\00\00\00\00u\00\00\00\1D\00\00\00" }>, align 8
@alloc847 = private unnamed_addr constant <{ i8*, [16 x i8] }> <{ i8* getelementptr inbounds (<{ [14 x i8] }>, <{ [14 x i8] }>* @alloc921, i32 0, i32 0, i32 0), [16 x i8] c"\0E\00\00\00\00\00\00\00w\00\00\00H\00\00\00" }>, align 8
@alloc849 = private unnamed_addr constant <{ i8*, [16 x i8] }> <{ i8* getelementptr inbounds (<{ [14 x i8] }>, <{ [14 x i8] }>* @alloc921, i32 0, i32 0, i32 0), [16 x i8] c"\0E\00\00\00\00\00\00\00x\00\00\008\00\00\00" }>, align 8
@alloc851 = private unnamed_addr constant <{ i8*, [16 x i8] }> <{ i8* getelementptr inbounds (<{ [14 x i8] }>, <{ [14 x i8] }>* @alloc921, i32 0, i32 0, i32 0), [16 x i8] c"\0E\00\00\00\00\00\00\00x\00\00\00F\00\00\00" }>, align 8
@alloc853 = private unnamed_addr constant <{ i8*, [16 x i8] }> <{ i8* getelementptr inbounds (<{ [14 x i8] }>, <{ [14 x i8] }>* @alloc921, i32 0, i32 0, i32 0), [16 x i8] c"\0E\00\00\00\00\00\00\00\87\00\00\00\1D\00\00\00" }>, align 8
@alloc543 = private unnamed_addr constant <{ i8* }> <{ i8* bitcast (i64* (i64*)* @_ZN9probe_RSE8CHILD_ID7__getit17h28aa4e647d59bb4aE to i8*) }>, align 8
@alloc855 = private unnamed_addr constant <{ i8*, [16 x i8] }> <{ i8* getelementptr inbounds (<{ [14 x i8] }>, <{ [14 x i8] }>* @alloc921, i32 0, i32 0, i32 0), [16 x i8] c"\0E\00\00\00\00\00\00\00\89\00\00\00-\00\00\00" }>, align 8
@alloc547 = private unnamed_addr constant <{ [1 x i8] }> <{ [1 x i8] c"." }>, align 1
@alloc546 = private unnamed_addr constant <{ i8*, [8 x i8], i8*, [8 x i8] }> <{ i8* bitcast (<{}>* @alloc222 to i8*), [8 x i8] zeroinitializer, i8* getelementptr inbounds (<{ [1 x i8] }>, <{ [1 x i8] }>* @alloc547, i32 0, i32 0, i32 0), [8 x i8] c"\01\00\00\00\00\00\00\00" }>, align 8
@alloc857 = private unnamed_addr constant <{ i8*, [16 x i8] }> <{ i8* getelementptr inbounds (<{ [14 x i8] }>, <{ [14 x i8] }>* @alloc921, i32 0, i32 0, i32 0), [16 x i8] c"\0E\00\00\00\00\00\00\00\8A\00\00\00C\00\00\00" }>, align 8
@alloc859 = private unnamed_addr constant <{ i8*, [16 x i8] }> <{ i8* getelementptr inbounds (<{ [14 x i8] }>, <{ [14 x i8] }>* @alloc921, i32 0, i32 0, i32 0), [16 x i8] c"\0E\00\00\00\00\00\00\00\8B\00\00\00\11\00\00\00" }>, align 8
@alloc861 = private unnamed_addr constant <{ i8*, [16 x i8] }> <{ i8* getelementptr inbounds (<{ [14 x i8] }>, <{ [14 x i8] }>* @alloc921, i32 0, i32 0, i32 0), [16 x i8] c"\0E\00\00\00\00\00\00\00\8E\00\00\00H\00\00\00" }>, align 8
@alloc863 = private unnamed_addr constant <{ i8*, [16 x i8] }> <{ i8* getelementptr inbounds (<{ [14 x i8] }>, <{ [14 x i8] }>* @alloc921, i32 0, i32 0, i32 0), [16 x i8] c"\0E\00\00\00\00\00\00\00\8F\00\00\00<\00\00\00" }>, align 8
@alloc865 = private unnamed_addr constant <{ i8*, [16 x i8] }> <{ i8* getelementptr inbounds (<{ [14 x i8] }>, <{ [14 x i8] }>* @alloc921, i32 0, i32 0, i32 0), [16 x i8] c"\0E\00\00\00\00\00\00\00\8F\00\00\00J\00\00\00" }>, align 8
@alloc866 = private unnamed_addr constant <{ [8 x i8] }> <{ [8 x i8] c"spawning" }>, align 1
@alloc868 = private unnamed_addr constant <{ i8*, [16 x i8] }> <{ i8* getelementptr inbounds (<{ [14 x i8] }>, <{ [14 x i8] }>* @alloc921, i32 0, i32 0, i32 0), [16 x i8] c"\0E\00\00\00\00\00\00\00\99\00\00\00\15\00\00\00" }>, align 8
@alloc870 = private unnamed_addr constant <{ i8*, [16 x i8] }> <{ i8* getelementptr inbounds (<{ [14 x i8] }>, <{ [14 x i8] }>* @alloc921, i32 0, i32 0, i32 0), [16 x i8] c"\0E\00\00\00\00\00\00\00\A4\00\00\00\1D\00\00\00" }>, align 8
@alloc872 = private unnamed_addr constant <{ i8*, [16 x i8] }> <{ i8* getelementptr inbounds (<{ [14 x i8] }>, <{ [14 x i8] }>* @alloc921, i32 0, i32 0, i32 0), [16 x i8] c"\0E\00\00\00\00\00\00\00\A9\00\00\008\00\00\00" }>, align 8
@alloc874 = private unnamed_addr constant <{ i8*, [16 x i8] }> <{ i8* getelementptr inbounds (<{ [14 x i8] }>, <{ [14 x i8] }>* @alloc921, i32 0, i32 0, i32 0), [16 x i8] c"\0E\00\00\00\00\00\00\00\AA\00\00\00!\00\00\00" }>, align 8
@alloc876 = private unnamed_addr constant <{ i8*, [16 x i8] }> <{ i8* getelementptr inbounds (<{ [14 x i8] }>, <{ [14 x i8] }>* @alloc921, i32 0, i32 0, i32 0), [16 x i8] c"\0E\00\00\00\00\00\00\00\AE\00\00\008\00\00\00" }>, align 8
@alloc878 = private unnamed_addr constant <{ i8*, [16 x i8] }> <{ i8* getelementptr inbounds (<{ [14 x i8] }>, <{ [14 x i8] }>* @alloc921, i32 0, i32 0, i32 0), [16 x i8] c"\0E\00\00\00\00\00\00\00\AE\00\00\00F\00\00\00" }>, align 8
@alloc879 = private unnamed_addr constant <{ [7 x i8] }> <{ [7 x i8] c"spawned" }>, align 1
@alloc893 = private unnamed_addr constant <{ [1 x i8] }> <{ [1 x i8] c"/" }>, align 1
@alloc882 = private unnamed_addr constant <{ i8*, [16 x i8] }> <{ i8* getelementptr inbounds (<{ [14 x i8] }>, <{ [14 x i8] }>* @alloc921, i32 0, i32 0, i32 0), [16 x i8] c"\0E\00\00\00\00\00\00\00\C4\00\00\00\14\00\00\00" }>, align 8
@alloc476 = private unnamed_addr constant <{ [2 x i8] }> <{ [2 x i8] c".." }>, align 1
@alloc477 = private unnamed_addr constant <{ i8*, [8 x i8] }> <{ i8* getelementptr inbounds (<{ [2 x i8] }>, <{ [2 x i8] }>* @alloc476, i32 0, i32 0, i32 0), [8 x i8] c"\02\00\00\00\00\00\00\00" }>, align 8
@alloc884 = private unnamed_addr constant <{ i8*, [16 x i8] }> <{ i8* getelementptr inbounds (<{ [14 x i8] }>, <{ [14 x i8] }>* @alloc921, i32 0, i32 0, i32 0), [16 x i8] c"\0E\00\00\00\00\00\00\00\C5\00\00\00\1D\00\00\00" }>, align 8
@alloc886 = private unnamed_addr constant <{ i8*, [16 x i8] }> <{ i8* getelementptr inbounds (<{ [14 x i8] }>, <{ [14 x i8] }>* @alloc921, i32 0, i32 0, i32 0), [16 x i8] c"\0E\00\00\00\00\00\00\00\C6\00\00\00$\00\00\00" }>, align 8
@str.g = internal constant [33 x i8] c"attempt to subtract with overflow"
@alloc888 = private unnamed_addr constant <{ i8*, [16 x i8] }> <{ i8* getelementptr inbounds (<{ [14 x i8] }>, <{ [14 x i8] }>* @alloc921, i32 0, i32 0, i32 0), [16 x i8] c"\0E\00\00\00\00\00\00\00\C6\00\00\00\1D\00\00\00" }>, align 8
@alloc890 = private unnamed_addr constant <{ i8*, [16 x i8] }> <{ i8* getelementptr inbounds (<{ [14 x i8] }>, <{ [14 x i8] }>* @alloc921, i32 0, i32 0, i32 0), [16 x i8] c"\0E\00\00\00\00\00\00\00\C7\00\00\00\15\00\00\00" }>, align 8
@alloc892 = private unnamed_addr constant <{ i8*, [16 x i8] }> <{ i8* getelementptr inbounds (<{ [14 x i8] }>, <{ [14 x i8] }>* @alloc921, i32 0, i32 0, i32 0), [16 x i8] c"\0E\00\00\00\00\00\00\00\C9\00\00\00\11\00\00\00" }>, align 8
@alloc409 = private unnamed_addr constant <{ [4 x i8] }> <{ [4 x i8] c"None" }>, align 1
@alloc896 = private unnamed_addr constant <{ i8*, [16 x i8] }> <{ i8* getelementptr inbounds (<{ [14 x i8] }>, <{ [14 x i8] }>* @alloc921, i32 0, i32 0, i32 0), [16 x i8] c"\0E\00\00\00\00\00\00\00\D1\00\00\000\00\00\00" }>, align 8
@alloc898 = private unnamed_addr constant <{ i8*, [16 x i8] }> <{ i8* getelementptr inbounds (<{ [14 x i8] }>, <{ [14 x i8] }>* @alloc921, i32 0, i32 0, i32 0), [16 x i8] c"\0E\00\00\00\00\00\00\00\D2\00\00\00\0D\00\00\00" }>, align 8
@alloc900 = private unnamed_addr constant <{ i8*, [16 x i8] }> <{ i8* getelementptr inbounds (<{ [14 x i8] }>, <{ [14 x i8] }>* @alloc921, i32 0, i32 0, i32 0), [16 x i8] c"\0E\00\00\00\00\00\00\00\E0\00\00\001\00\00\00" }>, align 8
@alloc465 = private unnamed_addr constant <{ [1 x i8] }> <{ [1 x i8] c"-" }>, align 1
@alloc466 = private unnamed_addr constant <{ [1 x i8] }> <{ [1 x i8] c"+" }>, align 1
@alloc464 = private unnamed_addr constant <{ i8*, [8 x i8], i8*, [8 x i8], i8*, [8 x i8] }> <{ i8* bitcast (<{}>* @alloc222 to i8*), [8 x i8] zeroinitializer, i8* getelementptr inbounds (<{ [1 x i8] }>, <{ [1 x i8] }>* @alloc465, i32 0, i32 0, i32 0), [8 x i8] c"\01\00\00\00\00\00\00\00", i8* getelementptr inbounds (<{ [1 x i8] }>, <{ [1 x i8] }>* @alloc466, i32 0, i32 0, i32 0), [8 x i8] c"\01\00\00\00\00\00\00\00" }>, align 8
@alloc903 = private unnamed_addr constant <{ i8*, [16 x i8] }> <{ i8* getelementptr inbounds (<{ [14 x i8] }>, <{ [14 x i8] }>* @alloc921, i32 0, i32 0, i32 0), [16 x i8] c"\0E\00\00\00\00\00\00\00\E1\00\00\00:\00\00\00" }>, align 8
@alloc905 = private unnamed_addr constant <{ i8*, [16 x i8] }> <{ i8* getelementptr inbounds (<{ [14 x i8] }>, <{ [14 x i8] }>* @alloc921, i32 0, i32 0, i32 0), [16 x i8] c"\0E\00\00\00\00\00\00\00\E9\00\00\00*\00\00\00" }>, align 8
@alloc907 = private unnamed_addr constant <{ i8*, [16 x i8] }> <{ i8* getelementptr inbounds (<{ [14 x i8] }>, <{ [14 x i8] }>* @alloc921, i32 0, i32 0, i32 0), [16 x i8] c"\0E\00\00\00\00\00\00\00\EA\00\00\00'\00\00\00" }>, align 8
@alloc909 = private unnamed_addr constant <{ i8*, [16 x i8] }> <{ i8* getelementptr inbounds (<{ [14 x i8] }>, <{ [14 x i8] }>* @alloc921, i32 0, i32 0, i32 0), [16 x i8] c"\0E\00\00\00\00\00\00\00\EB\00\00\003\00\00\00" }>, align 8
@str.h = internal constant [33 x i8] c"attempt to multiply with overflow"
@alloc911 = private unnamed_addr constant <{ i8*, [16 x i8] }> <{ i8* getelementptr inbounds (<{ [14 x i8] }>, <{ [14 x i8] }>* @alloc921, i32 0, i32 0, i32 0), [16 x i8] c"\0E\00\00\00\00\00\00\00\FC\00\00\00*\00\00\00" }>, align 8
@alloc913 = private unnamed_addr constant <{ i8*, [16 x i8] }> <{ i8* getelementptr inbounds (<{ [14 x i8] }>, <{ [14 x i8] }>* @alloc921, i32 0, i32 0, i32 0), [16 x i8] c"\0E\00\00\00\00\00\00\00\FD\00\00\00\09\00\00\00" }>, align 8
@alloc915 = private unnamed_addr constant <{ i8*, [16 x i8] }> <{ i8* getelementptr inbounds (<{ [14 x i8] }>, <{ [14 x i8] }>* @alloc921, i32 0, i32 0, i32 0), [16 x i8] c"\0E\00\00\00\00\00\00\00\FF\00\00\00)\00\00\00" }>, align 8
@alloc917 = private unnamed_addr constant <{ i8*, [16 x i8] }> <{ i8* getelementptr inbounds (<{ [14 x i8] }>, <{ [14 x i8] }>* @alloc921, i32 0, i32 0, i32 0), [16 x i8] c"\0E\00\00\00\00\00\00\00\03\01\00\00*\00\00\00" }>, align 8
@alloc919 = private unnamed_addr constant <{ i8*, [16 x i8] }> <{ i8* getelementptr inbounds (<{ [14 x i8] }>, <{ [14 x i8] }>* @alloc921, i32 0, i32 0, i32 0), [16 x i8] c"\0E\00\00\00\00\00\00\00\04\01\00\00\09\00\00\00" }>, align 8
@alloc368 = private unnamed_addr constant <{ [5 x i8] }> <{ [5 x i8] c"tid: " }>, align 1
@alloc370 = private unnamed_addr constant <{ [14 x i8] }> <{ [14 x i8] c" | func_name: " }>, align 1
@alloc371 = private unnamed_addr constant <{ [18 x i8] }> <{ [18 x i8] c" | lock_var_addr: " }>, align 1
@alloc372 = private unnamed_addr constant <{ [3 x i8] }> <{ [3 x i8] c" | " }>, align 1
@alloc373 = private unnamed_addr constant <{ [3 x i8] }> <{ [3 x i8] c" : " }>, align 1
@alloc369 = private unnamed_addr constant <{ i8*, [8 x i8], i8*, [8 x i8], i8*, [8 x i8], i8*, [8 x i8], i8*, [8 x i8] }> <{ i8* getelementptr inbounds (<{ [5 x i8] }>, <{ [5 x i8] }>* @alloc368, i32 0, i32 0, i32 0), [8 x i8] c"\05\00\00\00\00\00\00\00", i8* getelementptr inbounds (<{ [14 x i8] }>, <{ [14 x i8] }>* @alloc370, i32 0, i32 0, i32 0), [8 x i8] c"\0E\00\00\00\00\00\00\00", i8* getelementptr inbounds (<{ [18 x i8] }>, <{ [18 x i8] }>* @alloc371, i32 0, i32 0, i32 0), [8 x i8] c"\12\00\00\00\00\00\00\00", i8* getelementptr inbounds (<{ [3 x i8] }>, <{ [3 x i8] }>* @alloc372, i32 0, i32 0, i32 0), [8 x i8] c"\03\00\00\00\00\00\00\00", i8* getelementptr inbounds (<{ [3 x i8] }>, <{ [3 x i8] }>* @alloc373, i32 0, i32 0, i32 0), [8 x i8] c"\03\00\00\00\00\00\00\00" }>, align 8
@alloc437 = private unnamed_addr constant <{ [280 x i8] }> <{ [280 x i8] c"\00\00\00\00\00\00\00\00\02\00\00\00\00\00\00\00\00\00\00\00\00\00\00\00\00\00\00\00\00\00\00\00\08\00\00\00\00\00\00\00 \00\00\00\00\00\00\00\00\00\00\00\00\00\00\00\01\00\00\00\00\00\00\00\02\00\00\00\00\00\00\00\00\00\00\00\00\00\00\00\00\00\00\00\00\00\00\00\08\00\00\00\00\00\00\00 \00\00\00\00\00\00\00\00\00\00\00\00\00\00\00\02\00\00\00\00\00\00\00\02\00\00\00\00\00\00\00\00\00\00\00\00\00\00\00\00\00\00\00\00\00\00\00\0A\00\00\00\00\00\00\00 \00\00\00\00\00\00\00\00\00\00\00\00\00\00\00\03\00\00\00\00\00\00\00\02\00\00\00\00\00\00\00\00\00\00\00\00\00\00\00\02\00\00\00\00\00\00\00\00\00\00\00\00\00\00\00 \00\00\00\00\00\00\00\03\00\00\00\00\00\00\00\04\00\00\00\00\00\00\00\02\00\00\00\00\00\00\00\00\00\00\00\00\00\00\00\02\00\00\00\00\00\00\00\00\00\00\00\00\00\00\00 \00\00\00\00\00\00\00\03\00\00\00\00\00\00\00" }>, align 8
@alloc410 = private unnamed_addr constant <{ i8*, [8 x i8] }> <{ i8* getelementptr inbounds (<{ [4 x i8] }>, <{ [4 x i8] }>* @alloc409, i32 0, i32 0, i32 0), [8 x i8] c"\04\00\00\00\00\00\00\00" }>, align 8
@alloc920 = private unnamed_addr constant <{ [4 x i8] }> <{ [4 x i8] c"none" }>, align 1
@_ZN9probe_RSE3TID7__getit5__KEY17h24d0998fa9957dc6E = internal thread_local global <{ [8 x i8], [32 x i8], [1 x i8], [7 x i8] }> <{ [8 x i8] zeroinitializer, [32 x i8] undef, [1 x i8] zeroinitializer, [7 x i8] undef }>, align 8
@alloc216 = private unnamed_addr constant <{ [42 x i8] }> <{ [42 x i8] c"internal error: entered unreachable code: " }>, align 1
@alloc217 = private unnamed_addr constant <{ i8*, [8 x i8] }> <{ i8* getelementptr inbounds (<{ [42 x i8] }>, <{ [42 x i8] }>* @alloc216, i32 0, i32 0, i32 0), [8 x i8] c"*\00\00\00\00\00\00\00" }>, align 8
@alloc219 = private unnamed_addr constant <{ [21 x i8] }> <{ [21 x i8] c"missing default value" }>, align 1
@alloc220 = private unnamed_addr constant <{ i8*, [8 x i8] }> <{ i8* getelementptr inbounds (<{ [21 x i8] }>, <{ [21 x i8] }>* @alloc219, i32 0, i32 0, i32 0), [8 x i8] c"\15\00\00\00\00\00\00\00" }>, align 8
@alloc922 = private unnamed_addr constant <{ i8*, [16 x i8] }> <{ i8* getelementptr inbounds (<{ [14 x i8] }>, <{ [14 x i8] }>* @alloc921, i32 0, i32 0, i32 0), [16 x i8] c"\0E\00\00\00\00\00\00\00$\00\00\00\01\00\00\00" }>, align 8
@_ZN9probe_RSE8CHILD_ID7__getit5__KEY17hd6e5d27321e3878bE = internal thread_local global <{ [8 x i8], [16 x i8], [1 x i8], [7 x i8] }> <{ [8 x i8] zeroinitializer, [16 x i8] undef, [1 x i8] zeroinitializer, [7 x i8] undef }>, align 8
@_ZN9probe_RSE11EXE_NODE_ID7__getit5__KEY17ha76a9dd8d26a4195E = internal thread_local global <{ [8 x i8], [16 x i8], [1 x i8], [7 x i8] }> <{ [8 x i8] zeroinitializer, [16 x i8] undef, [1 x i8] zeroinitializer, [7 x i8] undef }>, align 8

; <core::iter::adapters::map::Map<I,F> as core::iter::traits::iterator::Iterator>::next
; Function Attrs: inlinehint nonlazybind uwtable
define { i8*, i64 } @"_ZN102_$LT$core..iter..adapters..map..Map$LT$I$C$F$GT$$u20$as$u20$core..iter..traits..iterator..Iterator$GT$4next17hc4188a3c8445a678E"({ i64*, i64* }* align 8 %self) unnamed_addr #0 {
start:
; call <core::slice::iter::Iter<T> as core::iter::traits::iterator::Iterator>::next
  %_2 = call align 8 i64* @"_ZN91_$LT$core..slice..iter..Iter$LT$T$GT$$u20$as$u20$core..iter..traits..iterator..Iterator$GT$4next17hffafa6fa6d8619a9E"({ i64*, i64* }* align 8 %self)
  br label %bb1

bb1:                                              ; preds = %start
  %_4 = bitcast { i64*, i64* }* %self to %"[closure@alloc::str::join_generic_copy<str, u8, &str>::{closure#1}]"*
; call core::option::Option<T>::map
  %0 = call { i8*, i64 } @"_ZN4core6option15Option$LT$T$GT$3map17he52d688dcc123096E"(i64* align 8 %_2, %"[closure@alloc::str::join_generic_copy<str, u8, &str>::{closure#1}]"* align 1 %_4)
  %1 = extractvalue { i8*, i64 } %0, 0
  %2 = extractvalue { i8*, i64 } %0, 1
  br label %bb2

bb2:                                              ; preds = %bb1
  %3 = insertvalue { i8*, i64 } undef, i8* %1, 0
  %4 = insertvalue { i8*, i64 } %3, i64 %2, 1
  ret { i8*, i64 } %4
}

; <core::iter::adapters::map::Map<I,F> as core::iter::traits::iterator::Iterator>::try_fold
; Function Attrs: nonlazybind uwtable
define { i64, i64 } @"_ZN102_$LT$core..iter..adapters..map..Map$LT$I$C$F$GT$$u20$as$u20$core..iter..traits..iterator..Iterator$GT$8try_fold17h632cd1c3cab99aa2E"({ i64*, i64* }* align 8 %self, i64 %init) unnamed_addr #1 personality i32 (i32, i32, i64, %"unwind::libunwind::_Unwind_Exception"*, %"unwind::libunwind::_Unwind_Context"*)* @rust_eh_personality {
start:
  %0 = alloca { i8*, i32 }, align 8
  %_10 = alloca i8, align 1
  store i8 1, i8* %_10, align 1
  %_8 = bitcast { i64*, i64* }* %self to %"[closure@alloc::str::join_generic_copy<str, u8, &str>::{closure#0}::{closure#0}]"*
; invoke core::iter::adapters::map::map_try_fold
  %_6 = invoke align 1 i8* @_ZN4core4iter8adapters3map12map_try_fold17h5293b540203e666dE(%"[closure@alloc::str::join_generic_copy<str, u8, &str>::{closure#0}::{closure#0}]"* align 1 %_8)
          to label %bb1 unwind label %cleanup

bb5:                                              ; preds = %cleanup
  %1 = load i8, i8* %_10, align 1, !range !2, !noundef !3
  %2 = trunc i8 %1 to i1
  br i1 %2, label %bb4, label %bb3

cleanup:                                          ; preds = %bb1, %start
  %3 = landingpad { i8*, i32 }
          cleanup
  %4 = extractvalue { i8*, i32 } %3, 0
  %5 = extractvalue { i8*, i32 } %3, 1
  %6 = getelementptr inbounds { i8*, i32 }, { i8*, i32 }* %0, i32 0, i32 0
  store i8* %4, i8** %6, align 8
  %7 = getelementptr inbounds { i8*, i32 }, { i8*, i32 }* %0, i32 0, i32 1
  store i32 %5, i32* %7, align 8
  br label %bb5

bb1:                                              ; preds = %start
  store i8 0, i8* %_10, align 1
; invoke core::iter::traits::iterator::Iterator::try_fold
  %8 = invoke { i64, i64 } @_ZN4core4iter6traits8iterator8Iterator8try_fold17h8ed5c081d2f2f638E({ i64*, i64* }* align 8 %self, i64 %init, i8* align 1 %_6)
          to label %bb2 unwind label %cleanup

bb2:                                              ; preds = %bb1
  %9 = extractvalue { i64, i64 } %8, 0
  %10 = extractvalue { i64, i64 } %8, 1
  %11 = insertvalue { i64, i64 } undef, i64 %9, 0
  %12 = insertvalue { i64, i64 } %11, i64 %10, 1
  ret { i64, i64 } %12

bb3:                                              ; preds = %bb4, %bb5
  %13 = bitcast { i8*, i32 }* %0 to i8**
  %14 = load i8*, i8** %13, align 8
  %15 = getelementptr inbounds { i8*, i32 }, { i8*, i32 }* %0, i32 0, i32 1
  %16 = load i32, i32* %15, align 8
  %17 = insertvalue { i8*, i32 } undef, i8* %14, 0
  %18 = insertvalue { i8*, i32 } %17, i32 %16, 1
  resume { i8*, i32 } %18

bb4:                                              ; preds = %bb5
  br label %bb3
}

; <core::ops::range::Range<usize> as core::slice::index::SliceIndex<[T]>>::get_unchecked
; Function Attrs: inlinehint nonlazybind uwtable
define { [0 x i8]*, i64 } @"_ZN106_$LT$core..ops..range..Range$LT$usize$GT$$u20$as$u20$core..slice..index..SliceIndex$LT$$u5b$T$u5d$$GT$$GT$13get_unchecked17h060cfd2b8f8bf0f9E"(i64 %self.0, i64 %self.1, [0 x i8]* %slice.0, i64 %slice.1) unnamed_addr #0 {
start:
  %0 = alloca i8*, align 8
  %runtime = alloca %"[closure@<core::ops::range::Range<usize> as core::slice::index::SliceIndex<[u8]>>::get_unchecked::{closure#0}]", align 8
; call core::ptr::const_ptr::<impl *const [T]>::as_ptr
  %_5 = call i8* @"_ZN4core3ptr9const_ptr43_$LT$impl$u20$$BP$const$u20$$u5b$T$u5d$$GT$6as_ptr17hd58cfd309dc5a254E"([0 x i8]* %slice.0, i64 %slice.1)
  br label %bb1

bb1:                                              ; preds = %start
  %1 = getelementptr inbounds i8, i8* %_5, i64 %self.0
  store i8* %1, i8** %0, align 8
  %2 = load i8*, i8** %0, align 8
  br label %bb2

bb2:                                              ; preds = %bb1
  %_8 = sub i64 %self.1, %self.0
; call core::ptr::slice_from_raw_parts
  %3 = call { [0 x i8]*, i64 } @_ZN4core3ptr20slice_from_raw_parts17he804afec0262035eE(i8* %2, i64 %_8)
  %4 = extractvalue { [0 x i8]*, i64 } %3, 0
  %5 = extractvalue { [0 x i8]*, i64 } %3, 1
  br label %bb3

bb3:                                              ; preds = %bb2
  %6 = insertvalue { [0 x i8]*, i64 } undef, [0 x i8]* %4, 0
  %7 = insertvalue { [0 x i8]*, i64 } %6, i64 %5, 1
  ret { [0 x i8]*, i64 } %7
}

; <core::ops::range::Range<usize> as core::slice::index::SliceIndex<[T]>>::get_unchecked_mut
; Function Attrs: inlinehint nonlazybind uwtable
define { [0 x i8]*, i64 } @"_ZN106_$LT$core..ops..range..Range$LT$usize$GT$$u20$as$u20$core..slice..index..SliceIndex$LT$$u5b$T$u5d$$GT$$GT$17get_unchecked_mut17h1570bbd9c6a35587E"(i64 %self.0, i64 %self.1, [0 x i8]* %slice.0, i64 %slice.1) unnamed_addr #0 {
start:
  %0 = alloca i8*, align 8
  %runtime = alloca %"[closure@<core::ops::range::Range<usize> as core::slice::index::SliceIndex<[core::mem::maybe_uninit::MaybeUninit<u8>]>>::get_unchecked_mut::{closure#0}]", align 8
  %1 = bitcast [0 x i8]* %slice.0 to i8*
  br label %bb1

bb1:                                              ; preds = %start
  %2 = getelementptr inbounds i8, i8* %1, i64 %self.0
  store i8* %2, i8** %0, align 8
  %_3.i = load i8*, i8** %0, align 8
  br label %bb2

bb2:                                              ; preds = %bb1
  %_8 = sub i64 %self.1, %self.0
; call core::ptr::slice_from_raw_parts_mut
  %3 = call { [0 x i8]*, i64 } @_ZN4core3ptr24slice_from_raw_parts_mut17ha9e715d5f5f1ce18E(i8* %_3.i, i64 %_8)
  %4 = extractvalue { [0 x i8]*, i64 } %3, 0
  %5 = extractvalue { [0 x i8]*, i64 } %3, 1
  br label %bb3

bb3:                                              ; preds = %bb2
  %6 = insertvalue { [0 x i8]*, i64 } undef, [0 x i8]* %4, 0
  %7 = insertvalue { [0 x i8]*, i64 } %6, i64 %5, 1
  ret { [0 x i8]*, i64 } %7
}

; <core::ops::range::Range<usize> as core::slice::index::SliceIndex<[T]>>::get_unchecked_mut
; Function Attrs: inlinehint nonlazybind uwtable
define { [0 x i8]*, i64 } @"_ZN106_$LT$core..ops..range..Range$LT$usize$GT$$u20$as$u20$core..slice..index..SliceIndex$LT$$u5b$T$u5d$$GT$$GT$17get_unchecked_mut17h1dbcd93f2021dac9E"(i64 %self.0, i64 %self.1, [0 x i8]* %slice.0, i64 %slice.1) unnamed_addr #0 {
start:
  %0 = alloca i8*, align 8
  %runtime = alloca %"[closure@<core::ops::range::Range<usize> as core::slice::index::SliceIndex<[u8]>>::get_unchecked_mut::{closure#0}]", align 8
  %1 = bitcast [0 x i8]* %slice.0 to i8*
  br label %bb1

bb1:                                              ; preds = %start
  %2 = getelementptr inbounds i8, i8* %1, i64 %self.0
  store i8* %2, i8** %0, align 8
  %_3.i = load i8*, i8** %0, align 8
  br label %bb2

bb2:                                              ; preds = %bb1
  %_8 = sub i64 %self.1, %self.0
; call core::ptr::slice_from_raw_parts_mut
  %3 = call { [0 x i8]*, i64 } @_ZN4core3ptr24slice_from_raw_parts_mut17h899b5789493e1550E(i8* %_3.i, i64 %_8)
  %4 = extractvalue { [0 x i8]*, i64 } %3, 0
  %5 = extractvalue { [0 x i8]*, i64 } %3, 1
  br label %bb3

bb3:                                              ; preds = %bb2
  %6 = insertvalue { [0 x i8]*, i64 } undef, [0 x i8]* %4, 0
  %7 = insertvalue { [0 x i8]*, i64 } %6, i64 %5, 1
  ret { [0 x i8]*, i64 } %7
}

; <core::ops::range::Range<usize> as core::slice::index::SliceIndex<[T]>>::index_mut
; Function Attrs: inlinehint nonlazybind uwtable
define { [0 x i8]*, i64 } @"_ZN106_$LT$core..ops..range..Range$LT$usize$GT$$u20$as$u20$core..slice..index..SliceIndex$LT$$u5b$T$u5d$$GT$$GT$9index_mut17h9c3af7c513b440a4E"(i64 %self.0, i64 %self.1, [0 x i8]* align 1 %slice.0, i64 %slice.1, %"core::panic::location::Location"* align 8 %0) unnamed_addr #0 {
start:
  %_4 = icmp ugt i64 %self.0, %self.1
  br i1 %_4, label %bb1, label %bb2

bb2:                                              ; preds = %start
  %_10 = icmp ugt i64 %self.1, %slice.1
  br i1 %_10, label %bb3, label %bb4

bb1:                                              ; preds = %start
; call core::slice::index::slice_index_order_fail
  call void @_ZN4core5slice5index22slice_index_order_fail17h550c73f3adb5cd24E(i64 %self.0, i64 %self.1, %"core::panic::location::Location"* align 8 %0) #16
  unreachable

bb4:                                              ; preds = %bb2
; call <core::ops::range::Range<usize> as core::slice::index::SliceIndex<[T]>>::get_unchecked_mut
  %1 = call { [0 x i8]*, i64 } @"_ZN106_$LT$core..ops..range..Range$LT$usize$GT$$u20$as$u20$core..slice..index..SliceIndex$LT$$u5b$T$u5d$$GT$$GT$17get_unchecked_mut17h1dbcd93f2021dac9E"(i64 %self.0, i64 %self.1, [0 x i8]* %slice.0, i64 %slice.1)
  %_20.0 = extractvalue { [0 x i8]*, i64 } %1, 0
  %_20.1 = extractvalue { [0 x i8]*, i64 } %1, 1
  br label %bb5

bb3:                                              ; preds = %bb2
; call core::slice::index::slice_end_index_len_fail
  call void @_ZN4core5slice5index24slice_end_index_len_fail17haf0079bd512d9735E(i64 %self.1, i64 %slice.1, %"core::panic::location::Location"* align 8 %0) #16
  unreachable

bb5:                                              ; preds = %bb4
  %2 = insertvalue { [0 x i8]*, i64 } undef, [0 x i8]* %_20.0, 0
  %3 = insertvalue { [0 x i8]*, i64 } %2, i64 %_20.1, 1
  ret { [0 x i8]*, i64 } %3
}

; <core::ops::range::RangeTo<usize> as core::slice::index::SliceIndex<[T]>>::get_unchecked_mut
; Function Attrs: inlinehint nonlazybind uwtable
define { [0 x i8]*, i64 } @"_ZN108_$LT$core..ops..range..RangeTo$LT$usize$GT$$u20$as$u20$core..slice..index..SliceIndex$LT$$u5b$T$u5d$$GT$$GT$17get_unchecked_mut17h510b6e60c0fce059E"(i64 %self, [0 x i8]* %slice.0, i64 %slice.1) unnamed_addr #0 {
start:
  %_3 = alloca { i64, i64 }, align 8
  %0 = bitcast { i64, i64 }* %_3 to i64*
  store i64 0, i64* %0, align 8
  %1 = getelementptr inbounds { i64, i64 }, { i64, i64 }* %_3, i32 0, i32 1
  store i64 %self, i64* %1, align 8
  %2 = getelementptr inbounds { i64, i64 }, { i64, i64 }* %_3, i32 0, i32 0
  %3 = load i64, i64* %2, align 8
  %4 = getelementptr inbounds { i64, i64 }, { i64, i64 }* %_3, i32 0, i32 1
  %5 = load i64, i64* %4, align 8
; call <core::ops::range::Range<usize> as core::slice::index::SliceIndex<[T]>>::get_unchecked_mut
  %6 = call { [0 x i8]*, i64 } @"_ZN106_$LT$core..ops..range..Range$LT$usize$GT$$u20$as$u20$core..slice..index..SliceIndex$LT$$u5b$T$u5d$$GT$$GT$17get_unchecked_mut17h1570bbd9c6a35587E"(i64 %3, i64 %5, [0 x i8]* %slice.0, i64 %slice.1)
  %7 = extractvalue { [0 x i8]*, i64 } %6, 0
  %8 = extractvalue { [0 x i8]*, i64 } %6, 1
  br label %bb1

bb1:                                              ; preds = %start
  %9 = insertvalue { [0 x i8]*, i64 } undef, [0 x i8]* %7, 0
  %10 = insertvalue { [0 x i8]*, i64 } %9, i64 %8, 1
  ret { [0 x i8]*, i64 } %10
}

; <core::ops::range::RangeTo<usize> as core::slice::index::SliceIndex<[T]>>::index_mut
; Function Attrs: inlinehint nonlazybind uwtable
define { [0 x i8]*, i64 } @"_ZN108_$LT$core..ops..range..RangeTo$LT$usize$GT$$u20$as$u20$core..slice..index..SliceIndex$LT$$u5b$T$u5d$$GT$$GT$9index_mut17h4227a535bf8711b0E"(i64 %self, [0 x i8]* align 1 %slice.0, i64 %slice.1, %"core::panic::location::Location"* align 8 %0) unnamed_addr #0 {
start:
  %_5 = alloca { i64, i64 }, align 8
  %1 = bitcast { i64, i64 }* %_5 to i64*
  store i64 0, i64* %1, align 8
  %2 = getelementptr inbounds { i64, i64 }, { i64, i64 }* %_5, i32 0, i32 1
  store i64 %self, i64* %2, align 8
  %3 = getelementptr inbounds { i64, i64 }, { i64, i64 }* %_5, i32 0, i32 0
  %4 = load i64, i64* %3, align 8
  %5 = getelementptr inbounds { i64, i64 }, { i64, i64 }* %_5, i32 0, i32 1
  %6 = load i64, i64* %5, align 8
; call <core::ops::range::Range<usize> as core::slice::index::SliceIndex<[T]>>::index_mut
  %7 = call { [0 x i8]*, i64 } @"_ZN106_$LT$core..ops..range..Range$LT$usize$GT$$u20$as$u20$core..slice..index..SliceIndex$LT$$u5b$T$u5d$$GT$$GT$9index_mut17h9c3af7c513b440a4E"(i64 %4, i64 %6, [0 x i8]* align 1 %slice.0, i64 %slice.1, %"core::panic::location::Location"* align 8 %0)
  %_4.0 = extractvalue { [0 x i8]*, i64 } %7, 0
  %_4.1 = extractvalue { [0 x i8]*, i64 } %7, 1
  br label %bb1

bb1:                                              ; preds = %start
  %8 = insertvalue { [0 x i8]*, i64 } undef, [0 x i8]* %_4.0, 0
  %9 = insertvalue { [0 x i8]*, i64 } %8, i64 %_4.1, 1
  ret { [0 x i8]*, i64 } %9
}

; <core::ops::range::RangeFrom<usize> as core::slice::index::SliceIndex<[T]>>::get_unchecked
; Function Attrs: inlinehint nonlazybind uwtable
define { [0 x i8]*, i64 } @"_ZN110_$LT$core..ops..range..RangeFrom$LT$usize$GT$$u20$as$u20$core..slice..index..SliceIndex$LT$$u5b$T$u5d$$GT$$GT$13get_unchecked17h7e529af2272ac3f2E"(i64 %self, [0 x i8]* %slice.0, i64 %slice.1) unnamed_addr #0 {
start:
  %_3 = alloca { i64, i64 }, align 8
; call core::ptr::const_ptr::<impl *const [T]>::len
  %_5 = call i64 @"_ZN4core3ptr9const_ptr43_$LT$impl$u20$$BP$const$u20$$u5b$T$u5d$$GT$3len17hd7ef5f947e4a64edE"([0 x i8]* %slice.0, i64 %slice.1)
  br label %bb1

bb1:                                              ; preds = %start
  %0 = bitcast { i64, i64 }* %_3 to i64*
  store i64 %self, i64* %0, align 8
  %1 = getelementptr inbounds { i64, i64 }, { i64, i64 }* %_3, i32 0, i32 1
  store i64 %_5, i64* %1, align 8
  %2 = getelementptr inbounds { i64, i64 }, { i64, i64 }* %_3, i32 0, i32 0
  %3 = load i64, i64* %2, align 8
  %4 = getelementptr inbounds { i64, i64 }, { i64, i64 }* %_3, i32 0, i32 1
  %5 = load i64, i64* %4, align 8
; call <core::ops::range::Range<usize> as core::slice::index::SliceIndex<[T]>>::get_unchecked
  %6 = call { [0 x i8]*, i64 } @"_ZN106_$LT$core..ops..range..Range$LT$usize$GT$$u20$as$u20$core..slice..index..SliceIndex$LT$$u5b$T$u5d$$GT$$GT$13get_unchecked17h060cfd2b8f8bf0f9E"(i64 %3, i64 %5, [0 x i8]* %slice.0, i64 %slice.1)
  %7 = extractvalue { [0 x i8]*, i64 } %6, 0
  %8 = extractvalue { [0 x i8]*, i64 } %6, 1
  br label %bb2

bb2:                                              ; preds = %bb1
  %9 = insertvalue { [0 x i8]*, i64 } undef, [0 x i8]* %7, 0
  %10 = insertvalue { [0 x i8]*, i64 } %9, i64 %8, 1
  ret { [0 x i8]*, i64 } %10
}

; <core::ops::range::RangeFrom<usize> as core::slice::index::SliceIndex<[T]>>::index
; Function Attrs: inlinehint nonlazybind uwtable
define { [0 x i8]*, i64 } @"_ZN110_$LT$core..ops..range..RangeFrom$LT$usize$GT$$u20$as$u20$core..slice..index..SliceIndex$LT$$u5b$T$u5d$$GT$$GT$5index17hf39f8fea8c7a2862E"(i64 %self, [0 x i8]* align 1 %slice.0, i64 %slice.1, %"core::panic::location::Location"* align 8 %0) unnamed_addr #0 {
start:
  %_3 = icmp ugt i64 %self, %slice.1
  br i1 %_3, label %bb1, label %bb2

bb2:                                              ; preds = %start
; call <core::ops::range::RangeFrom<usize> as core::slice::index::SliceIndex<[T]>>::get_unchecked
  %1 = call { [0 x i8]*, i64 } @"_ZN110_$LT$core..ops..range..RangeFrom$LT$usize$GT$$u20$as$u20$core..slice..index..SliceIndex$LT$$u5b$T$u5d$$GT$$GT$13get_unchecked17h7e529af2272ac3f2E"(i64 %self, [0 x i8]* %slice.0, i64 %slice.1)
  %_11.0 = extractvalue { [0 x i8]*, i64 } %1, 0
  %_11.1 = extractvalue { [0 x i8]*, i64 } %1, 1
  br label %bb3

bb1:                                              ; preds = %start
; call core::slice::index::slice_start_index_len_fail
  call void @_ZN4core5slice5index26slice_start_index_len_fail17h06f2a0f4777a1797E(i64 %self, i64 %slice.1, %"core::panic::location::Location"* align 8 %0) #16
  unreachable

bb3:                                              ; preds = %bb2
  %2 = insertvalue { [0 x i8]*, i64 } undef, [0 x i8]* %_11.0, 0
  %3 = insertvalue { [0 x i8]*, i64 } %2, i64 %_11.1, 1
  ret { [0 x i8]*, i64 } %3
}

; <alloc::vec::Vec<T> as alloc::vec::spec_from_iter_nested::SpecFromIterNested<T,I>>::from_iter
; Function Attrs: nonlazybind uwtable
define void @"_ZN111_$LT$alloc..vec..Vec$LT$T$GT$$u20$as$u20$alloc..vec..spec_from_iter_nested..SpecFromIterNested$LT$T$C$I$GT$$GT$9from_iter17h4c773666d88b70bcE"(%"alloc::vec::Vec<&str>"* sret(%"alloc::vec::Vec<&str>") %0, %"core::str::iter::Split<&str>"* %iterator) unnamed_addr #1 personality i32 (i32, i32, i64, %"unwind::libunwind::_Unwind_Exception"*, %"unwind::libunwind::_Unwind_Context"*)* @rust_eh_personality {
start:
  %1 = alloca i64, align 8
  %2 = alloca { i8*, i32 }, align 8
  %_26 = alloca i8, align 1
  %_25 = alloca i8, align 1
  %_24 = alloca %"core::str::iter::Split<&str>", align 8
  %vector1 = alloca %"alloc::vec::Vec<&str>", align 8
  %_8 = alloca { i64, { i64, i64 } }, align 8
  %_3 = alloca { i8*, i64 }, align 8
  %vector = alloca %"alloc::vec::Vec<&str>", align 8
  store i8 1, i8* %_26, align 1
; invoke <core::str::iter::Split<P> as core::iter::traits::iterator::Iterator>::next
  %3 = invoke { i8*, i64 } @"_ZN90_$LT$core..str..iter..Split$LT$P$GT$$u20$as$u20$core..iter..traits..iterator..Iterator$GT$4next17hf96ea85dee7c4f28E"(%"core::str::iter::Split<&str>"* align 8 %iterator)
          to label %bb1 unwind label %cleanup

bb21:                                             ; preds = %bb15, %bb18, %bb19, %cleanup
  %4 = load i8, i8* %_26, align 1, !range !2, !noundef !3
  %5 = trunc i8 %4 to i1
  br i1 %5, label %bb20, label %bb17

cleanup:                                          ; preds = %bb4, %start
  %6 = landingpad { i8*, i32 }
          cleanup
  %7 = extractvalue { i8*, i32 } %6, 0
  %8 = extractvalue { i8*, i32 } %6, 1
  %9 = getelementptr inbounds { i8*, i32 }, { i8*, i32 }* %2, i32 0, i32 0
  store i8* %7, i8** %9, align 8
  %10 = getelementptr inbounds { i8*, i32 }, { i8*, i32 }* %2, i32 0, i32 1
  store i32 %8, i32* %10, align 8
  br label %bb21

bb1:                                              ; preds = %start
  store { i8*, i64 } %3, { i8*, i64 }* %_3, align 8
  %11 = bitcast { i8*, i64 }* %_3 to {}**
  %12 = load {}*, {}** %11, align 8
  %13 = icmp eq {}* %12, null
  %_5 = select i1 %13, i64 0, i64 1
  switch i64 %_5, label %bb3 [
    i64 0, label %bb4
    i64 1, label %bb2
  ]

bb3:                                              ; preds = %bb1
  unreachable

bb4:                                              ; preds = %bb1
; invoke alloc::vec::Vec<T>::new
  invoke void @"_ZN5alloc3vec12Vec$LT$T$GT$3new17hbcec205d23fa69faE"(%"alloc::vec::Vec<&str>"* sret(%"alloc::vec::Vec<&str>") %0)
          to label %bb13 unwind label %cleanup

bb2:                                              ; preds = %bb1
  store i8 1, i8* %_25, align 1
  %14 = bitcast { i8*, i64 }* %_3 to { [0 x i8]*, i64 }*
  %15 = getelementptr inbounds { [0 x i8]*, i64 }, { [0 x i8]*, i64 }* %14, i32 0, i32 0
  %element.0 = load [0 x i8]*, [0 x i8]** %15, align 8, !nonnull !3, !align !4, !noundef !3
  %16 = getelementptr inbounds { [0 x i8]*, i64 }, { [0 x i8]*, i64 }* %14, i32 0, i32 1
  %element.1 = load i64, i64* %16, align 8
; invoke core::iter::traits::iterator::Iterator::size_hint
  invoke void @_ZN4core4iter6traits8iterator8Iterator9size_hint17h5a0d6300c820b1a6E({ i64, { i64, i64 } }* sret({ i64, { i64, i64 } }) %_8, %"core::str::iter::Split<&str>"* align 8 %iterator)
          to label %bb5 unwind label %cleanup2

bb19:                                             ; preds = %bb16, %cleanup2
  %17 = load i8, i8* %_25, align 1, !range !2, !noundef !3
  %18 = trunc i8 %17 to i1
  br i1 %18, label %bb18, label %bb21

cleanup2:                                         ; preds = %bb7, %bb6, %bb2
  %19 = landingpad { i8*, i32 }
          cleanup
  %20 = extractvalue { i8*, i32 } %19, 0
  %21 = extractvalue { i8*, i32 } %19, 1
  %22 = getelementptr inbounds { i8*, i32 }, { i8*, i32 }* %2, i32 0, i32 0
  store i8* %20, i8** %22, align 8
  %23 = getelementptr inbounds { i8*, i32 }, { i8*, i32 }* %2, i32 0, i32 1
  store i32 %21, i32* %23, align 8
  br label %bb19

bb5:                                              ; preds = %bb2
  %24 = bitcast { i64, { i64, i64 } }* %_8 to i64*
  %lower = load i64, i64* %24, align 8
  %25 = call i64 @llvm.uadd.sat.i64(i64 %lower, i64 1)
  store i64 %25, i64* %1, align 8
  %26 = load i64, i64* %1, align 8
  br label %bb6

bb6:                                              ; preds = %bb5
; invoke core::cmp::max
  %initial_capacity = invoke i64 @_ZN4core3cmp3max17h4bf4c75e9e56bd50E(i64 4, i64 %26)
          to label %bb7 unwind label %cleanup2

bb7:                                              ; preds = %bb6
; invoke alloc::vec::Vec<T>::with_capacity
  invoke void @"_ZN5alloc3vec12Vec$LT$T$GT$13with_capacity17h67ed10aeff11f1acE"(%"alloc::vec::Vec<&str>"* sret(%"alloc::vec::Vec<&str>") %vector1, i64 %initial_capacity)
          to label %bb8 unwind label %cleanup2

bb8:                                              ; preds = %bb7
; invoke alloc::vec::Vec<T,A>::as_mut_ptr
  %_16 = invoke { [0 x i8]*, i64 }* @"_ZN5alloc3vec16Vec$LT$T$C$A$GT$10as_mut_ptr17h197f6d120c9fd40bE"(%"alloc::vec::Vec<&str>"* align 8 %vector1)
          to label %bb9 unwind label %cleanup3

bb16:                                             ; preds = %cleanup3
; invoke core::ptr::drop_in_place<alloc::vec::Vec<&str>>
  invoke void @"_ZN4core3ptr51drop_in_place$LT$alloc..vec..Vec$LT$$RF$str$GT$$GT$17hb406b4f70dcf6f14E"(%"alloc::vec::Vec<&str>"* %vector1) #17
          to label %bb19 unwind label %abort

cleanup3:                                         ; preds = %bb10, %bb9, %bb8
  %27 = landingpad { i8*, i32 }
          cleanup
  %28 = extractvalue { i8*, i32 } %27, 0
  %29 = extractvalue { i8*, i32 } %27, 1
  %30 = getelementptr inbounds { i8*, i32 }, { i8*, i32 }* %2, i32 0, i32 0
  store i8* %28, i8** %30, align 8
  %31 = getelementptr inbounds { i8*, i32 }, { i8*, i32 }* %2, i32 0, i32 1
  store i32 %29, i32* %31, align 8
  br label %bb16

bb9:                                              ; preds = %bb8
  store i8 0, i8* %_25, align 1
; invoke core::ptr::write
  invoke void @_ZN4core3ptr5write17h99d4dee62def0415E({ [0 x i8]*, i64 }* %_16, [0 x i8]* align 1 %element.0, i64 %element.1)
          to label %bb10 unwind label %cleanup3

bb10:                                             ; preds = %bb9
; invoke alloc::vec::Vec<T,A>::set_len
  invoke void @"_ZN5alloc3vec16Vec$LT$T$C$A$GT$7set_len17h5576cbaa08133531E"(%"alloc::vec::Vec<&str>"* align 8 %vector1, i64 1)
          to label %bb11 unwind label %cleanup3

bb11:                                             ; preds = %bb10
  %32 = bitcast %"alloc::vec::Vec<&str>"* %vector to i8*
  %33 = bitcast %"alloc::vec::Vec<&str>"* %vector1 to i8*
  call void @llvm.memcpy.p0i8.p0i8.i64(i8* align 8 %32, i8* align 8 %33, i64 24, i1 false)
  store i8 0, i8* %_26, align 1
  %34 = bitcast %"core::str::iter::Split<&str>"* %_24 to i8*
  %35 = bitcast %"core::str::iter::Split<&str>"* %iterator to i8*
  call void @llvm.memcpy.p0i8.p0i8.i64(i8* align 8 %34, i8* align 8 %35, i64 128, i1 false)
; invoke <alloc::vec::Vec<T,A> as alloc::vec::spec_extend::SpecExtend<T,I>>::spec_extend
  invoke void @"_ZN97_$LT$alloc..vec..Vec$LT$T$C$A$GT$$u20$as$u20$alloc..vec..spec_extend..SpecExtend$LT$T$C$I$GT$$GT$11spec_extend17h6a707b43e076b3a3E"(%"alloc::vec::Vec<&str>"* align 8 %vector, %"core::str::iter::Split<&str>"* %_24)
          to label %bb12 unwind label %cleanup4

abort:                                            ; preds = %bb15, %bb16
  %36 = landingpad { i8*, i32 }
          cleanup
; call core::panicking::panic_no_unwind
  call void @_ZN4core9panicking15panic_no_unwind17h25931e178d980d9cE() #18
  unreachable

bb18:                                             ; preds = %bb19
  br label %bb21

bb15:                                             ; preds = %cleanup4
; invoke core::ptr::drop_in_place<alloc::vec::Vec<&str>>
  invoke void @"_ZN4core3ptr51drop_in_place$LT$alloc..vec..Vec$LT$$RF$str$GT$$GT$17hb406b4f70dcf6f14E"(%"alloc::vec::Vec<&str>"* %vector) #17
          to label %bb21 unwind label %abort

cleanup4:                                         ; preds = %bb11
  %37 = landingpad { i8*, i32 }
          cleanup
  %38 = extractvalue { i8*, i32 } %37, 0
  %39 = extractvalue { i8*, i32 } %37, 1
  %40 = getelementptr inbounds { i8*, i32 }, { i8*, i32 }* %2, i32 0, i32 0
  store i8* %38, i8** %40, align 8
  %41 = getelementptr inbounds { i8*, i32 }, { i8*, i32 }* %2, i32 0, i32 1
  store i32 %39, i32* %41, align 8
  br label %bb15

bb12:                                             ; preds = %bb11
  %42 = bitcast %"alloc::vec::Vec<&str>"* %0 to i8*
  %43 = bitcast %"alloc::vec::Vec<&str>"* %vector to i8*
  call void @llvm.memcpy.p0i8.p0i8.i64(i8* align 8 %42, i8* align 8 %43, i64 24, i1 false)
  br label %bb14

bb14:                                             ; preds = %bb13, %bb12
  ret void

bb13:                                             ; preds = %bb4
  br label %bb14

bb17:                                             ; preds = %bb20, %bb21
  %44 = bitcast { i8*, i32 }* %2 to i8**
  %45 = load i8*, i8** %44, align 8
  %46 = getelementptr inbounds { i8*, i32 }, { i8*, i32 }* %2, i32 0, i32 1
  %47 = load i32, i32* %46, align 8
  %48 = insertvalue { i8*, i32 } undef, i8* %45, 0
  %49 = insertvalue { i8*, i32 } %48, i32 %47, 1
  resume { i8*, i32 } %49

bb20:                                             ; preds = %bb21
  br label %bb17
}

; <core::ptr::non_null::NonNull<T> as core::convert::From<core::ptr::unique::Unique<T>>>::from
; Function Attrs: inlinehint nonlazybind uwtable
define i8* @"_ZN119_$LT$core..ptr..non_null..NonNull$LT$T$GT$$u20$as$u20$core..convert..From$LT$core..ptr..unique..Unique$LT$T$GT$$GT$$GT$4from17h4725f0854164ead4E"(i8* %unique) unnamed_addr #0 {
start:
; call core::ptr::unique::Unique<T>::as_ptr
  %_2 = call i8* @"_ZN4core3ptr6unique15Unique$LT$T$GT$6as_ptr17h051062658672e4a5E"(i8* %unique)
  br label %bb1

bb1:                                              ; preds = %start
; call core::ptr::non_null::NonNull<T>::new_unchecked
  %0 = call i8* @"_ZN4core3ptr8non_null16NonNull$LT$T$GT$13new_unchecked17h067a576a00600763E"(i8* %_2)
  br label %bb2

bb2:                                              ; preds = %bb1
  ret i8* %0
}

; <core::ptr::unique::Unique<T> as core::convert::From<core::ptr::non_null::NonNull<T>>>::from
; Function Attrs: inlinehint nonlazybind uwtable
define i8* @"_ZN119_$LT$core..ptr..unique..Unique$LT$T$GT$$u20$as$u20$core..convert..From$LT$core..ptr..non_null..NonNull$LT$T$GT$$GT$$GT$4from17h173a8eb22b73bb4fE"(i8* %pointer) unnamed_addr #0 {
start:
  %0 = alloca i8*, align 8
  store i8* %pointer, i8** %0, align 8
  %1 = load i8*, i8** %0, align 8, !nonnull !3, !noundef !3
  ret i8* %1
}

; <core::ptr::unique::Unique<T> as core::convert::From<core::ptr::non_null::NonNull<T>>>::from
; Function Attrs: inlinehint nonlazybind uwtable
define i64* @"_ZN119_$LT$core..ptr..unique..Unique$LT$T$GT$$u20$as$u20$core..convert..From$LT$core..ptr..non_null..NonNull$LT$T$GT$$GT$$GT$4from17h2de1272d8a168fceE"(i64* %pointer) unnamed_addr #0 {
start:
  %0 = alloca i64*, align 8
  store i64* %pointer, i64** %0, align 8
  %1 = load i64*, i64** %0, align 8, !nonnull !3, !noundef !3
  ret i64* %1
}

; <alloc::collections::TryReserveError as core::convert::From<alloc::collections::TryReserveErrorKind>>::from
; Function Attrs: inlinehint nonlazybind uwtable
define internal { i64, i64 } @"_ZN122_$LT$alloc..collections..TryReserveError$u20$as$u20$core..convert..From$LT$alloc..collections..TryReserveErrorKind$GT$$GT$4from17h4ec2a546377b354fE"(i64 %kind.0, i64 %kind.1) unnamed_addr #0 {
start:
  %0 = alloca { i64, i64 }, align 8
  %1 = getelementptr inbounds { i64, i64 }, { i64, i64 }* %0, i32 0, i32 0
  store i64 %kind.0, i64* %1, align 8
  %2 = getelementptr inbounds { i64, i64 }, { i64, i64 }* %0, i32 0, i32 1
  store i64 %kind.1, i64* %2, align 8
  %3 = getelementptr inbounds { i64, i64 }, { i64, i64 }* %0, i32 0, i32 0
  %4 = load i64, i64* %3, align 8
  %5 = getelementptr inbounds { i64, i64 }, { i64, i64 }* %0, i32 0, i32 1
  %6 = load i64, i64* %5, align 8, !range !5, !noundef !3
  %7 = insertvalue { i64, i64 } undef, i64 %4, 0
  %8 = insertvalue { i64, i64 } %7, i64 %6, 1
  ret { i64, i64 } %8
}

; <alloc::vec::Vec<T,A> as alloc::vec::spec_extend::SpecExtend<&T,core::slice::iter::Iter<T>>>::spec_extend
; Function Attrs: nonlazybind uwtable
define void @"_ZN132_$LT$alloc..vec..Vec$LT$T$C$A$GT$$u20$as$u20$alloc..vec..spec_extend..SpecExtend$LT$$RF$T$C$core..slice..iter..Iter$LT$T$GT$$GT$$GT$11spec_extend17h0ed7dfebe6849a3eE"(%"alloc::vec::Vec<u8>"* align 8 %self, i8* %0, i8* %1) unnamed_addr #1 {
start:
  %iterator = alloca { i8*, i8* }, align 8
  %2 = getelementptr inbounds { i8*, i8* }, { i8*, i8* }* %iterator, i32 0, i32 0
  store i8* %0, i8** %2, align 8
  %3 = getelementptr inbounds { i8*, i8* }, { i8*, i8* }* %iterator, i32 0, i32 1
  store i8* %1, i8** %3, align 8
; call core::slice::iter::Iter<T>::as_slice
  %4 = call { [0 x i8]*, i64 } @"_ZN4core5slice4iter13Iter$LT$T$GT$8as_slice17ha9ea2fd6b8f1b850E"({ i8*, i8* }* align 8 %iterator)
  %slice.0 = extractvalue { [0 x i8]*, i64 } %4, 0
  %slice.1 = extractvalue { [0 x i8]*, i64 } %4, 1
  br label %bb1

bb1:                                              ; preds = %start
; call alloc::vec::Vec<T,A>::append_elements
  call void @"_ZN5alloc3vec16Vec$LT$T$C$A$GT$15append_elements17hb12f1c001b5e5bd2E"(%"alloc::vec::Vec<u8>"* align 8 %self, [0 x i8]* %slice.0, i64 %slice.1)
  br label %bb2

bb2:                                              ; preds = %bb1
  ret void
}

; <core::result::Result<T,F> as core::ops::try_trait::FromResidual<core::result::Result<core::convert::Infallible,E>>>::from_residual
; Function Attrs: inlinehint nonlazybind uwtable
define { i64, i64 } @"_ZN153_$LT$core..result..Result$LT$T$C$F$GT$$u20$as$u20$core..ops..try_trait..FromResidual$LT$core..result..Result$LT$core..convert..Infallible$C$E$GT$$GT$$GT$13from_residual17h12550c67f1637bd4E"(i64 %0, i64 %1, %"core::panic::location::Location"* align 8 %2) unnamed_addr #0 {
start:
  %3 = alloca { i64, i64 }, align 8
  %residual = alloca { i64, i64 }, align 8
  %4 = getelementptr inbounds { i64, i64 }, { i64, i64 }* %residual, i32 0, i32 0
  store i64 %0, i64* %4, align 8
  %5 = getelementptr inbounds { i64, i64 }, { i64, i64 }* %residual, i32 0, i32 1
  store i64 %1, i64* %5, align 8
  %6 = getelementptr inbounds { i64, i64 }, { i64, i64 }* %residual, i32 0, i32 0
  %e.0 = load i64, i64* %6, align 8
  %7 = getelementptr inbounds { i64, i64 }, { i64, i64 }* %residual, i32 0, i32 1
  %e.1 = load i64, i64* %7, align 8, !range !5, !noundef !3
; call <T as core::convert::From<T>>::from
  %8 = call { i64, i64 } @"_ZN50_$LT$T$u20$as$u20$core..convert..From$LT$T$GT$$GT$4from17hd2fdbaf5456dcc2cE"(i64 %e.0, i64 %e.1)
  %_3.0 = extractvalue { i64, i64 } %8, 0
  %_3.1 = extractvalue { i64, i64 } %8, 1
  br label %bb1

bb1:                                              ; preds = %start
  %9 = getelementptr inbounds { i64, i64 }, { i64, i64 }* %3, i32 0, i32 0
  store i64 %_3.0, i64* %9, align 8
  %10 = getelementptr inbounds { i64, i64 }, { i64, i64 }* %3, i32 0, i32 1
  store i64 %_3.1, i64* %10, align 8
  %11 = getelementptr inbounds { i64, i64 }, { i64, i64 }* %3, i32 0, i32 0
  %12 = load i64, i64* %11, align 8
  %13 = getelementptr inbounds { i64, i64 }, { i64, i64 }* %3, i32 0, i32 1
  %14 = load i64, i64* %13, align 8, !range !6, !noundef !3
  %15 = insertvalue { i64, i64 } undef, i64 %12, 0
  %16 = insertvalue { i64, i64 } %15, i64 %14, 1
  ret { i64, i64 } %16
}

; <core::result::Result<T,F> as core::ops::try_trait::FromResidual<core::result::Result<core::convert::Infallible,E>>>::from_residual
; Function Attrs: inlinehint nonlazybind uwtable
define void @"_ZN153_$LT$core..result..Result$LT$T$C$F$GT$$u20$as$u20$core..ops..try_trait..FromResidual$LT$core..result..Result$LT$core..convert..Infallible$C$E$GT$$GT$$GT$13from_residual17h1ae2b7e1477cb71cE"(%"core::result::Result<core::ptr::non_null::NonNull<[u8]>, alloc::collections::TryReserveError>"* sret(%"core::result::Result<core::ptr::non_null::NonNull<[u8]>, alloc::collections::TryReserveError>") %0, i64 %1, i64 %2, %"core::panic::location::Location"* align 8 %3) unnamed_addr #0 {
start:
  %residual = alloca { i64, i64 }, align 8
  %4 = getelementptr inbounds { i64, i64 }, { i64, i64 }* %residual, i32 0, i32 0
  store i64 %1, i64* %4, align 8
  %5 = getelementptr inbounds { i64, i64 }, { i64, i64 }* %residual, i32 0, i32 1
  store i64 %2, i64* %5, align 8
  %6 = getelementptr inbounds { i64, i64 }, { i64, i64 }* %residual, i32 0, i32 0
  %e.0 = load i64, i64* %6, align 8
  %7 = getelementptr inbounds { i64, i64 }, { i64, i64 }* %residual, i32 0, i32 1
  %e.1 = load i64, i64* %7, align 8, !range !5, !noundef !3
; call <alloc::collections::TryReserveError as core::convert::From<alloc::collections::TryReserveErrorKind>>::from
  %8 = call { i64, i64 } @"_ZN122_$LT$alloc..collections..TryReserveError$u20$as$u20$core..convert..From$LT$alloc..collections..TryReserveErrorKind$GT$$GT$4from17h4ec2a546377b354fE"(i64 %e.0, i64 %e.1)
  %_3.0 = extractvalue { i64, i64 } %8, 0
  %_3.1 = extractvalue { i64, i64 } %8, 1
  br label %bb1

bb1:                                              ; preds = %start
  %9 = bitcast %"core::result::Result<core::ptr::non_null::NonNull<[u8]>, alloc::collections::TryReserveError>"* %0 to %"core::result::Result<core::ptr::non_null::NonNull<[u8]>, alloc::collections::TryReserveError>::Err"*
  %10 = getelementptr inbounds %"core::result::Result<core::ptr::non_null::NonNull<[u8]>, alloc::collections::TryReserveError>::Err", %"core::result::Result<core::ptr::non_null::NonNull<[u8]>, alloc::collections::TryReserveError>::Err"* %9, i32 0, i32 1
  %11 = getelementptr inbounds { i64, i64 }, { i64, i64 }* %10, i32 0, i32 0
  store i64 %_3.0, i64* %11, align 8
  %12 = getelementptr inbounds { i64, i64 }, { i64, i64 }* %10, i32 0, i32 1
  store i64 %_3.1, i64* %12, align 8
  %13 = bitcast %"core::result::Result<core::ptr::non_null::NonNull<[u8]>, alloc::collections::TryReserveError>"* %0 to i64*
  store i64 1, i64* %13, align 8
  ret void
}

; <core::result::Result<T,F> as core::ops::try_trait::FromResidual<core::result::Result<core::convert::Infallible,E>>>::from_residual
; Function Attrs: inlinehint nonlazybind uwtable
define { i8*, i64 } @"_ZN153_$LT$core..result..Result$LT$T$C$F$GT$$u20$as$u20$core..ops..try_trait..FromResidual$LT$core..result..Result$LT$core..convert..Infallible$C$E$GT$$GT$$GT$13from_residual17h2d7ed7d383fed839E"(%"core::panic::location::Location"* align 8 %0) unnamed_addr #0 {
start:
  %1 = alloca { i8*, i64 }, align 8
; call <T as core::convert::From<T>>::from
  call void @"_ZN50_$LT$T$u20$as$u20$core..convert..From$LT$T$GT$$GT$4from17h86ee170481628c12E"()
  br label %bb1

bb1:                                              ; preds = %start
  %2 = bitcast { i8*, i64 }* %1 to %"core::result::Result<core::ptr::non_null::NonNull<[u8]>, core::alloc::AllocError>::Err"*
  %3 = bitcast %"core::result::Result<core::ptr::non_null::NonNull<[u8]>, core::alloc::AllocError>::Err"* %2 to %"core::alloc::AllocError"*
  %4 = bitcast { i8*, i64 }* %1 to {}**
  store {}* null, {}** %4, align 8
  %5 = getelementptr inbounds { i8*, i64 }, { i8*, i64 }* %1, i32 0, i32 0
  %6 = load i8*, i8** %5, align 8
  %7 = getelementptr inbounds { i8*, i64 }, { i8*, i64 }* %1, i32 0, i32 1
  %8 = load i64, i64* %7, align 8
  %9 = insertvalue { i8*, i64 } undef, i8* %6, 0
  %10 = insertvalue { i8*, i64 } %9, i64 %8, 1
  ret { i8*, i64 } %10
}

; <core::result::Result<T,F> as core::ops::try_trait::FromResidual<core::result::Result<core::convert::Infallible,E>>>::from_residual
; Function Attrs: inlinehint nonlazybind uwtable
define zeroext i1 @"_ZN153_$LT$core..result..Result$LT$T$C$F$GT$$u20$as$u20$core..ops..try_trait..FromResidual$LT$core..result..Result$LT$core..convert..Infallible$C$E$GT$$GT$$GT$13from_residual17h61bd8778b8fa1757E"(%"core::panic::location::Location"* align 8 %0) unnamed_addr #0 {
start:
  %1 = alloca i8, align 1
; call <T as core::convert::From<T>>::from
  call void @"_ZN50_$LT$T$u20$as$u20$core..convert..From$LT$T$GT$$GT$4from17hb5cb9745d6b3d002E"()
  br label %bb1

bb1:                                              ; preds = %start
  %2 = getelementptr i8, i8* %1, i64 1
  %3 = bitcast i8* %2 to %"std::thread::local::AccessError"*
  store i8 1, i8* %1, align 1
  %4 = load i8, i8* %1, align 1, !range !2, !noundef !3
  %5 = trunc i8 %4 to i1
  ret i1 %5
}

; <core::result::Result<T,F> as core::ops::try_trait::FromResidual<core::result::Result<core::convert::Infallible,E>>>::from_residual
; Function Attrs: inlinehint nonlazybind uwtable
define { i64, i64 } @"_ZN153_$LT$core..result..Result$LT$T$C$F$GT$$u20$as$u20$core..ops..try_trait..FromResidual$LT$core..result..Result$LT$core..convert..Infallible$C$E$GT$$GT$$GT$13from_residual17h83964b414e5103b7E"(%"core::panic::location::Location"* align 8 %0) unnamed_addr #0 {
start:
  %1 = alloca { i64, i64 }, align 8
; call <T as core::convert::From<T>>::from
  call void @"_ZN50_$LT$T$u20$as$u20$core..convert..From$LT$T$GT$$GT$4from17h84aa608d90102d00E"()
  br label %bb1

bb1:                                              ; preds = %start
  %2 = bitcast { i64, i64 }* %1 to %"core::result::Result<core::alloc::layout::Layout, core::alloc::layout::LayoutError>::Err"*
  %3 = bitcast %"core::result::Result<core::alloc::layout::Layout, core::alloc::layout::LayoutError>::Err"* %2 to %"core::alloc::layout::LayoutError"*
  %4 = getelementptr inbounds { i64, i64 }, { i64, i64 }* %1, i32 0, i32 1
  store i64 0, i64* %4, align 8
  %5 = getelementptr inbounds { i64, i64 }, { i64, i64 }* %1, i32 0, i32 0
  %6 = load i64, i64* %5, align 8
  %7 = getelementptr inbounds { i64, i64 }, { i64, i64 }* %1, i32 0, i32 1
  %8 = load i64, i64* %7, align 8, !range !5, !noundef !3
  %9 = insertvalue { i64, i64 } undef, i64 %6, 0
  %10 = insertvalue { i64, i64 } %9, i64 %8, 1
  ret { i64, i64 } %10
}

; <core::result::Result<T,F> as core::ops::try_trait::FromResidual<core::result::Result<core::convert::Infallible,E>>>::from_residual
; Function Attrs: inlinehint nonlazybind uwtable
define void @"_ZN153_$LT$core..result..Result$LT$T$C$F$GT$$u20$as$u20$core..ops..try_trait..FromResidual$LT$core..result..Result$LT$core..convert..Infallible$C$E$GT$$GT$$GT$13from_residual17hc7a131b66f5147b5E"(%"core::result::Result<core::ptr::non_null::NonNull<[u8]>, alloc::collections::TryReserveError>"* sret(%"core::result::Result<core::ptr::non_null::NonNull<[u8]>, alloc::collections::TryReserveError>") %0, i64 %1, i64 %2, %"core::panic::location::Location"* align 8 %3) unnamed_addr #0 {
start:
  %residual = alloca { i64, i64 }, align 8
  %4 = getelementptr inbounds { i64, i64 }, { i64, i64 }* %residual, i32 0, i32 0
  store i64 %1, i64* %4, align 8
  %5 = getelementptr inbounds { i64, i64 }, { i64, i64 }* %residual, i32 0, i32 1
  store i64 %2, i64* %5, align 8
  %6 = getelementptr inbounds { i64, i64 }, { i64, i64 }* %residual, i32 0, i32 0
  %e.0 = load i64, i64* %6, align 8
  %7 = getelementptr inbounds { i64, i64 }, { i64, i64 }* %residual, i32 0, i32 1
  %e.1 = load i64, i64* %7, align 8, !range !5, !noundef !3
; call <T as core::convert::From<T>>::from
  %8 = call { i64, i64 } @"_ZN50_$LT$T$u20$as$u20$core..convert..From$LT$T$GT$$GT$4from17hd2fdbaf5456dcc2cE"(i64 %e.0, i64 %e.1)
  %_3.0 = extractvalue { i64, i64 } %8, 0
  %_3.1 = extractvalue { i64, i64 } %8, 1
  br label %bb1

bb1:                                              ; preds = %start
  %9 = bitcast %"core::result::Result<core::ptr::non_null::NonNull<[u8]>, alloc::collections::TryReserveError>"* %0 to %"core::result::Result<core::ptr::non_null::NonNull<[u8]>, alloc::collections::TryReserveError>::Err"*
  %10 = getelementptr inbounds %"core::result::Result<core::ptr::non_null::NonNull<[u8]>, alloc::collections::TryReserveError>::Err", %"core::result::Result<core::ptr::non_null::NonNull<[u8]>, alloc::collections::TryReserveError>::Err"* %9, i32 0, i32 1
  %11 = getelementptr inbounds { i64, i64 }, { i64, i64 }* %10, i32 0, i32 0
  store i64 %_3.0, i64* %11, align 8
  %12 = getelementptr inbounds { i64, i64 }, { i64, i64 }* %10, i32 0, i32 1
  store i64 %_3.1, i64* %12, align 8
  %13 = bitcast %"core::result::Result<core::ptr::non_null::NonNull<[u8]>, alloc::collections::TryReserveError>"* %0 to i64*
  store i64 1, i64* %13, align 8
  ret void
}

; <core::result::Result<T,F> as core::ops::try_trait::FromResidual<core::result::Result<core::convert::Infallible,E>>>::from_residual
; Function Attrs: inlinehint nonlazybind uwtable
define { i64, i64 } @"_ZN153_$LT$core..result..Result$LT$T$C$F$GT$$u20$as$u20$core..ops..try_trait..FromResidual$LT$core..result..Result$LT$core..convert..Infallible$C$E$GT$$GT$$GT$13from_residual17hd462cfabd6a3984aE"(i64 %0, i64 %1, %"core::panic::location::Location"* align 8 %2) unnamed_addr #0 {
start:
  %3 = alloca { i64, i64 }, align 8
  %residual = alloca { i64, i64 }, align 8
  %4 = getelementptr inbounds { i64, i64 }, { i64, i64 }* %residual, i32 0, i32 0
  store i64 %0, i64* %4, align 8
  %5 = getelementptr inbounds { i64, i64 }, { i64, i64 }* %residual, i32 0, i32 1
  store i64 %1, i64* %5, align 8
  %6 = getelementptr inbounds { i64, i64 }, { i64, i64 }* %residual, i32 0, i32 0
  %e.0 = load i64, i64* %6, align 8
  %7 = getelementptr inbounds { i64, i64 }, { i64, i64 }* %residual, i32 0, i32 1
  %e.1 = load i64, i64* %7, align 8, !range !5, !noundef !3
; call <alloc::collections::TryReserveError as core::convert::From<alloc::collections::TryReserveErrorKind>>::from
  %8 = call { i64, i64 } @"_ZN122_$LT$alloc..collections..TryReserveError$u20$as$u20$core..convert..From$LT$alloc..collections..TryReserveErrorKind$GT$$GT$4from17h4ec2a546377b354fE"(i64 %e.0, i64 %e.1)
  %_3.0 = extractvalue { i64, i64 } %8, 0
  %_3.1 = extractvalue { i64, i64 } %8, 1
  br label %bb1

bb1:                                              ; preds = %start
  %9 = getelementptr inbounds { i64, i64 }, { i64, i64 }* %3, i32 0, i32 0
  store i64 %_3.0, i64* %9, align 8
  %10 = getelementptr inbounds { i64, i64 }, { i64, i64 }* %3, i32 0, i32 1
  store i64 %_3.1, i64* %10, align 8
  %11 = getelementptr inbounds { i64, i64 }, { i64, i64 }* %3, i32 0, i32 0
  %12 = load i64, i64* %11, align 8
  %13 = getelementptr inbounds { i64, i64 }, { i64, i64 }* %3, i32 0, i32 1
  %14 = load i64, i64* %13, align 8, !range !6, !noundef !3
  %15 = insertvalue { i64, i64 } undef, i64 %12, 0
  %16 = insertvalue { i64, i64 } %15, i64 %14, 1
  ret { i64, i64 } %16
}

; std::sys_common::mutex::MovableMutex::raw_unlock
; Function Attrs: inlinehint nonlazybind uwtable
define internal void @_ZN3std10sys_common5mutex12MovableMutex10raw_unlock17ha75d423e1e710008E(%"std::sys_common::mutex::MovableMutex"* align 4 %self) unnamed_addr #0 {
start:
  %_2 = bitcast %"std::sys_common::mutex::MovableMutex"* %self to %"std::sys::unix::locks::futex::Mutex"*
; call std::sys::unix::locks::futex::Mutex::unlock
  call void @_ZN3std3sys4unix5locks5futex5Mutex6unlock17h4ef5422a83d44a02E(%"std::sys::unix::locks::futex::Mutex"* align 4 %_2)
  br label %bb1

bb1:                                              ; preds = %start
  ret void
}

; std::sys_common::mutex::MovableMutex::new
; Function Attrs: inlinehint nonlazybind uwtable
define internal i32 @_ZN3std10sys_common5mutex12MovableMutex3new17hc7ecaa10d5f4770fE() unnamed_addr #0 {
start:
  %0 = alloca i32, align 4
  %_1 = alloca %"std::sys::unix::locks::futex::Mutex", align 4
  %1 = alloca %"std::sys_common::mutex::MovableMutex", align 4
; call std::sys::unix::locks::futex::Mutex::new
  %2 = call i32 @_ZN3std3sys4unix5locks5futex5Mutex3new17h0320f81318398a9cE()
  store i32 %2, i32* %0, align 4
  %3 = bitcast %"std::sys::unix::locks::futex::Mutex"* %_1 to i8*
  %4 = bitcast i32* %0 to i8*
  call void @llvm.memcpy.p0i8.p0i8.i64(i8* align 4 %3, i8* align 4 %4, i64 4, i1 false)
  br label %bb1

bb1:                                              ; preds = %start
  %5 = bitcast %"std::sys_common::mutex::MovableMutex"* %1 to %"std::sys::unix::locks::futex::Mutex"*
  %6 = bitcast %"std::sys::unix::locks::futex::Mutex"* %5 to i8*
  %7 = bitcast %"std::sys::unix::locks::futex::Mutex"* %_1 to i8*
  call void @llvm.memcpy.p0i8.p0i8.i64(i8* align 4 %6, i8* align 4 %7, i64 4, i1 false)
  %8 = bitcast %"std::sys_common::mutex::MovableMutex"* %1 to i32*
  %9 = load i32, i32* %8, align 4
  ret i32 %9
}

; std::sys_common::mutex::MovableMutex::raw_lock
; Function Attrs: inlinehint nonlazybind uwtable
define internal void @_ZN3std10sys_common5mutex12MovableMutex8raw_lock17h5f137073161fe057E(%"std::sys_common::mutex::MovableMutex"* align 4 %self) unnamed_addr #0 {
start:
  %_2 = bitcast %"std::sys_common::mutex::MovableMutex"* %self to %"std::sys::unix::locks::futex::Mutex"*
; call std::sys::unix::locks::futex::Mutex::lock
  call void @_ZN3std3sys4unix5locks5futex5Mutex4lock17hebaaf8cf282d1eb8E(%"std::sys::unix::locks::futex::Mutex"* align 4 %_2)
  br label %bb1

bb1:                                              ; preds = %start
  ret void
}

; std::sys_common::condvar::Condvar::new
; Function Attrs: inlinehint nonlazybind uwtable
define internal i32 @_ZN3std10sys_common7condvar7Condvar3new17hdd14ed96d39e2418E() unnamed_addr #0 {
start:
  %0 = alloca i32, align 4
  %_1 = alloca %"std::sys::unix::locks::futex::Condvar", align 4
  %1 = alloca %"std::sys_common::condvar::Condvar", align 4
; call std::sys::unix::locks::futex::Condvar::new
  %2 = call i32 @_ZN3std3sys4unix5locks5futex7Condvar3new17h50339753cc4f5a8aE()
  store i32 %2, i32* %0, align 4
  %3 = bitcast %"std::sys::unix::locks::futex::Condvar"* %_1 to i8*
  %4 = bitcast i32* %0 to i8*
  call void @llvm.memcpy.p0i8.p0i8.i64(i8* align 4 %3, i8* align 4 %4, i64 4, i1 false)
  br label %bb1

bb1:                                              ; preds = %start
; call std::sys_common::condvar::check::NoCheck::new
  call void @_ZN3std10sys_common7condvar5check7NoCheck3new17hdcda4e15b3855677E()
  br label %bb2

bb2:                                              ; preds = %bb1
  %5 = bitcast %"std::sys_common::condvar::Condvar"* %1 to %"std::sys::unix::locks::futex::Condvar"*
  %6 = bitcast %"std::sys::unix::locks::futex::Condvar"* %5 to i8*
  %7 = bitcast %"std::sys::unix::locks::futex::Condvar"* %_1 to i8*
  call void @llvm.memcpy.p0i8.p0i8.i64(i8* align 4 %6, i8* align 4 %7, i64 4, i1 false)
  %8 = bitcast %"std::sys_common::condvar::Condvar"* %1 to i32*
  %9 = load i32, i32* %8, align 4
  ret i32 %9
}

; std::sys_common::condvar::Condvar::wait
; Function Attrs: inlinehint nonlazybind uwtable
define internal void @_ZN3std10sys_common7condvar7Condvar4wait17h01b385252ace90c6E(%"std::sys_common::condvar::Condvar"* align 4 %self, %"std::sys_common::mutex::MovableMutex"* align 4 %mutex) unnamed_addr #0 {
start:
  %_4 = getelementptr inbounds %"std::sys_common::condvar::Condvar", %"std::sys_common::condvar::Condvar"* %self, i32 0, i32 1
; call std::sys_common::condvar::check::NoCheck::verify
  call void @_ZN3std10sys_common7condvar5check7NoCheck6verify17h3d36dcb4d41125a4E(%"std::sys_common::condvar::check::NoCheck"* align 1 %_4, %"std::sys_common::mutex::MovableMutex"* align 4 %mutex)
  br label %bb1

bb1:                                              ; preds = %start
  %_6 = bitcast %"std::sys_common::condvar::Condvar"* %self to %"std::sys::unix::locks::futex::Condvar"*
; call std::sys_common::mutex::MovableMutex::raw
  %_8 = call align 4 %"std::sys::unix::locks::futex::Mutex"* @_ZN3std10sys_common5mutex12MovableMutex3raw17h877bd82121b58baeE(%"std::sys_common::mutex::MovableMutex"* align 4 %mutex)
  br label %bb2

bb2:                                              ; preds = %bb1
; call std::sys::unix::locks::futex::Condvar::wait
  call void @_ZN3std3sys4unix5locks5futex7Condvar4wait17h46be168019e02852E(%"std::sys::unix::locks::futex::Condvar"* align 4 %_6, %"std::sys::unix::locks::futex::Mutex"* align 4 %_8)
  br label %bb3

bb3:                                              ; preds = %bb2
  ret void
}

; std::fs::OpenOptions::open
; Function Attrs: nonlazybind uwtable
define void @_ZN3std2fs11OpenOptions4open17h1cacde18989112ccE(%"core::result::Result<std::fs::File, std::io::error::Error>"* sret(%"core::result::Result<std::fs::File, std::io::error::Error>") %0, %"std::fs::OpenOptions"* align 4 %self, [0 x i8]* align 1 %1, i64 %2) unnamed_addr #1 personality i32 (i32, i32, i64, %"unwind::libunwind::_Unwind_Exception"*, %"unwind::libunwind::_Unwind_Context"*)* @rust_eh_personality {
start:
  %3 = alloca { i8*, i32 }, align 8
  %path = alloca { [0 x i8]*, i64 }, align 8
  %4 = getelementptr inbounds { [0 x i8]*, i64 }, { [0 x i8]*, i64 }* %path, i32 0, i32 0
  store [0 x i8]* %1, [0 x i8]** %4, align 8
  %5 = getelementptr inbounds { [0 x i8]*, i64 }, { [0 x i8]*, i64 }* %path, i32 0, i32 1
  store i64 %2, i64* %5, align 8
; invoke <&T as core::convert::AsRef<U>>::as_ref
  %6 = invoke { %"std::path::Path"*, i64 } @"_ZN55_$LT$$RF$T$u20$as$u20$core..convert..AsRef$LT$U$GT$$GT$6as_ref17h0d358ce8916a281cE"({ [0 x i8]*, i64 }* align 8 %path)
          to label %bb1 unwind label %cleanup

bb4:                                              ; preds = %cleanup
  br label %bb5

cleanup:                                          ; preds = %bb1, %start
  %7 = landingpad { i8*, i32 }
          cleanup
  %8 = extractvalue { i8*, i32 } %7, 0
  %9 = extractvalue { i8*, i32 } %7, 1
  %10 = getelementptr inbounds { i8*, i32 }, { i8*, i32 }* %3, i32 0, i32 0
  store i8* %8, i8** %10, align 8
  %11 = getelementptr inbounds { i8*, i32 }, { i8*, i32 }* %3, i32 0, i32 1
  store i32 %9, i32* %11, align 8
  br label %bb4

bb1:                                              ; preds = %start
  %_5.0 = extractvalue { %"std::path::Path"*, i64 } %6, 0
  %_5.1 = extractvalue { %"std::path::Path"*, i64 } %6, 1
; invoke std::fs::OpenOptions::_open
  invoke void @_ZN3std2fs11OpenOptions5_open17h0acb4f6ef6573b83E(%"core::result::Result<std::fs::File, std::io::error::Error>"* sret(%"core::result::Result<std::fs::File, std::io::error::Error>") %0, %"std::fs::OpenOptions"* align 4 %self, %"std::path::Path"* align 1 %_5.0, i64 %_5.1)
          to label %bb2 unwind label %cleanup

bb2:                                              ; preds = %bb1
  br label %bb3

bb5:                                              ; preds = %bb4
  %12 = bitcast { i8*, i32 }* %3 to i8**
  %13 = load i8*, i8** %12, align 8
  %14 = getelementptr inbounds { i8*, i32 }, { i8*, i32 }* %3, i32 0, i32 1
  %15 = load i32, i32* %14, align 8
  %16 = insertvalue { i8*, i32 } undef, i8* %13, 0
  %17 = insertvalue { i8*, i32 } %16, i32 %15, 1
  resume { i8*, i32 } %17

bb3:                                              ; preds = %bb2
  ret void
}

; std::io::Write::write_all
; Function Attrs: nonlazybind uwtable
define i8* @_ZN3std2io5Write9write_all17ha0d05a93835ab957E(i32* align 4 %self, [0 x i8]* align 1 %0, i64 %1) unnamed_addr #1 personality i32 (i32, i32, i64, %"unwind::libunwind::_Unwind_Exception"*, %"unwind::libunwind::_Unwind_Context"*)* @rust_eh_personality {
start:
  %2 = alloca { i8*, i32 }, align 8
  %_24 = alloca i8, align 1
  %e = alloca i8**, align 8
  %_18 = alloca i64, align 8
  %_6 = alloca %"core::result::Result<usize, std::io::error::Error>", align 8
  %3 = alloca i8*, align 8
  %buf = alloca { [0 x i8]*, i64 }, align 8
  %4 = getelementptr inbounds { [0 x i8]*, i64 }, { [0 x i8]*, i64 }* %buf, i32 0, i32 0
  store [0 x i8]* %0, [0 x i8]** %4, align 8
  %5 = getelementptr inbounds { [0 x i8]*, i64 }, { [0 x i8]*, i64 }* %buf, i32 0, i32 1
  store i64 %1, i64* %5, align 8
  br label %bb1

bb1:                                              ; preds = %bb20, %start
  %6 = getelementptr inbounds { [0 x i8]*, i64 }, { [0 x i8]*, i64 }* %buf, i32 0, i32 0
  %_5.0 = load [0 x i8]*, [0 x i8]** %6, align 8, !nonnull !3, !align !4, !noundef !3
  %7 = getelementptr inbounds { [0 x i8]*, i64 }, { [0 x i8]*, i64 }* %buf, i32 0, i32 1
  %_5.1 = load i64, i64* %7, align 8
; call core::slice::<impl [T]>::is_empty
  %_4 = call zeroext i1 @"_ZN4core5slice29_$LT$impl$u20$$u5b$T$u5d$$GT$8is_empty17ha3628f14e52a3427E"([0 x i8]* align 1 %_5.0, i64 %_5.1)
  br label %bb2

bb2:                                              ; preds = %bb1
  %_3 = xor i1 %_4, true
  br i1 %_3, label %bb3, label %bb16

bb16:                                             ; preds = %bb2
  %8 = bitcast i8** %3 to {}**
  store {}* null, {}** %8, align 8
  br label %bb18

bb3:                                              ; preds = %bb2
  %9 = getelementptr inbounds { [0 x i8]*, i64 }, { [0 x i8]*, i64 }* %buf, i32 0, i32 0
  %_8.0 = load [0 x i8]*, [0 x i8]** %9, align 8, !nonnull !3, !align !4, !noundef !3
  %10 = getelementptr inbounds { [0 x i8]*, i64 }, { [0 x i8]*, i64 }* %buf, i32 0, i32 1
  %_8.1 = load i64, i64* %10, align 8
; call <std::fs::File as std::io::Write>::write
  call void @"_ZN48_$LT$std..fs..File$u20$as$u20$std..io..Write$GT$5write17h48eccdc7891d1e28E"(%"core::result::Result<usize, std::io::error::Error>"* sret(%"core::result::Result<usize, std::io::error::Error>") %_6, i32* align 4 %self, [0 x i8]* align 1 %_8.0, i64 %_8.1)
  br label %bb4

bb4:                                              ; preds = %bb3
  %11 = bitcast %"core::result::Result<usize, std::io::error::Error>"* %_6 to i64*
  %_9 = load i64, i64* %11, align 8, !range !7, !noundef !3
  switch i64 %_9, label %bb6 [
    i64 0, label %bb5
    i64 1, label %bb11
  ]

bb6:                                              ; preds = %bb4
  unreachable

bb5:                                              ; preds = %bb4
  %12 = bitcast %"core::result::Result<usize, std::io::error::Error>"* %_6 to %"core::result::Result<usize, std::io::error::Error>::Ok"*
  %13 = getelementptr inbounds %"core::result::Result<usize, std::io::error::Error>::Ok", %"core::result::Result<usize, std::io::error::Error>::Ok"* %12, i32 0, i32 1
  %14 = load i64, i64* %13, align 8
  %15 = icmp eq i64 %14, 0
  br i1 %15, label %bb7, label %bb9

bb11:                                             ; preds = %bb4
  %16 = bitcast %"core::result::Result<usize, std::io::error::Error>"* %_6 to %"core::result::Result<usize, std::io::error::Error>::Err"*
  %17 = getelementptr inbounds %"core::result::Result<usize, std::io::error::Error>::Err", %"core::result::Result<usize, std::io::error::Error>::Err"* %16, i32 0, i32 1
  store i8** %17, i8*** %e, align 8
  %_34 = load i8**, i8*** %e, align 8, !nonnull !3, !align !8, !noundef !3
; invoke std::io::error::Error::kind
  %18 = invoke i8 @_ZN3std2io5error5Error4kind17h3290eed79eac23d4E(i8** align 8 %_34)
          to label %bb12 unwind label %cleanup, !range !9

bb26:                                             ; preds = %cleanup
  %19 = bitcast %"core::result::Result<usize, std::io::error::Error>"* %_6 to i64*
  %_33 = load i64, i64* %19, align 8, !range !7, !noundef !3
  %20 = icmp eq i64 %_33, 1
  br i1 %20, label %bb24, label %bb19

cleanup:                                          ; preds = %bb7, %bb9, %bb12, %bb11
  %21 = landingpad { i8*, i32 }
          cleanup
  %22 = extractvalue { i8*, i32 } %21, 0
  %23 = extractvalue { i8*, i32 } %21, 1
  %24 = getelementptr inbounds { i8*, i32 }, { i8*, i32 }* %2, i32 0, i32 0
  store i8* %22, i8** %24, align 8
  %25 = getelementptr inbounds { i8*, i32 }, { i8*, i32 }* %2, i32 0, i32 1
  store i32 %23, i32* %25, align 8
  br label %bb26

bb12:                                             ; preds = %bb11
  store i8 %18, i8* %_24, align 1
; invoke <std::io::error::ErrorKind as core::cmp::PartialEq>::eq
  %_22 = invoke zeroext i1 @"_ZN66_$LT$std..io..error..ErrorKind$u20$as$u20$core..cmp..PartialEq$GT$2eq17hec5376d7a016f81fE"(i8* align 1 %_24, i8* align 1 getelementptr inbounds (<{ [1 x i8] }>, <{ [1 x i8] }>* @alloc353, i32 0, i32 0, i32 0))
          to label %bb13 unwind label %cleanup

bb13:                                             ; preds = %bb12
  br i1 %_22, label %bb14, label %bb15

bb15:                                             ; preds = %bb13
  %26 = bitcast %"core::result::Result<usize, std::io::error::Error>"* %_6 to %"core::result::Result<usize, std::io::error::Error>::Err"*
  %27 = getelementptr inbounds %"core::result::Result<usize, std::io::error::Error>::Err", %"core::result::Result<usize, std::io::error::Error>::Err"* %26, i32 0, i32 1
  %e1 = load i8*, i8** %27, align 8, !nonnull !3, !noundef !3
  store i8* %e1, i8** %3, align 8
  br label %bb17

bb14:                                             ; preds = %bb13
  br label %bb23

bb23:                                             ; preds = %bb10, %bb14
  %28 = bitcast %"core::result::Result<usize, std::io::error::Error>"* %_6 to i64*
  %_32 = load i64, i64* %28, align 8, !range !7, !noundef !3
  %29 = icmp eq i64 %_32, 1
  br i1 %29, label %bb21, label %bb20

bb17:                                             ; preds = %bb8, %bb15
  br label %bb18

bb7:                                              ; preds = %bb5
; invoke std::io::error::Error::from_static_message
  %_10 = invoke i8* @_ZN3std2io5error5Error19from_static_message17h13e557da5018ca10E(%"std::io::error::SimpleMessage"* align 8 bitcast (<{ i8*, [9 x i8], [7 x i8] }>* @alloc351 to %"std::io::error::SimpleMessage"*))
          to label %bb8 unwind label %cleanup

bb9:                                              ; preds = %bb5
  %30 = bitcast %"core::result::Result<usize, std::io::error::Error>"* %_6 to %"core::result::Result<usize, std::io::error::Error>::Ok"*
  %31 = getelementptr inbounds %"core::result::Result<usize, std::io::error::Error>::Ok", %"core::result::Result<usize, std::io::error::Error>::Ok"* %30, i32 0, i32 1
  %n = load i64, i64* %31, align 8
  %32 = getelementptr inbounds { [0 x i8]*, i64 }, { [0 x i8]*, i64 }* %buf, i32 0, i32 0
  %_17.0 = load [0 x i8]*, [0 x i8]** %32, align 8, !nonnull !3, !align !4, !noundef !3
  %33 = getelementptr inbounds { [0 x i8]*, i64 }, { [0 x i8]*, i64 }* %buf, i32 0, i32 1
  %_17.1 = load i64, i64* %33, align 8
  store i64 %n, i64* %_18, align 8
  %34 = load i64, i64* %_18, align 8
; invoke core::slice::index::<impl core::ops::index::Index<I> for [T]>::index
  %35 = invoke { [0 x i8]*, i64 } @"_ZN4core5slice5index74_$LT$impl$u20$core..ops..index..Index$LT$I$GT$$u20$for$u20$$u5b$T$u5d$$GT$5index17ha5680e0da09c4ce4E"([0 x i8]* align 1 %_17.0, i64 %_17.1, i64 %34, %"core::panic::location::Location"* align 8 bitcast (<{ i8*, [16 x i8] }>* @alloc649 to %"core::panic::location::Location"*))
          to label %bb10 unwind label %cleanup

bb10:                                             ; preds = %bb9
  %_16.0 = extractvalue { [0 x i8]*, i64 } %35, 0
  %_16.1 = extractvalue { [0 x i8]*, i64 } %35, 1
  %36 = getelementptr inbounds { [0 x i8]*, i64 }, { [0 x i8]*, i64 }* %buf, i32 0, i32 0
  store [0 x i8]* %_16.0, [0 x i8]** %36, align 8
  %37 = getelementptr inbounds { [0 x i8]*, i64 }, { [0 x i8]*, i64 }* %buf, i32 0, i32 1
  store i64 %_16.1, i64* %37, align 8
  br label %bb23

bb21:                                             ; preds = %bb23
  br i1 true, label %bb22, label %bb20

bb20:                                             ; preds = %bb22, %bb21, %bb23
  br label %bb1

bb22:                                             ; preds = %bb21
  %38 = bitcast %"core::result::Result<usize, std::io::error::Error>"* %_6 to %"core::result::Result<usize, std::io::error::Error>::Err"*
  %39 = getelementptr inbounds %"core::result::Result<usize, std::io::error::Error>::Err", %"core::result::Result<usize, std::io::error::Error>::Err"* %38, i32 0, i32 1
; call core::ptr::drop_in_place<std::io::error::Error>
  call void @"_ZN4core3ptr42drop_in_place$LT$std..io..error..Error$GT$17h40e63bf6e01db46fE"(i8** %39)
  br label %bb20

bb8:                                              ; preds = %bb7
  store i8* %_10, i8** %3, align 8
  br label %bb17

bb24:                                             ; preds = %bb26
  br i1 true, label %bb25, label %bb19

bb19:                                             ; preds = %bb25, %bb24, %bb26
  %40 = bitcast { i8*, i32 }* %2 to i8**
  %41 = load i8*, i8** %40, align 8
  %42 = getelementptr inbounds { i8*, i32 }, { i8*, i32 }* %2, i32 0, i32 1
  %43 = load i32, i32* %42, align 8
  %44 = insertvalue { i8*, i32 } undef, i8* %41, 0
  %45 = insertvalue { i8*, i32 } %44, i32 %43, 1
  resume { i8*, i32 } %45

bb25:                                             ; preds = %bb24
  %46 = bitcast %"core::result::Result<usize, std::io::error::Error>"* %_6 to %"core::result::Result<usize, std::io::error::Error>::Err"*
  %47 = getelementptr inbounds %"core::result::Result<usize, std::io::error::Error>::Err", %"core::result::Result<usize, std::io::error::Error>::Err"* %46, i32 0, i32 1
; invoke core::ptr::drop_in_place<std::io::error::Error>
  invoke void @"_ZN4core3ptr42drop_in_place$LT$std..io..error..Error$GT$17h40e63bf6e01db46fE"(i8** %47) #17
          to label %bb19 unwind label %abort

abort:                                            ; preds = %bb25
  %48 = landingpad { i8*, i32 }
          cleanup
; call core::panicking::panic_no_unwind
  call void @_ZN4core9panicking15panic_no_unwind17h25931e178d980d9cE() #18
  unreachable

bb18:                                             ; preds = %bb16, %bb17
  %49 = load i8*, i8** %3, align 8
  ret i8* %49
}

; std::io::Write::write_fmt
; Function Attrs: nonlazybind uwtable
define i8* @_ZN3std2io5Write9write_fmt17h0ce8b27eee387111E(i32* align 4 %self, %"core::fmt::Arguments"* %fmt) unnamed_addr #1 personality i32 (i32, i32, i64, %"unwind::libunwind::_Unwind_Exception"*, %"unwind::libunwind::_Unwind_Context"*)* @rust_eh_personality {
start:
  %0 = alloca { i8*, i32 }, align 8
  %_18 = alloca i8, align 1
  %_10 = alloca %"core::fmt::Arguments", align 8
  %_6 = alloca i8, align 1
  %_5 = alloca i8*, align 8
  %output = alloca { i32*, i8* }, align 8
  %1 = alloca i8*, align 8
  %2 = bitcast i8** %_5 to {}**
  store {}* null, {}** %2, align 8
  store i8 1, i8* %_18, align 1
  %3 = bitcast { i32*, i8* }* %output to i32**
  store i32* %self, i32** %3, align 8
  %4 = getelementptr inbounds { i32*, i8* }, { i32*, i8* }* %output, i32 0, i32 1
  %5 = load i8*, i8** %_5, align 8
  store i8* %5, i8** %4, align 8
  %_7.0 = bitcast { i32*, i8* }* %output to {}*
  %6 = bitcast %"core::fmt::Arguments"* %_10 to i8*
  %7 = bitcast %"core::fmt::Arguments"* %fmt to i8*
  call void @llvm.memcpy.p0i8.p0i8.i64(i8* align 8 %6, i8* align 8 %7, i64 48, i1 false)
; invoke core::fmt::write
  %8 = invoke zeroext i1 @_ZN4core3fmt5write17h5c45f38d408cd7eeE({}* align 1 %_7.0, [3 x i64]* align 8 bitcast (<{ i8*, [16 x i8], i8*, i8*, i8* }>* @vtable.0 to [3 x i64]*), %"core::fmt::Arguments"* %_10)
          to label %bb1 unwind label %cleanup

bb10:                                             ; preds = %cleanup
; invoke core::ptr::drop_in_place<std::io::Write::write_fmt::Adapter<std::fs::File>>
  invoke void @"_ZN4core3ptr76drop_in_place$LT$std..io..Write..write_fmt..Adapter$LT$std..fs..File$GT$$GT$17h646dc496cf61cd3eE"({ i32*, i8* }* %output) #17
          to label %bb11 unwind label %abort

cleanup:                                          ; preds = %bb7, %bb2, %start
  %9 = landingpad { i8*, i32 }
          cleanup
  %10 = extractvalue { i8*, i32 } %9, 0
  %11 = extractvalue { i8*, i32 } %9, 1
  %12 = getelementptr inbounds { i8*, i32 }, { i8*, i32 }* %0, i32 0, i32 0
  store i8* %10, i8** %12, align 8
  %13 = getelementptr inbounds { i8*, i32 }, { i8*, i32 }* %0, i32 0, i32 1
  store i32 %11, i32* %13, align 8
  br label %bb10

bb1:                                              ; preds = %start
  %14 = zext i1 %8 to i8
  store i8 %14, i8* %_6, align 1
  %15 = load i8, i8* %_6, align 1, !range !2, !noundef !3
  %16 = trunc i8 %15 to i1
  %_11 = zext i1 %16 to i64
  switch i64 %_11, label %bb3 [
    i64 0, label %bb4
    i64 1, label %bb2
  ]

bb3:                                              ; preds = %bb1
  unreachable

bb4:                                              ; preds = %bb1
  %17 = bitcast i8** %1 to {}**
  store {}* null, {}** %17, align 8
  br label %bb14

bb2:                                              ; preds = %bb1
  %_13 = getelementptr inbounds { i32*, i8* }, { i32*, i8* }* %output, i32 0, i32 1
; invoke core::result::Result<T,E>::is_err
  %_12 = invoke zeroext i1 @"_ZN4core6result19Result$LT$T$C$E$GT$6is_err17h8d2fd85775a7798aE"(i8** align 8 %_13)
          to label %bb5 unwind label %cleanup

bb5:                                              ; preds = %bb2
  br i1 %_12, label %bb6, label %bb7

bb7:                                              ; preds = %bb5
; invoke std::io::error::Error::from_static_message
  %_14 = invoke i8* @_ZN3std2io5error5Error19from_static_message17h13e557da5018ca10E(%"std::io::error::SimpleMessage"* align 8 bitcast (<{ i8*, [9 x i8], [7 x i8] }>* @alloc344 to %"std::io::error::SimpleMessage"*))
          to label %bb8 unwind label %cleanup

bb6:                                              ; preds = %bb5
  store i8 0, i8* %_18, align 1
  %18 = getelementptr inbounds { i32*, i8* }, { i32*, i8* }* %output, i32 0, i32 1
  %19 = load i8*, i8** %18, align 8
  store i8* %19, i8** %1, align 8
  br label %bb9

bb9:                                              ; preds = %bb8, %bb6
  br label %bb14

bb8:                                              ; preds = %bb7
  store i8* %_14, i8** %1, align 8
  br label %bb9

abort:                                            ; preds = %bb10
  %20 = landingpad { i8*, i32 }
          cleanup
; call core::panicking::panic_no_unwind
  call void @_ZN4core9panicking15panic_no_unwind17h25931e178d980d9cE() #18
  unreachable

bb11:                                             ; preds = %bb10
  %21 = bitcast { i8*, i32 }* %0 to i8**
  %22 = load i8*, i8** %21, align 8
  %23 = getelementptr inbounds { i8*, i32 }, { i8*, i32 }* %0, i32 0, i32 1
  %24 = load i32, i32* %23, align 8
  %25 = insertvalue { i8*, i32 } undef, i8* %22, 0
  %26 = insertvalue { i8*, i32 } %25, i32 %24, 1
  resume { i8*, i32 } %26

bb14:                                             ; preds = %bb4, %bb9
  %27 = load i8, i8* %_18, align 1, !range !2, !noundef !3
  %28 = trunc i8 %27 to i1
  br i1 %28, label %bb13, label %bb12

bb12:                                             ; preds = %bb13, %bb14
  %29 = load i8*, i8** %1, align 8
  ret i8* %29

bb13:                                             ; preds = %bb14
  %30 = getelementptr inbounds { i32*, i8* }, { i32*, i8* }* %output, i32 0, i32 1
; call core::ptr::drop_in_place<core::result::Result<(),std::io::error::Error>>
  call void @"_ZN4core3ptr81drop_in_place$LT$core..result..Result$LT$$LP$$RP$$C$std..io..error..Error$GT$$GT$17hc5791f008c85b35fE"(i8** %30)
  br label %bb12
}

; std::io::error::repr_bitpacked::decode_repr
; Function Attrs: inlinehint nonlazybind uwtable
define void @_ZN3std2io5error14repr_bitpacked11decode_repr17h0471ca073c727322E(%"std::io::error::ErrorData<&std::io::error::Custom>"* sret(%"std::io::error::ErrorData<&std::io::error::Custom>") %0, i8* %ptr) unnamed_addr #0 personality i32 (i32, i32, i64, %"unwind::libunwind::_Unwind_Exception"*, %"unwind::libunwind::_Unwind_Context"*)* @rust_eh_personality {
start:
  %1 = alloca { i8*, i32 }, align 8
  %_37 = alloca i8, align 1
  %_34 = alloca i64*, align 8
  %_19 = alloca i64*, align 8
  %bits = alloca i64, align 8
  store i8 1, i8* %_37, align 1
; invoke core::ptr::non_null::NonNull<T>::as_ptr
  %_4 = invoke {}* @"_ZN4core3ptr8non_null16NonNull$LT$T$GT$6as_ptr17h354de0dc25515eabE"(i8* %ptr)
          to label %bb1 unwind label %cleanup

bb22:                                             ; preds = %cleanup
  %2 = load i8, i8* %_37, align 1, !range !2, !noundef !3
  %3 = trunc i8 %2 to i1
  br i1 %3, label %bb21, label %bb19

cleanup:                                          ; preds = %bb6, %bb5, %bb9, %bb8, %bb15, %bb13, %bb11, %bb3, %bb1, %start
  %4 = landingpad { i8*, i32 }
          cleanup
  %5 = extractvalue { i8*, i32 } %4, 0
  %6 = extractvalue { i8*, i32 } %4, 1
  %7 = getelementptr inbounds { i8*, i32 }, { i8*, i32 }* %1, i32 0, i32 0
  store i8* %5, i8** %7, align 8
  %8 = getelementptr inbounds { i8*, i32 }, { i8*, i32 }* %1, i32 0, i32 1
  store i32 %6, i32* %8, align 8
  br label %bb22

bb1:                                              ; preds = %start
; invoke core::ptr::mut_ptr::<impl *mut T>::addr
  %9 = invoke i64 @"_ZN4core3ptr7mut_ptr31_$LT$impl$u20$$BP$mut$u20$T$GT$4addr17h8252082fb26de1b2E"({}* %_4)
          to label %bb2 unwind label %cleanup

bb2:                                              ; preds = %bb1
  store i64 %9, i64* %bits, align 8
  %_7 = load i64, i64* %bits, align 8
  %_6 = and i64 %_7, 3
  switch i64 %_6, label %bb3 [
    i64 2, label %bb4
    i64 3, label %bb5
    i64 0, label %bb8
    i64 1, label %bb11
  ]

bb3:                                              ; preds = %bb2
; invoke core::panicking::panic
  invoke void @_ZN4core9panicking5panic17h1efed56daac899acE([0 x i8]* align 1 bitcast (<{ [40 x i8] }>* @alloc658 to [0 x i8]*), i64 40, %"core::panic::location::Location"* align 8 bitcast (<{ i8*, [16 x i8] }>* @alloc657 to %"core::panic::location::Location"*)) #16
          to label %unreachable unwind label %cleanup

bb4:                                              ; preds = %bb2
  %_11 = load i64, i64* %bits, align 8
  %_9 = ashr i64 %_11, 32
  %code = trunc i64 %_9 to i32
  %10 = bitcast %"std::io::error::ErrorData<&std::io::error::Custom>"* %0 to %"std::io::error::ErrorData<&std::io::error::Custom>::Os"*
  %11 = getelementptr inbounds %"std::io::error::ErrorData<&std::io::error::Custom>::Os", %"std::io::error::ErrorData<&std::io::error::Custom>::Os"* %10, i32 0, i32 1
  store i32 %code, i32* %11, align 4
  %12 = bitcast %"std::io::error::ErrorData<&std::io::error::Custom>"* %0 to i8*
  store i8 0, i8* %12, align 8
  br label %bb17

bb5:                                              ; preds = %bb2
  %_15 = load i64, i64* %bits, align 8
  %_14 = lshr i64 %_15, 32
  %kind_bits = trunc i64 %_14 to i32
; invoke std::io::error::repr_bitpacked::kind_from_prim
  %_17 = invoke i8 @_ZN3std2io5error14repr_bitpacked14kind_from_prim17hecedb18643c0dd7eE(i32 %kind_bits)
          to label %bb6 unwind label %cleanup, !range !10

bb8:                                              ; preds = %bb2
; invoke core::ptr::non_null::NonNull<T>::cast
  %_25 = invoke i64* @"_ZN4core3ptr8non_null16NonNull$LT$T$GT$4cast17h9b21c027af18fc12E"(i8* %ptr)
          to label %bb9 unwind label %cleanup

bb11:                                             ; preds = %bb2
; invoke core::ptr::non_null::NonNull<T>::as_ptr
  %_30 = invoke {}* @"_ZN4core3ptr8non_null16NonNull$LT$T$GT$6as_ptr17h354de0dc25515eabE"(i8* %ptr)
          to label %bb12 unwind label %cleanup

unreachable:                                      ; preds = %bb3
  unreachable

bb12:                                             ; preds = %bb11
  %13 = bitcast {}* %_30 to i8*
  br label %bb13

bb13:                                             ; preds = %bb12
; invoke core::ptr::mut_ptr::<impl *mut T>::wrapping_sub
  %_28 = invoke i8* @"_ZN4core3ptr7mut_ptr31_$LT$impl$u20$$BP$mut$u20$T$GT$12wrapping_sub17he07ac483090619a9E"(i8* %13, i64 1)
          to label %bb14 unwind label %cleanup

bb14:                                             ; preds = %bb13
  %14 = bitcast i8* %_28 to %"std::io::error::Custom"*
  br label %bb15

bb15:                                             ; preds = %bb14
  store i8 0, i8* %_37, align 1
  %15 = bitcast i64** %_34 to %"std::io::error::Custom"**
  store %"std::io::error::Custom"* %14, %"std::io::error::Custom"** %15, align 8
  %16 = load i64*, i64** %_34, align 8
  %17 = bitcast i64* %16 to %"std::io::error::Custom"*
; invoke std::io::error::repr_bitpacked::Repr::data::{{closure}}
  %_32 = invoke align 8 %"std::io::error::Custom"* @"_ZN3std2io5error14repr_bitpacked4Repr4data28_$u7b$$u7b$closure$u7d$$u7d$17h81f04933d3e0cfe6E"(%"std::io::error::Custom"* %17)
          to label %bb16 unwind label %cleanup

bb16:                                             ; preds = %bb15
  %18 = bitcast %"std::io::error::ErrorData<&std::io::error::Custom>"* %0 to %"std::io::error::ErrorData<&std::io::error::Custom>::Custom"*
  %19 = getelementptr inbounds %"std::io::error::ErrorData<&std::io::error::Custom>::Custom", %"std::io::error::ErrorData<&std::io::error::Custom>::Custom"* %18, i32 0, i32 1
  store %"std::io::error::Custom"* %_32, %"std::io::error::Custom"** %19, align 8
  %20 = bitcast %"std::io::error::ErrorData<&std::io::error::Custom>"* %0 to i8*
  store i8 3, i8* %20, align 8
  br label %bb17

bb17:                                             ; preds = %bb4, %bb7, %bb10, %bb16
  %21 = load i8, i8* %_37, align 1, !range !2, !noundef !3
  %22 = trunc i8 %21 to i1
  br i1 %22, label %bb20, label %bb18

bb9:                                              ; preds = %bb8
; invoke core::ptr::non_null::NonNull<T>::as_ptr
  %_24 = invoke %"std::io::error::SimpleMessage"* @"_ZN4core3ptr8non_null16NonNull$LT$T$GT$6as_ptr17h6f94846b3c04e2c0E"(i64* %_25)
          to label %bb10 unwind label %cleanup

bb10:                                             ; preds = %bb9
  %23 = bitcast %"std::io::error::ErrorData<&std::io::error::Custom>"* %0 to %"std::io::error::ErrorData<&std::io::error::Custom>::SimpleMessage"*
  %24 = getelementptr inbounds %"std::io::error::ErrorData<&std::io::error::Custom>::SimpleMessage", %"std::io::error::ErrorData<&std::io::error::Custom>::SimpleMessage"* %23, i32 0, i32 1
  store %"std::io::error::SimpleMessage"* %_24, %"std::io::error::SimpleMessage"** %24, align 8
  %25 = bitcast %"std::io::error::ErrorData<&std::io::error::Custom>"* %0 to i8*
  store i8 2, i8* %25, align 8
  br label %bb17

bb6:                                              ; preds = %bb5
  store i64* %bits, i64** %_19, align 8
  %26 = load i64*, i64** %_19, align 8, !nonnull !3, !align !8, !noundef !3
; invoke core::option::Option<T>::unwrap_or_else
  %kind = invoke i8 @"_ZN4core6option15Option$LT$T$GT$14unwrap_or_else17hd12a4600f51f31e9E"(i8 %_17, i64* align 8 %26)
          to label %bb7 unwind label %cleanup, !range !9

bb7:                                              ; preds = %bb6
  %27 = bitcast %"std::io::error::ErrorData<&std::io::error::Custom>"* %0 to %"std::io::error::ErrorData<&std::io::error::Custom>::Simple"*
  %28 = getelementptr inbounds %"std::io::error::ErrorData<&std::io::error::Custom>::Simple", %"std::io::error::ErrorData<&std::io::error::Custom>::Simple"* %27, i32 0, i32 1
  store i8 %kind, i8* %28, align 1
  %29 = bitcast %"std::io::error::ErrorData<&std::io::error::Custom>"* %0 to i8*
  store i8 1, i8* %29, align 8
  br label %bb17

bb19:                                             ; preds = %bb21, %bb22
  %30 = bitcast { i8*, i32 }* %1 to i8**
  %31 = load i8*, i8** %30, align 8
  %32 = getelementptr inbounds { i8*, i32 }, { i8*, i32 }* %1, i32 0, i32 1
  %33 = load i32, i32* %32, align 8
  %34 = insertvalue { i8*, i32 } undef, i8* %31, 0
  %35 = insertvalue { i8*, i32 } %34, i32 %33, 1
  resume { i8*, i32 } %35

bb21:                                             ; preds = %bb22
  br label %bb19

bb18:                                             ; preds = %bb20, %bb17
  ret void

bb20:                                             ; preds = %bb17
  br label %bb18
}

; std::io::error::repr_bitpacked::decode_repr
; Function Attrs: inlinehint nonlazybind uwtable
define void @_ZN3std2io5error14repr_bitpacked11decode_repr17h3629a2e1bcf13274E(%"std::io::error::ErrorData<alloc::boxed::Box<std::io::error::Custom>>"* sret(%"std::io::error::ErrorData<alloc::boxed::Box<std::io::error::Custom>>") %0, i8* %ptr) unnamed_addr #0 personality i32 (i32, i32, i64, %"unwind::libunwind::_Unwind_Exception"*, %"unwind::libunwind::_Unwind_Context"*)* @rust_eh_personality {
start:
  %1 = alloca { i8*, i32 }, align 8
  %_37 = alloca i8, align 1
  %_34 = alloca i64*, align 8
  %_19 = alloca i64*, align 8
  %bits = alloca i64, align 8
  store i8 1, i8* %_37, align 1
; invoke core::ptr::non_null::NonNull<T>::as_ptr
  %_4 = invoke {}* @"_ZN4core3ptr8non_null16NonNull$LT$T$GT$6as_ptr17h354de0dc25515eabE"(i8* %ptr)
          to label %bb1 unwind label %cleanup

bb22:                                             ; preds = %cleanup
  %2 = load i8, i8* %_37, align 1, !range !2, !noundef !3
  %3 = trunc i8 %2 to i1
  br i1 %3, label %bb21, label %bb19

cleanup:                                          ; preds = %bb6, %bb5, %bb9, %bb8, %bb15, %bb13, %bb11, %bb3, %bb1, %start
  %4 = landingpad { i8*, i32 }
          cleanup
  %5 = extractvalue { i8*, i32 } %4, 0
  %6 = extractvalue { i8*, i32 } %4, 1
  %7 = getelementptr inbounds { i8*, i32 }, { i8*, i32 }* %1, i32 0, i32 0
  store i8* %5, i8** %7, align 8
  %8 = getelementptr inbounds { i8*, i32 }, { i8*, i32 }* %1, i32 0, i32 1
  store i32 %6, i32* %8, align 8
  br label %bb22

bb1:                                              ; preds = %start
; invoke core::ptr::mut_ptr::<impl *mut T>::addr
  %9 = invoke i64 @"_ZN4core3ptr7mut_ptr31_$LT$impl$u20$$BP$mut$u20$T$GT$4addr17h8252082fb26de1b2E"({}* %_4)
          to label %bb2 unwind label %cleanup

bb2:                                              ; preds = %bb1
  store i64 %9, i64* %bits, align 8
  %_7 = load i64, i64* %bits, align 8
  %_6 = and i64 %_7, 3
  switch i64 %_6, label %bb3 [
    i64 2, label %bb4
    i64 3, label %bb5
    i64 0, label %bb8
    i64 1, label %bb11
  ]

bb3:                                              ; preds = %bb2
; invoke core::panicking::panic
  invoke void @_ZN4core9panicking5panic17h1efed56daac899acE([0 x i8]* align 1 bitcast (<{ [40 x i8] }>* @alloc658 to [0 x i8]*), i64 40, %"core::panic::location::Location"* align 8 bitcast (<{ i8*, [16 x i8] }>* @alloc657 to %"core::panic::location::Location"*)) #16
          to label %unreachable unwind label %cleanup

bb4:                                              ; preds = %bb2
  %_11 = load i64, i64* %bits, align 8
  %_9 = ashr i64 %_11, 32
  %code = trunc i64 %_9 to i32
  %10 = bitcast %"std::io::error::ErrorData<alloc::boxed::Box<std::io::error::Custom>>"* %0 to %"std::io::error::ErrorData<alloc::boxed::Box<std::io::error::Custom>>::Os"*
  %11 = getelementptr inbounds %"std::io::error::ErrorData<alloc::boxed::Box<std::io::error::Custom>>::Os", %"std::io::error::ErrorData<alloc::boxed::Box<std::io::error::Custom>>::Os"* %10, i32 0, i32 1
  store i32 %code, i32* %11, align 4
  %12 = bitcast %"std::io::error::ErrorData<alloc::boxed::Box<std::io::error::Custom>>"* %0 to i8*
  store i8 0, i8* %12, align 8
  br label %bb17

bb5:                                              ; preds = %bb2
  %_15 = load i64, i64* %bits, align 8
  %_14 = lshr i64 %_15, 32
  %kind_bits = trunc i64 %_14 to i32
; invoke std::io::error::repr_bitpacked::kind_from_prim
  %_17 = invoke i8 @_ZN3std2io5error14repr_bitpacked14kind_from_prim17hecedb18643c0dd7eE(i32 %kind_bits)
          to label %bb6 unwind label %cleanup, !range !10

bb8:                                              ; preds = %bb2
; invoke core::ptr::non_null::NonNull<T>::cast
  %_25 = invoke i64* @"_ZN4core3ptr8non_null16NonNull$LT$T$GT$4cast17h9b21c027af18fc12E"(i8* %ptr)
          to label %bb9 unwind label %cleanup

bb11:                                             ; preds = %bb2
; invoke core::ptr::non_null::NonNull<T>::as_ptr
  %_30 = invoke {}* @"_ZN4core3ptr8non_null16NonNull$LT$T$GT$6as_ptr17h354de0dc25515eabE"(i8* %ptr)
          to label %bb12 unwind label %cleanup

unreachable:                                      ; preds = %bb3
  unreachable

bb12:                                             ; preds = %bb11
  %13 = bitcast {}* %_30 to i8*
  br label %bb13

bb13:                                             ; preds = %bb12
; invoke core::ptr::mut_ptr::<impl *mut T>::wrapping_sub
  %_28 = invoke i8* @"_ZN4core3ptr7mut_ptr31_$LT$impl$u20$$BP$mut$u20$T$GT$12wrapping_sub17he07ac483090619a9E"(i8* %13, i64 1)
          to label %bb14 unwind label %cleanup

bb14:                                             ; preds = %bb13
  %14 = bitcast i8* %_28 to %"std::io::error::Custom"*
  br label %bb15

bb15:                                             ; preds = %bb14
  store i8 0, i8* %_37, align 1
  %15 = bitcast i64** %_34 to %"std::io::error::Custom"**
  store %"std::io::error::Custom"* %14, %"std::io::error::Custom"** %15, align 8
  %16 = load i64*, i64** %_34, align 8
  %17 = bitcast i64* %16 to %"std::io::error::Custom"*
; invoke <std::io::error::repr_bitpacked::Repr as core::ops::drop::Drop>::drop::{{closure}}
  %_32 = invoke align 8 %"std::io::error::Custom"* @"_ZN78_$LT$std..io..error..repr_bitpacked..Repr$u20$as$u20$core..ops..drop..Drop$GT$4drop28_$u7b$$u7b$closure$u7d$$u7d$17ha79ba72a39a31787E"(%"std::io::error::Custom"* %17)
          to label %bb16 unwind label %cleanup

bb16:                                             ; preds = %bb15
  %18 = bitcast %"std::io::error::ErrorData<alloc::boxed::Box<std::io::error::Custom>>"* %0 to %"std::io::error::ErrorData<alloc::boxed::Box<std::io::error::Custom>>::Custom"*
  %19 = getelementptr inbounds %"std::io::error::ErrorData<alloc::boxed::Box<std::io::error::Custom>>::Custom", %"std::io::error::ErrorData<alloc::boxed::Box<std::io::error::Custom>>::Custom"* %18, i32 0, i32 1
  store %"std::io::error::Custom"* %_32, %"std::io::error::Custom"** %19, align 8
  %20 = bitcast %"std::io::error::ErrorData<alloc::boxed::Box<std::io::error::Custom>>"* %0 to i8*
  store i8 3, i8* %20, align 8
  br label %bb17

bb17:                                             ; preds = %bb4, %bb7, %bb10, %bb16
  %21 = load i8, i8* %_37, align 1, !range !2, !noundef !3
  %22 = trunc i8 %21 to i1
  br i1 %22, label %bb20, label %bb18

bb9:                                              ; preds = %bb8
; invoke core::ptr::non_null::NonNull<T>::as_ptr
  %_24 = invoke %"std::io::error::SimpleMessage"* @"_ZN4core3ptr8non_null16NonNull$LT$T$GT$6as_ptr17h6f94846b3c04e2c0E"(i64* %_25)
          to label %bb10 unwind label %cleanup

bb10:                                             ; preds = %bb9
  %23 = bitcast %"std::io::error::ErrorData<alloc::boxed::Box<std::io::error::Custom>>"* %0 to %"std::io::error::ErrorData<alloc::boxed::Box<std::io::error::Custom>>::SimpleMessage"*
  %24 = getelementptr inbounds %"std::io::error::ErrorData<alloc::boxed::Box<std::io::error::Custom>>::SimpleMessage", %"std::io::error::ErrorData<alloc::boxed::Box<std::io::error::Custom>>::SimpleMessage"* %23, i32 0, i32 1
  store %"std::io::error::SimpleMessage"* %_24, %"std::io::error::SimpleMessage"** %24, align 8
  %25 = bitcast %"std::io::error::ErrorData<alloc::boxed::Box<std::io::error::Custom>>"* %0 to i8*
  store i8 2, i8* %25, align 8
  br label %bb17

bb6:                                              ; preds = %bb5
  store i64* %bits, i64** %_19, align 8
  %26 = load i64*, i64** %_19, align 8, !nonnull !3, !align !8, !noundef !3
; invoke core::option::Option<T>::unwrap_or_else
  %kind = invoke i8 @"_ZN4core6option15Option$LT$T$GT$14unwrap_or_else17h66ebd028a52c824fE"(i8 %_17, i64* align 8 %26)
          to label %bb7 unwind label %cleanup, !range !9

bb7:                                              ; preds = %bb6
  %27 = bitcast %"std::io::error::ErrorData<alloc::boxed::Box<std::io::error::Custom>>"* %0 to %"std::io::error::ErrorData<alloc::boxed::Box<std::io::error::Custom>>::Simple"*
  %28 = getelementptr inbounds %"std::io::error::ErrorData<alloc::boxed::Box<std::io::error::Custom>>::Simple", %"std::io::error::ErrorData<alloc::boxed::Box<std::io::error::Custom>>::Simple"* %27, i32 0, i32 1
  store i8 %kind, i8* %28, align 1
  %29 = bitcast %"std::io::error::ErrorData<alloc::boxed::Box<std::io::error::Custom>>"* %0 to i8*
  store i8 1, i8* %29, align 8
  br label %bb17

bb19:                                             ; preds = %bb21, %bb22
  %30 = bitcast { i8*, i32 }* %1 to i8**
  %31 = load i8*, i8** %30, align 8
  %32 = getelementptr inbounds { i8*, i32 }, { i8*, i32 }* %1, i32 0, i32 1
  %33 = load i32, i32* %32, align 8
  %34 = insertvalue { i8*, i32 } undef, i8* %31, 0
  %35 = insertvalue { i8*, i32 } %34, i32 %33, 1
  resume { i8*, i32 } %35

bb21:                                             ; preds = %bb22
  br label %bb19

bb18:                                             ; preds = %bb20, %bb17
  ret void

bb20:                                             ; preds = %bb17
  br label %bb18
}

; std::io::error::repr_bitpacked::decode_repr::{{closure}}
; Function Attrs: inlinehint nonlazybind uwtable
define i8 @"_ZN3std2io5error14repr_bitpacked11decode_repr28_$u7b$$u7b$closure$u7d$$u7d$17ha1e61c62da321c00E"(i64* align 8 %_1) unnamed_addr #0 {
start:
; call core::hint::unreachable_unchecked
  call void @_ZN4core4hint21unreachable_unchecked17he36bd9722d6f5c7dE() #16
  unreachable
}

; std::io::error::repr_bitpacked::decode_repr::{{closure}}
; Function Attrs: inlinehint nonlazybind uwtable
define i8 @"_ZN3std2io5error14repr_bitpacked11decode_repr28_$u7b$$u7b$closure$u7d$$u7d$17hdb99c0d9cdab527bE"(i64* align 8 %_1) unnamed_addr #0 {
start:
; call core::hint::unreachable_unchecked
  call void @_ZN4core4hint21unreachable_unchecked17he36bd9722d6f5c7dE() #16
  unreachable
}

; std::io::error::repr_bitpacked::kind_from_prim
; Function Attrs: inlinehint nonlazybind uwtable
define internal i8 @_ZN3std2io5error14repr_bitpacked14kind_from_prim17hecedb18643c0dd7eE(i32 %0) unnamed_addr #0 {
start:
  %1 = alloca i8, align 1
  %ek = alloca i32, align 4
  store i32 %0, i32* %ek, align 4
  %_5 = load i32, i32* %ek, align 4
  %_4 = icmp eq i32 %_5, 0
  br i1 %_4, label %bb1, label %bb2

bb2:                                              ; preds = %start
  %_10 = load i32, i32* %ek, align 4
  %_9 = icmp eq i32 %_10, 1
  br i1 %_9, label %bb3, label %bb4

bb1:                                              ; preds = %start
  store i8 0, i8* %1, align 1
  br label %bb83

bb83:                                             ; preds = %bb82, %bb81, %bb79, %bb77, %bb75, %bb73, %bb71, %bb69, %bb67, %bb65, %bb63, %bb61, %bb59, %bb57, %bb55, %bb53, %bb51, %bb49, %bb47, %bb45, %bb43, %bb41, %bb39, %bb37, %bb35, %bb33, %bb31, %bb29, %bb27, %bb25, %bb23, %bb21, %bb19, %bb17, %bb15, %bb13, %bb11, %bb9, %bb7, %bb5, %bb3, %bb1
  %2 = load i8, i8* %1, align 1, !range !10, !noundef !3
  ret i8 %2

bb4:                                              ; preds = %bb2
  %_15 = load i32, i32* %ek, align 4
  %_14 = icmp eq i32 %_15, 2
  br i1 %_14, label %bb5, label %bb6

bb3:                                              ; preds = %bb2
  store i8 1, i8* %1, align 1
  br label %bb83

bb6:                                              ; preds = %bb4
  %_20 = load i32, i32* %ek, align 4
  %_19 = icmp eq i32 %_20, 3
  br i1 %_19, label %bb7, label %bb8

bb5:                                              ; preds = %bb4
  store i8 2, i8* %1, align 1
  br label %bb83

bb8:                                              ; preds = %bb6
  %_25 = load i32, i32* %ek, align 4
  %_24 = icmp eq i32 %_25, 4
  br i1 %_24, label %bb9, label %bb10

bb7:                                              ; preds = %bb6
  store i8 3, i8* %1, align 1
  br label %bb83

bb10:                                             ; preds = %bb8
  %_30 = load i32, i32* %ek, align 4
  %_29 = icmp eq i32 %_30, 5
  br i1 %_29, label %bb11, label %bb12

bb9:                                              ; preds = %bb8
  store i8 4, i8* %1, align 1
  br label %bb83

bb12:                                             ; preds = %bb10
  %_35 = load i32, i32* %ek, align 4
  %_34 = icmp eq i32 %_35, 6
  br i1 %_34, label %bb13, label %bb14

bb11:                                             ; preds = %bb10
  store i8 5, i8* %1, align 1
  br label %bb83

bb14:                                             ; preds = %bb12
  %_40 = load i32, i32* %ek, align 4
  %_39 = icmp eq i32 %_40, 7
  br i1 %_39, label %bb15, label %bb16

bb13:                                             ; preds = %bb12
  store i8 6, i8* %1, align 1
  br label %bb83

bb16:                                             ; preds = %bb14
  %_45 = load i32, i32* %ek, align 4
  %_44 = icmp eq i32 %_45, 8
  br i1 %_44, label %bb17, label %bb18

bb15:                                             ; preds = %bb14
  store i8 7, i8* %1, align 1
  br label %bb83

bb18:                                             ; preds = %bb16
  %_50 = load i32, i32* %ek, align 4
  %_49 = icmp eq i32 %_50, 9
  br i1 %_49, label %bb19, label %bb20

bb17:                                             ; preds = %bb16
  store i8 8, i8* %1, align 1
  br label %bb83

bb20:                                             ; preds = %bb18
  %_55 = load i32, i32* %ek, align 4
  %_54 = icmp eq i32 %_55, 10
  br i1 %_54, label %bb21, label %bb22

bb19:                                             ; preds = %bb18
  store i8 9, i8* %1, align 1
  br label %bb83

bb22:                                             ; preds = %bb20
  %_60 = load i32, i32* %ek, align 4
  %_59 = icmp eq i32 %_60, 11
  br i1 %_59, label %bb23, label %bb24

bb21:                                             ; preds = %bb20
  store i8 10, i8* %1, align 1
  br label %bb83

bb24:                                             ; preds = %bb22
  %_65 = load i32, i32* %ek, align 4
  %_64 = icmp eq i32 %_65, 12
  br i1 %_64, label %bb25, label %bb26

bb23:                                             ; preds = %bb22
  store i8 11, i8* %1, align 1
  br label %bb83

bb26:                                             ; preds = %bb24
  %_70 = load i32, i32* %ek, align 4
  %_69 = icmp eq i32 %_70, 13
  br i1 %_69, label %bb27, label %bb28

bb25:                                             ; preds = %bb24
  store i8 12, i8* %1, align 1
  br label %bb83

bb28:                                             ; preds = %bb26
  %_75 = load i32, i32* %ek, align 4
  %_74 = icmp eq i32 %_75, 14
  br i1 %_74, label %bb29, label %bb30

bb27:                                             ; preds = %bb26
  store i8 13, i8* %1, align 1
  br label %bb83

bb30:                                             ; preds = %bb28
  %_80 = load i32, i32* %ek, align 4
  %_79 = icmp eq i32 %_80, 15
  br i1 %_79, label %bb31, label %bb32

bb29:                                             ; preds = %bb28
  store i8 14, i8* %1, align 1
  br label %bb83

bb32:                                             ; preds = %bb30
  %_85 = load i32, i32* %ek, align 4
  %_84 = icmp eq i32 %_85, 16
  br i1 %_84, label %bb33, label %bb34

bb31:                                             ; preds = %bb30
  store i8 15, i8* %1, align 1
  br label %bb83

bb34:                                             ; preds = %bb32
  %_90 = load i32, i32* %ek, align 4
  %_89 = icmp eq i32 %_90, 17
  br i1 %_89, label %bb35, label %bb36

bb33:                                             ; preds = %bb32
  store i8 16, i8* %1, align 1
  br label %bb83

bb36:                                             ; preds = %bb34
  %_95 = load i32, i32* %ek, align 4
  %_94 = icmp eq i32 %_95, 18
  br i1 %_94, label %bb37, label %bb38

bb35:                                             ; preds = %bb34
  store i8 17, i8* %1, align 1
  br label %bb83

bb38:                                             ; preds = %bb36
  %_100 = load i32, i32* %ek, align 4
  %_99 = icmp eq i32 %_100, 19
  br i1 %_99, label %bb39, label %bb40

bb37:                                             ; preds = %bb36
  store i8 18, i8* %1, align 1
  br label %bb83

bb40:                                             ; preds = %bb38
  %_105 = load i32, i32* %ek, align 4
  %_104 = icmp eq i32 %_105, 20
  br i1 %_104, label %bb41, label %bb42

bb39:                                             ; preds = %bb38
  store i8 19, i8* %1, align 1
  br label %bb83

bb42:                                             ; preds = %bb40
  %_110 = load i32, i32* %ek, align 4
  %_109 = icmp eq i32 %_110, 21
  br i1 %_109, label %bb43, label %bb44

bb41:                                             ; preds = %bb40
  store i8 20, i8* %1, align 1
  br label %bb83

bb44:                                             ; preds = %bb42
  %_115 = load i32, i32* %ek, align 4
  %_114 = icmp eq i32 %_115, 22
  br i1 %_114, label %bb45, label %bb46

bb43:                                             ; preds = %bb42
  store i8 21, i8* %1, align 1
  br label %bb83

bb46:                                             ; preds = %bb44
  %_120 = load i32, i32* %ek, align 4
  %_119 = icmp eq i32 %_120, 23
  br i1 %_119, label %bb47, label %bb48

bb45:                                             ; preds = %bb44
  store i8 22, i8* %1, align 1
  br label %bb83

bb48:                                             ; preds = %bb46
  %_125 = load i32, i32* %ek, align 4
  %_124 = icmp eq i32 %_125, 24
  br i1 %_124, label %bb49, label %bb50

bb47:                                             ; preds = %bb46
  store i8 23, i8* %1, align 1
  br label %bb83

bb50:                                             ; preds = %bb48
  %_130 = load i32, i32* %ek, align 4
  %_129 = icmp eq i32 %_130, 25
  br i1 %_129, label %bb51, label %bb52

bb49:                                             ; preds = %bb48
  store i8 24, i8* %1, align 1
  br label %bb83

bb52:                                             ; preds = %bb50
  %_135 = load i32, i32* %ek, align 4
  %_134 = icmp eq i32 %_135, 26
  br i1 %_134, label %bb53, label %bb54

bb51:                                             ; preds = %bb50
  store i8 25, i8* %1, align 1
  br label %bb83

bb54:                                             ; preds = %bb52
  %_140 = load i32, i32* %ek, align 4
  %_139 = icmp eq i32 %_140, 27
  br i1 %_139, label %bb55, label %bb56

bb53:                                             ; preds = %bb52
  store i8 26, i8* %1, align 1
  br label %bb83

bb56:                                             ; preds = %bb54
  %_145 = load i32, i32* %ek, align 4
  %_144 = icmp eq i32 %_145, 28
  br i1 %_144, label %bb57, label %bb58

bb55:                                             ; preds = %bb54
  store i8 27, i8* %1, align 1
  br label %bb83

bb58:                                             ; preds = %bb56
  %_150 = load i32, i32* %ek, align 4
  %_149 = icmp eq i32 %_150, 29
  br i1 %_149, label %bb59, label %bb60

bb57:                                             ; preds = %bb56
  store i8 28, i8* %1, align 1
  br label %bb83

bb60:                                             ; preds = %bb58
  %_155 = load i32, i32* %ek, align 4
  %_154 = icmp eq i32 %_155, 30
  br i1 %_154, label %bb61, label %bb62

bb59:                                             ; preds = %bb58
  store i8 29, i8* %1, align 1
  br label %bb83

bb62:                                             ; preds = %bb60
  %_160 = load i32, i32* %ek, align 4
  %_159 = icmp eq i32 %_160, 31
  br i1 %_159, label %bb63, label %bb64

bb61:                                             ; preds = %bb60
  store i8 30, i8* %1, align 1
  br label %bb83

bb64:                                             ; preds = %bb62
  %_165 = load i32, i32* %ek, align 4
  %_164 = icmp eq i32 %_165, 32
  br i1 %_164, label %bb65, label %bb66

bb63:                                             ; preds = %bb62
  store i8 31, i8* %1, align 1
  br label %bb83

bb66:                                             ; preds = %bb64
  %_170 = load i32, i32* %ek, align 4
  %_169 = icmp eq i32 %_170, 33
  br i1 %_169, label %bb67, label %bb68

bb65:                                             ; preds = %bb64
  store i8 32, i8* %1, align 1
  br label %bb83

bb68:                                             ; preds = %bb66
  %_175 = load i32, i32* %ek, align 4
  %_174 = icmp eq i32 %_175, 34
  br i1 %_174, label %bb69, label %bb70

bb67:                                             ; preds = %bb66
  store i8 33, i8* %1, align 1
  br label %bb83

bb70:                                             ; preds = %bb68
  %_180 = load i32, i32* %ek, align 4
  %_179 = icmp eq i32 %_180, 35
  br i1 %_179, label %bb71, label %bb72

bb69:                                             ; preds = %bb68
  store i8 34, i8* %1, align 1
  br label %bb83

bb72:                                             ; preds = %bb70
  %_185 = load i32, i32* %ek, align 4
  %_184 = icmp eq i32 %_185, 39
  br i1 %_184, label %bb73, label %bb74

bb71:                                             ; preds = %bb70
  store i8 35, i8* %1, align 1
  br label %bb83

bb74:                                             ; preds = %bb72
  %_190 = load i32, i32* %ek, align 4
  %_189 = icmp eq i32 %_190, 37
  br i1 %_189, label %bb75, label %bb76

bb73:                                             ; preds = %bb72
  store i8 39, i8* %1, align 1
  br label %bb83

bb76:                                             ; preds = %bb74
  %_195 = load i32, i32* %ek, align 4
  %_194 = icmp eq i32 %_195, 36
  br i1 %_194, label %bb77, label %bb78

bb75:                                             ; preds = %bb74
  store i8 37, i8* %1, align 1
  br label %bb83

bb78:                                             ; preds = %bb76
  %_200 = load i32, i32* %ek, align 4
  %_199 = icmp eq i32 %_200, 38
  br i1 %_199, label %bb79, label %bb80

bb77:                                             ; preds = %bb76
  store i8 36, i8* %1, align 1
  br label %bb83

bb80:                                             ; preds = %bb78
  %_205 = load i32, i32* %ek, align 4
  %_204 = icmp eq i32 %_205, 40
  br i1 %_204, label %bb81, label %bb82

bb79:                                             ; preds = %bb78
  store i8 38, i8* %1, align 1
  br label %bb83

bb82:                                             ; preds = %bb80
  store i8 41, i8* %1, align 1
  br label %bb83

bb81:                                             ; preds = %bb80
  store i8 40, i8* %1, align 1
  br label %bb83
}

; std::io::error::repr_bitpacked::Repr::new_simple_message
; Function Attrs: inlinehint nonlazybind uwtable
define internal i8* @_ZN3std2io5error14repr_bitpacked4Repr18new_simple_message17h4c49cefe9604dc68E(%"std::io::error::SimpleMessage"* align 8 %m) unnamed_addr #0 {
start:
  %0 = alloca i8*, align 8
  %_3 = bitcast %"std::io::error::SimpleMessage"* %m to {}*
; call core::ptr::non_null::NonNull<T>::new_unchecked
  %_2 = call i8* @"_ZN4core3ptr8non_null16NonNull$LT$T$GT$13new_unchecked17h660131231ad28a8aE"({}* %_3)
  br label %bb1

bb1:                                              ; preds = %start
  store i8* %_2, i8** %0, align 8
  %1 = load i8*, i8** %0, align 8, !nonnull !3, !noundef !3
  ret i8* %1
}

; std::io::error::repr_bitpacked::Repr::data
; Function Attrs: inlinehint nonlazybind uwtable
define internal void @_ZN3std2io5error14repr_bitpacked4Repr4data17he106b01c56c8f702E(%"std::io::error::ErrorData<&std::io::error::Custom>"* sret(%"std::io::error::ErrorData<&std::io::error::Custom>") %0, i8** align 8 %self) unnamed_addr #0 {
start:
  %_2 = load i8*, i8** %self, align 8, !nonnull !3, !noundef !3
; call std::io::error::repr_bitpacked::decode_repr
  call void @_ZN3std2io5error14repr_bitpacked11decode_repr17h0471ca073c727322E(%"std::io::error::ErrorData<&std::io::error::Custom>"* sret(%"std::io::error::ErrorData<&std::io::error::Custom>") %0, i8* %_2)
  br label %bb1

bb1:                                              ; preds = %start
  ret void
}

; std::io::error::repr_bitpacked::Repr::data::{{closure}}
; Function Attrs: inlinehint nonlazybind uwtable
define align 8 %"std::io::error::Custom"* @"_ZN3std2io5error14repr_bitpacked4Repr4data28_$u7b$$u7b$closure$u7d$$u7d$17h81f04933d3e0cfe6E"(%"std::io::error::Custom"* %c) unnamed_addr #0 {
start:
  ret %"std::io::error::Custom"* %c
}

; std::io::error::Error::from_static_message
; Function Attrs: inlinehint nonlazybind uwtable
define internal i8* @_ZN3std2io5error5Error19from_static_message17h13e557da5018ca10E(%"std::io::error::SimpleMessage"* align 8 %msg) unnamed_addr #0 {
start:
  %0 = alloca i8*, align 8
; call std::io::error::repr_bitpacked::Repr::new_simple_message
  %_2 = call i8* @_ZN3std2io5error14repr_bitpacked4Repr18new_simple_message17h4c49cefe9604dc68E(%"std::io::error::SimpleMessage"* align 8 %msg)
  br label %bb1

bb1:                                              ; preds = %start
  store i8* %_2, i8** %0, align 8
  %1 = load i8*, i8** %0, align 8, !nonnull !3, !noundef !3
  ret i8* %1
}

; std::io::error::Error::kind
; Function Attrs: inlinehint nonlazybind uwtable
define internal i8 @_ZN3std2io5error5Error4kind17h3290eed79eac23d4E(i8** align 8 %self) unnamed_addr #0 {
start:
  %_2 = alloca %"std::io::error::ErrorData<&std::io::error::Custom>", align 8
  %0 = alloca i8, align 1
; call std::io::error::repr_bitpacked::Repr::data
  call void @_ZN3std2io5error14repr_bitpacked4Repr4data17he106b01c56c8f702E(%"std::io::error::ErrorData<&std::io::error::Custom>"* sret(%"std::io::error::ErrorData<&std::io::error::Custom>") %_2, i8** align 8 %self)
  br label %bb1

bb1:                                              ; preds = %start
  %1 = bitcast %"std::io::error::ErrorData<&std::io::error::Custom>"* %_2 to i8*
  %2 = load i8, i8* %1, align 8, !range !11, !noundef !3
  %_4 = zext i8 %2 to i64
  switch i64 %_4, label %bb3 [
    i64 0, label %bb4
    i64 1, label %bb7
    i64 2, label %bb2
    i64 3, label %bb6
  ]

bb3:                                              ; preds = %bb1
  unreachable

bb4:                                              ; preds = %bb1
  %3 = bitcast %"std::io::error::ErrorData<&std::io::error::Custom>"* %_2 to %"std::io::error::ErrorData<&std::io::error::Custom>::Os"*
  %4 = getelementptr inbounds %"std::io::error::ErrorData<&std::io::error::Custom>::Os", %"std::io::error::ErrorData<&std::io::error::Custom>::Os"* %3, i32 0, i32 1
  %code = load i32, i32* %4, align 4
; call std::sys::unix::decode_error_kind
  %5 = call i8 @_ZN3std3sys4unix17decode_error_kind17hc6c2f8ac2883b3fbE(i32 %code), !range !9
  store i8 %5, i8* %0, align 1
  br label %bb5

bb7:                                              ; preds = %bb1
  %6 = bitcast %"std::io::error::ErrorData<&std::io::error::Custom>"* %_2 to %"std::io::error::ErrorData<&std::io::error::Custom>::Simple"*
  %7 = getelementptr inbounds %"std::io::error::ErrorData<&std::io::error::Custom>::Simple", %"std::io::error::ErrorData<&std::io::error::Custom>::Simple"* %6, i32 0, i32 1
  %kind = load i8, i8* %7, align 1, !range !9, !noundef !3
  store i8 %kind, i8* %0, align 1
  br label %bb8

bb2:                                              ; preds = %bb1
  %8 = bitcast %"std::io::error::ErrorData<&std::io::error::Custom>"* %_2 to %"std::io::error::ErrorData<&std::io::error::Custom>::SimpleMessage"*
  %9 = getelementptr inbounds %"std::io::error::ErrorData<&std::io::error::Custom>::SimpleMessage", %"std::io::error::ErrorData<&std::io::error::Custom>::SimpleMessage"* %8, i32 0, i32 1
  %m = load %"std::io::error::SimpleMessage"*, %"std::io::error::SimpleMessage"** %9, align 8, !nonnull !3, !align !8, !noundef !3
  %10 = getelementptr inbounds %"std::io::error::SimpleMessage", %"std::io::error::SimpleMessage"* %m, i32 0, i32 1
  %11 = load i8, i8* %10, align 8, !range !9, !noundef !3
  store i8 %11, i8* %0, align 1
  br label %bb8

bb6:                                              ; preds = %bb1
  %12 = bitcast %"std::io::error::ErrorData<&std::io::error::Custom>"* %_2 to %"std::io::error::ErrorData<&std::io::error::Custom>::Custom"*
  %13 = getelementptr inbounds %"std::io::error::ErrorData<&std::io::error::Custom>::Custom", %"std::io::error::ErrorData<&std::io::error::Custom>::Custom"* %12, i32 0, i32 1
  %c = load %"std::io::error::Custom"*, %"std::io::error::Custom"** %13, align 8, !nonnull !3, !align !8, !noundef !3
  %14 = getelementptr inbounds %"std::io::error::Custom", %"std::io::error::Custom"* %c, i32 0, i32 1
  %15 = load i8, i8* %14, align 8, !range !9, !noundef !3
  store i8 %15, i8* %0, align 1
  br label %bb8

bb8:                                              ; preds = %bb5, %bb7, %bb2, %bb6
  %16 = load i8, i8* %0, align 1, !range !9, !noundef !3
  ret i8 %16

bb5:                                              ; preds = %bb4
  br label %bb8
}

; std::ffi::os_str::OsStr::from_inner
; Function Attrs: inlinehint nonlazybind uwtable
define internal { %"std::ffi::os_str::OsStr"*, i64 } @_ZN3std3ffi6os_str5OsStr10from_inner17he73f39e06dcce55cE(%"std::sys::unix::os_str::Slice"* align 1 %inner.0, i64 %inner.1) unnamed_addr #0 {
start:
  %_2.0 = bitcast %"std::sys::unix::os_str::Slice"* %inner.0 to %"std::ffi::os_str::OsStr"*
  %0 = insertvalue { %"std::ffi::os_str::OsStr"*, i64 } undef, %"std::ffi::os_str::OsStr"* %_2.0, 0
  %1 = insertvalue { %"std::ffi::os_str::OsStr"*, i64 } %0, i64 %inner.1, 1
  ret { %"std::ffi::os_str::OsStr"*, i64 } %1
}

; std::ffi::os_str::<impl core::convert::AsRef<std::ffi::os_str::OsStr> for str>::as_ref
; Function Attrs: inlinehint nonlazybind uwtable
define internal { %"std::ffi::os_str::OsStr"*, i64 } @"_ZN3std3ffi6os_str85_$LT$impl$u20$core..convert..AsRef$LT$std..ffi..os_str..OsStr$GT$$u20$for$u20$str$GT$6as_ref17h572200d01c081a5cE"([0 x i8]* align 1 %self.0, i64 %self.1) unnamed_addr #0 {
start:
; call std::sys::unix::os_str::Slice::from_str
  %0 = call { %"std::sys::unix::os_str::Slice"*, i64 } @_ZN3std3sys4unix6os_str5Slice8from_str17hbbfe2b3bf0788d2fE([0 x i8]* align 1 %self.0, i64 %self.1)
  %_3.0 = extractvalue { %"std::sys::unix::os_str::Slice"*, i64 } %0, 0
  %_3.1 = extractvalue { %"std::sys::unix::os_str::Slice"*, i64 } %0, 1
  br label %bb1

bb1:                                              ; preds = %start
; call std::ffi::os_str::OsStr::from_inner
  %1 = call { %"std::ffi::os_str::OsStr"*, i64 } @_ZN3std3ffi6os_str5OsStr10from_inner17he73f39e06dcce55cE(%"std::sys::unix::os_str::Slice"* align 1 %_3.0, i64 %_3.1)
  %2 = extractvalue { %"std::ffi::os_str::OsStr"*, i64 } %1, 0
  %3 = extractvalue { %"std::ffi::os_str::OsStr"*, i64 } %1, 1
  br label %bb2

bb2:                                              ; preds = %bb1
  %4 = insertvalue { %"std::ffi::os_str::OsStr"*, i64 } undef, %"std::ffi::os_str::OsStr"* %2, 0
  %5 = insertvalue { %"std::ffi::os_str::OsStr"*, i64 } %4, i64 %3, 1
  ret { %"std::ffi::os_str::OsStr"*, i64 } %5
}

; std::sys::unix::locks::futex::Mutex::new
; Function Attrs: inlinehint nonlazybind uwtable
define internal i32 @_ZN3std3sys4unix5locks5futex5Mutex3new17h0320f81318398a9cE() unnamed_addr #0 {
start:
  %0 = alloca i32, align 4
  %_1 = alloca %"core::sync::atomic::AtomicU32", align 4
  %1 = alloca %"std::sys::unix::locks::futex::Mutex", align 4
; call core::sync::atomic::AtomicU32::new
  %2 = call i32 @_ZN4core4sync6atomic9AtomicU323new17h6a848cb390595eacE(i32 0)
  store i32 %2, i32* %0, align 4
  %3 = bitcast %"core::sync::atomic::AtomicU32"* %_1 to i8*
  %4 = bitcast i32* %0 to i8*
  call void @llvm.memcpy.p0i8.p0i8.i64(i8* align 4 %3, i8* align 4 %4, i64 4, i1 false)
  br label %bb1

bb1:                                              ; preds = %start
  %5 = bitcast %"std::sys::unix::locks::futex::Mutex"* %1 to %"core::sync::atomic::AtomicU32"*
  %6 = bitcast %"core::sync::atomic::AtomicU32"* %5 to i8*
  %7 = bitcast %"core::sync::atomic::AtomicU32"* %_1 to i8*
  call void @llvm.memcpy.p0i8.p0i8.i64(i8* align 4 %6, i8* align 4 %7, i64 4, i1 false)
  %8 = bitcast %"std::sys::unix::locks::futex::Mutex"* %1 to i32*
  %9 = load i32, i32* %8, align 4
  ret i32 %9
}

; std::sys::unix::locks::futex::Mutex::lock
; Function Attrs: inlinehint nonlazybind uwtable
define internal void @_ZN3std3sys4unix5locks5futex5Mutex4lock17hebaaf8cf282d1eb8E(%"std::sys::unix::locks::futex::Mutex"* align 4 %self) unnamed_addr #0 {
start:
  %_7 = alloca i8, align 1
  %_6 = alloca i8, align 1
  %_4 = alloca { i32, i32 }, align 4
  %_5 = bitcast %"std::sys::unix::locks::futex::Mutex"* %self to %"core::sync::atomic::AtomicU32"*
  store i8 2, i8* %_6, align 1
  store i8 0, i8* %_7, align 1
  %0 = load i8, i8* %_6, align 1, !range !12, !noundef !3
  %1 = load i8, i8* %_7, align 1, !range !12, !noundef !3
; call core::sync::atomic::AtomicU32::compare_exchange
  %2 = call { i32, i32 } @_ZN4core4sync6atomic9AtomicU3216compare_exchange17hdd65b8796c108cf2E(%"core::sync::atomic::AtomicU32"* align 4 %_5, i32 0, i32 1, i8 %0, i8 %1)
  store { i32, i32 } %2, { i32, i32 }* %_4, align 4
  br label %bb1

bb1:                                              ; preds = %start
; call core::result::Result<T,E>::is_err
  %_2 = call zeroext i1 @"_ZN4core6result19Result$LT$T$C$E$GT$6is_err17h60ee057c9c7fe3b3E"({ i32, i32 }* align 4 %_4)
  br label %bb2

bb2:                                              ; preds = %bb1
  br i1 %_2, label %bb3, label %bb5

bb5:                                              ; preds = %bb4, %bb2
  ret void

bb3:                                              ; preds = %bb2
; call std::sys::unix::locks::futex::Mutex::lock_contended
  call void @_ZN3std3sys4unix5locks5futex5Mutex14lock_contended17h2b2c34d3d35da8a3E(%"std::sys::unix::locks::futex::Mutex"* align 4 %self)
  br label %bb4

bb4:                                              ; preds = %bb3
  br label %bb5
}

; std::sys::unix::locks::futex::Mutex::unlock
; Function Attrs: inlinehint nonlazybind uwtable
define internal void @_ZN3std3sys4unix5locks5futex5Mutex6unlock17h4ef5422a83d44a02E(%"std::sys::unix::locks::futex::Mutex"* align 4 %self) unnamed_addr #0 {
start:
  %_4 = alloca i8, align 1
  %_3 = bitcast %"std::sys::unix::locks::futex::Mutex"* %self to %"core::sync::atomic::AtomicU32"*
  store i8 1, i8* %_4, align 1
  %0 = load i8, i8* %_4, align 1, !range !12, !noundef !3
; call core::sync::atomic::AtomicU32::swap
  %_2 = call i32 @_ZN4core4sync6atomic9AtomicU324swap17h4f2c8964d1f6135cE(%"core::sync::atomic::AtomicU32"* align 4 %_3, i32 0, i8 %0)
  br label %bb1

bb1:                                              ; preds = %start
  %1 = icmp eq i32 %_2, 2
  br i1 %1, label %bb2, label %bb4

bb2:                                              ; preds = %bb1
; call std::sys::unix::locks::futex::Mutex::wake
  call void @_ZN3std3sys4unix5locks5futex5Mutex4wake17h2c0716e4d3c63bd3E(%"std::sys::unix::locks::futex::Mutex"* align 4 %self)
  br label %bb3

bb4:                                              ; preds = %bb1
  br label %bb5

bb5:                                              ; preds = %bb3, %bb4
  ret void

bb3:                                              ; preds = %bb2
  br label %bb5
}

; std::sys::unix::locks::futex::Condvar::new
; Function Attrs: inlinehint nonlazybind uwtable
define internal i32 @_ZN3std3sys4unix5locks5futex7Condvar3new17h50339753cc4f5a8aE() unnamed_addr #0 {
start:
  %0 = alloca i32, align 4
  %_1 = alloca %"core::sync::atomic::AtomicU32", align 4
  %1 = alloca %"std::sys::unix::locks::futex::Condvar", align 4
; call core::sync::atomic::AtomicU32::new
  %2 = call i32 @_ZN4core4sync6atomic9AtomicU323new17h6a848cb390595eacE(i32 0)
  store i32 %2, i32* %0, align 4
  %3 = bitcast %"core::sync::atomic::AtomicU32"* %_1 to i8*
  %4 = bitcast i32* %0 to i8*
  call void @llvm.memcpy.p0i8.p0i8.i64(i8* align 4 %3, i8* align 4 %4, i64 4, i1 false)
  br label %bb1

bb1:                                              ; preds = %start
  %5 = bitcast %"std::sys::unix::locks::futex::Condvar"* %1 to %"core::sync::atomic::AtomicU32"*
  %6 = bitcast %"core::sync::atomic::AtomicU32"* %5 to i8*
  %7 = bitcast %"core::sync::atomic::AtomicU32"* %_1 to i8*
  call void @llvm.memcpy.p0i8.p0i8.i64(i8* align 4 %6, i8* align 4 %7, i64 4, i1 false)
  %8 = bitcast %"std::sys::unix::locks::futex::Condvar"* %1 to i32*
  %9 = load i32, i32* %8, align 4
  ret i32 %9
}

; std::sys::unix::os_str::Slice::from_u8_slice
; Function Attrs: inlinehint nonlazybind uwtable
define internal { %"std::sys::unix::os_str::Slice"*, i64 } @_ZN3std3sys4unix6os_str5Slice13from_u8_slice17hbf3957f44d49890cE([0 x i8]* align 1 %s.0, i64 %s.1) unnamed_addr #0 {
start:
  %0 = alloca { %"std::sys::unix::os_str::Slice"*, i64 }, align 8
  %1 = bitcast { %"std::sys::unix::os_str::Slice"*, i64 }* %0 to { [0 x i8]*, i64 }*
  %2 = getelementptr inbounds { [0 x i8]*, i64 }, { [0 x i8]*, i64 }* %1, i32 0, i32 0
  store [0 x i8]* %s.0, [0 x i8]** %2, align 8
  %3 = getelementptr inbounds { [0 x i8]*, i64 }, { [0 x i8]*, i64 }* %1, i32 0, i32 1
  store i64 %s.1, i64* %3, align 8
  %4 = getelementptr inbounds { %"std::sys::unix::os_str::Slice"*, i64 }, { %"std::sys::unix::os_str::Slice"*, i64 }* %0, i32 0, i32 0
  %5 = load %"std::sys::unix::os_str::Slice"*, %"std::sys::unix::os_str::Slice"** %4, align 8, !nonnull !3, !align !4, !noundef !3
  %6 = getelementptr inbounds { %"std::sys::unix::os_str::Slice"*, i64 }, { %"std::sys::unix::os_str::Slice"*, i64 }* %0, i32 0, i32 1
  %7 = load i64, i64* %6, align 8
  br label %bb1

bb1:                                              ; preds = %start
  %8 = insertvalue { %"std::sys::unix::os_str::Slice"*, i64 } undef, %"std::sys::unix::os_str::Slice"* %5, 0
  %9 = insertvalue { %"std::sys::unix::os_str::Slice"*, i64 } %8, i64 %7, 1
  ret { %"std::sys::unix::os_str::Slice"*, i64 } %9
}

; std::sys::unix::os_str::Slice::from_str
; Function Attrs: inlinehint nonlazybind uwtable
define internal { %"std::sys::unix::os_str::Slice"*, i64 } @_ZN3std3sys4unix6os_str5Slice8from_str17hbbfe2b3bf0788d2fE([0 x i8]* align 1 %s.0, i64 %s.1) unnamed_addr #0 {
start:
  %0 = alloca { [0 x i8]*, i64 }, align 8
  %1 = getelementptr inbounds { [0 x i8]*, i64 }, { [0 x i8]*, i64 }* %0, i32 0, i32 0
  store [0 x i8]* %s.0, [0 x i8]** %1, align 8
  %2 = getelementptr inbounds { [0 x i8]*, i64 }, { [0 x i8]*, i64 }* %0, i32 0, i32 1
  store i64 %s.1, i64* %2, align 8
  %3 = getelementptr inbounds { [0 x i8]*, i64 }, { [0 x i8]*, i64 }* %0, i32 0, i32 0
  %4 = load [0 x i8]*, [0 x i8]** %3, align 8, !nonnull !3, !align !4, !noundef !3
  %5 = getelementptr inbounds { [0 x i8]*, i64 }, { [0 x i8]*, i64 }* %0, i32 0, i32 1
  %6 = load i64, i64* %5, align 8
  %7 = insertvalue { [0 x i8]*, i64 } undef, [0 x i8]* %4, 0
  %8 = insertvalue { [0 x i8]*, i64 } %7, i64 %6, 1
  %_3.0 = extractvalue { [0 x i8]*, i64 } %8, 0
  %_3.1 = extractvalue { [0 x i8]*, i64 } %8, 1
  br label %bb1

bb1:                                              ; preds = %start
; call std::sys::unix::os_str::Slice::from_u8_slice
  %9 = call { %"std::sys::unix::os_str::Slice"*, i64 } @_ZN3std3sys4unix6os_str5Slice13from_u8_slice17hbf3957f44d49890cE([0 x i8]* align 1 %_3.0, i64 %_3.1)
  %10 = extractvalue { %"std::sys::unix::os_str::Slice"*, i64 } %9, 0
  %11 = extractvalue { %"std::sys::unix::os_str::Slice"*, i64 } %9, 1
  br label %bb2

bb2:                                              ; preds = %bb1
  %12 = insertvalue { %"std::sys::unix::os_str::Slice"*, i64 } undef, %"std::sys::unix::os_str::Slice"* %10, 0
  %13 = insertvalue { %"std::sys::unix::os_str::Slice"*, i64 } %12, i64 %11, 1
  ret { %"std::sys::unix::os_str::Slice"*, i64 } %13
}

; std::path::Path::new
; Function Attrs: nonlazybind uwtable
define { %"std::path::Path"*, i64 } @_ZN3std4path4Path3new17hd268ca2e37986029E([0 x i8]* align 1 %s.0, i64 %s.1) unnamed_addr #1 {
start:
; call std::ffi::os_str::<impl core::convert::AsRef<std::ffi::os_str::OsStr> for str>::as_ref
  %0 = call { %"std::ffi::os_str::OsStr"*, i64 } @"_ZN3std3ffi6os_str85_$LT$impl$u20$core..convert..AsRef$LT$std..ffi..os_str..OsStr$GT$$u20$for$u20$str$GT$6as_ref17h572200d01c081a5cE"([0 x i8]* align 1 %s.0, i64 %s.1)
  %_4.0 = extractvalue { %"std::ffi::os_str::OsStr"*, i64 } %0, 0
  %_4.1 = extractvalue { %"std::ffi::os_str::OsStr"*, i64 } %0, 1
  br label %bb1

bb1:                                              ; preds = %start
  %_2.0 = bitcast %"std::ffi::os_str::OsStr"* %_4.0 to %"std::path::Path"*
  %1 = insertvalue { %"std::path::Path"*, i64 } undef, %"std::path::Path"* %_2.0, 0
  %2 = insertvalue { %"std::path::Path"*, i64 } %1, i64 %_4.1, 1
  ret { %"std::path::Path"*, i64 } %2
}

; std::path::<impl core::convert::AsRef<std::path::Path> for str>::as_ref
; Function Attrs: inlinehint nonlazybind uwtable
define internal { %"std::path::Path"*, i64 } @"_ZN3std4path77_$LT$impl$u20$core..convert..AsRef$LT$std..path..Path$GT$$u20$for$u20$str$GT$6as_ref17h36d54f2eb451c02cE"([0 x i8]* align 1 %self.0, i64 %self.1) unnamed_addr #0 {
start:
; call std::path::Path::new
  %0 = call { %"std::path::Path"*, i64 } @_ZN3std4path4Path3new17hd268ca2e37986029E([0 x i8]* align 1 %self.0, i64 %self.1)
  %1 = extractvalue { %"std::path::Path"*, i64 } %0, 0
  %2 = extractvalue { %"std::path::Path"*, i64 } %0, 1
  br label %bb1

bb1:                                              ; preds = %start
  %3 = insertvalue { %"std::path::Path"*, i64 } undef, %"std::path::Path"* %1, 0
  %4 = insertvalue { %"std::path::Path"*, i64 } %3, i64 %2, 1
  ret { %"std::path::Path"*, i64 } %4
}

; std::sync::mutex::guard_lock
; Function Attrs: nonlazybind uwtable
define align 4 %"std::sys_common::mutex::MovableMutex"* @_ZN3std4sync5mutex10guard_lock17hbc2b1c5ee0782ecaE({ i32*, i8 }* align 8 %guard) unnamed_addr #1 {
start:
  %0 = bitcast { i32*, i8 }* %guard to %"std::sync::mutex::Mutex<i32>"**
  %_2 = load %"std::sync::mutex::Mutex<i32>"*, %"std::sync::mutex::Mutex<i32>"** %0, align 8, !nonnull !3, !align !13, !noundef !3
  %1 = bitcast %"std::sync::mutex::Mutex<i32>"* %_2 to %"std::sys_common::mutex::MovableMutex"*
  ret %"std::sys_common::mutex::MovableMutex"* %1
}

; std::sync::mutex::guard_poison
; Function Attrs: nonlazybind uwtable
define align 1 %"std::sync::poison::Flag"* @_ZN3std4sync5mutex12guard_poison17h2c0cff045a9eff05E({ i32*, i8 }* align 8 %guard) unnamed_addr #1 {
start:
  %0 = bitcast { i32*, i8 }* %guard to %"std::sync::mutex::Mutex<i32>"**
  %_2 = load %"std::sync::mutex::Mutex<i32>"*, %"std::sync::mutex::Mutex<i32>"** %0, align 8, !nonnull !3, !align !13, !noundef !3
  %1 = getelementptr inbounds %"std::sync::mutex::Mutex<i32>", %"std::sync::mutex::Mutex<i32>"* %_2, i32 0, i32 1
  ret %"std::sync::poison::Flag"* %1
}

; std::sync::mutex::Mutex<T>::new
; Function Attrs: inlinehint nonlazybind uwtable
define void @"_ZN3std4sync5mutex14Mutex$LT$T$GT$3new17h56f2fedaa4d6e0bbE"(%"std::sync::mutex::Mutex<alloc::vec::Vec<alloc::vec::Vec<_ProbeNode>>>"* sret(%"std::sync::mutex::Mutex<alloc::vec::Vec<alloc::vec::Vec<_ProbeNode>>>") %0, %"alloc::vec::Vec<alloc::vec::Vec<_ProbeNode>>"* %t) unnamed_addr #0 personality i32 (i32, i32, i64, %"unwind::libunwind::_Unwind_Exception"*, %"unwind::libunwind::_Unwind_Context"*)* @rust_eh_personality {
start:
  %_2.i = alloca %"alloc::vec::Vec<alloc::vec::Vec<_ProbeNode>>", align 8
  %1 = alloca i8, align 1
  %2 = alloca i32, align 4
  %3 = alloca { i8*, i32 }, align 8
  %_6 = alloca i8, align 1
  %_5 = alloca %"alloc::vec::Vec<alloc::vec::Vec<_ProbeNode>>", align 8
  %_4 = alloca %"core::cell::UnsafeCell<alloc::vec::Vec<alloc::vec::Vec<_ProbeNode>>>", align 8
  %_3 = alloca %"std::sync::poison::Flag", align 1
  %_2 = alloca %"std::sys_common::mutex::MovableMutex", align 4
  store i8 1, i8* %_6, align 1
; invoke std::sys_common::mutex::MovableMutex::new
  %4 = invoke i32 @_ZN3std10sys_common5mutex12MovableMutex3new17hc7ecaa10d5f4770fE()
          to label %bb1 unwind label %cleanup

bb6:                                              ; preds = %cleanup
  %5 = load i8, i8* %_6, align 1, !range !2, !noundef !3
  %6 = trunc i8 %5 to i1
  br i1 %6, label %bb5, label %bb4

cleanup:                                          ; preds = %bb1, %start
  %7 = landingpad { i8*, i32 }
          cleanup
  %8 = extractvalue { i8*, i32 } %7, 0
  %9 = extractvalue { i8*, i32 } %7, 1
  %10 = getelementptr inbounds { i8*, i32 }, { i8*, i32 }* %3, i32 0, i32 0
  store i8* %8, i8** %10, align 8
  %11 = getelementptr inbounds { i8*, i32 }, { i8*, i32 }* %3, i32 0, i32 1
  store i32 %9, i32* %11, align 8
  br label %bb6

bb1:                                              ; preds = %start
  store i32 %4, i32* %2, align 4
  %12 = bitcast %"std::sys_common::mutex::MovableMutex"* %_2 to i8*
  %13 = bitcast i32* %2 to i8*
  call void @llvm.memcpy.p0i8.p0i8.i64(i8* align 4 %12, i8* align 4 %13, i64 4, i1 false)
; invoke std::sync::poison::Flag::new
  %14 = invoke i8 @_ZN3std4sync6poison4Flag3new17h0a63b6ad95bf565eE()
          to label %bb2 unwind label %cleanup

bb2:                                              ; preds = %bb1
  store i8 %14, i8* %1, align 1
  %15 = bitcast %"std::sync::poison::Flag"* %_3 to i8*
  call void @llvm.memcpy.p0i8.p0i8.i64(i8* align 1 %15, i8* align 1 %1, i64 1, i1 false)
  store i8 0, i8* %_6, align 1
  %16 = bitcast %"alloc::vec::Vec<alloc::vec::Vec<_ProbeNode>>"* %_5 to i8*
  %17 = bitcast %"alloc::vec::Vec<alloc::vec::Vec<_ProbeNode>>"* %t to i8*
  call void @llvm.memcpy.p0i8.p0i8.i64(i8* align 8 %16, i8* align 8 %17, i64 24, i1 false)
  %18 = bitcast %"alloc::vec::Vec<alloc::vec::Vec<_ProbeNode>>"* %_2.i to i8*
  %19 = bitcast %"alloc::vec::Vec<alloc::vec::Vec<_ProbeNode>>"* %_5 to i8*
  call void @llvm.memcpy.p0i8.p0i8.i64(i8* align 8 %18, i8* align 8 %19, i64 24, i1 false)
  %20 = bitcast %"core::cell::UnsafeCell<alloc::vec::Vec<alloc::vec::Vec<_ProbeNode>>>"* %_4 to %"alloc::vec::Vec<alloc::vec::Vec<_ProbeNode>>"*
  %21 = bitcast %"alloc::vec::Vec<alloc::vec::Vec<_ProbeNode>>"* %20 to i8*
  %22 = bitcast %"alloc::vec::Vec<alloc::vec::Vec<_ProbeNode>>"* %_2.i to i8*
  call void @llvm.memcpy.p0i8.p0i8.i64(i8* align 8 %21, i8* align 8 %22, i64 24, i1 false)
  br label %bb3

bb3:                                              ; preds = %bb2
  %23 = bitcast %"std::sync::mutex::Mutex<alloc::vec::Vec<alloc::vec::Vec<_ProbeNode>>>"* %0 to %"std::sys_common::mutex::MovableMutex"*
  %24 = bitcast %"std::sys_common::mutex::MovableMutex"* %23 to i8*
  %25 = bitcast %"std::sys_common::mutex::MovableMutex"* %_2 to i8*
  call void @llvm.memcpy.p0i8.p0i8.i64(i8* align 8 %24, i8* align 4 %25, i64 4, i1 false)
  %26 = getelementptr inbounds %"std::sync::mutex::Mutex<alloc::vec::Vec<alloc::vec::Vec<_ProbeNode>>>", %"std::sync::mutex::Mutex<alloc::vec::Vec<alloc::vec::Vec<_ProbeNode>>>"* %0, i32 0, i32 1
  %27 = bitcast %"std::sync::poison::Flag"* %26 to i8*
  %28 = bitcast %"std::sync::poison::Flag"* %_3 to i8*
  call void @llvm.memcpy.p0i8.p0i8.i64(i8* align 4 %27, i8* align 1 %28, i64 1, i1 false)
  %29 = getelementptr inbounds %"std::sync::mutex::Mutex<alloc::vec::Vec<alloc::vec::Vec<_ProbeNode>>>", %"std::sync::mutex::Mutex<alloc::vec::Vec<alloc::vec::Vec<_ProbeNode>>>"* %0, i32 0, i32 3
  %30 = bitcast %"core::cell::UnsafeCell<alloc::vec::Vec<alloc::vec::Vec<_ProbeNode>>>"* %29 to i8*
  %31 = bitcast %"core::cell::UnsafeCell<alloc::vec::Vec<alloc::vec::Vec<_ProbeNode>>>"* %_4 to i8*
  call void @llvm.memcpy.p0i8.p0i8.i64(i8* align 8 %30, i8* align 8 %31, i64 24, i1 false)
  ret void

bb4:                                              ; preds = %bb5, %bb6
  %32 = bitcast { i8*, i32 }* %3 to i8**
  %33 = load i8*, i8** %32, align 8
  %34 = getelementptr inbounds { i8*, i32 }, { i8*, i32 }* %3, i32 0, i32 1
  %35 = load i32, i32* %34, align 8
  %36 = insertvalue { i8*, i32 } undef, i8* %33, 0
  %37 = insertvalue { i8*, i32 } %36, i32 %35, 1
  resume { i8*, i32 } %37

bb5:                                              ; preds = %bb6
; invoke core::ptr::drop_in_place<alloc::vec::Vec<alloc::vec::Vec<probe_RSE::_ProbeNode>>>
  invoke void @"_ZN4core3ptr88drop_in_place$LT$alloc..vec..Vec$LT$alloc..vec..Vec$LT$probe_RSE.._ProbeNode$GT$$GT$$GT$17hbbd851914b219a57E"(%"alloc::vec::Vec<alloc::vec::Vec<_ProbeNode>>"* %t) #17
          to label %bb4 unwind label %abort

abort:                                            ; preds = %bb5
  %38 = landingpad { i8*, i32 }
          cleanup
; call core::panicking::panic_no_unwind
  call void @_ZN4core9panicking15panic_no_unwind17h25931e178d980d9cE() #18
  unreachable
}

; std::sync::mutex::Mutex<T>::new
; Function Attrs: inlinehint nonlazybind uwtable
define void @"_ZN3std4sync5mutex14Mutex$LT$T$GT$3new17h9286fd783ce50440E"(%"std::sync::mutex::Mutex<std::fs::File>"* sret(%"std::sync::mutex::Mutex<std::fs::File>") %0, i32 %1) unnamed_addr #0 personality i32 (i32, i32, i64, %"unwind::libunwind::_Unwind_Exception"*, %"unwind::libunwind::_Unwind_Context"*)* @rust_eh_personality {
start:
  %2 = alloca i32, align 4
  %3 = alloca i8, align 1
  %4 = alloca i32, align 4
  %5 = alloca { i8*, i32 }, align 8
  %_6 = alloca i8, align 1
  %_3 = alloca %"std::sync::poison::Flag", align 1
  %_2 = alloca %"std::sys_common::mutex::MovableMutex", align 4
  %t = alloca i32, align 4
  store i32 %1, i32* %t, align 4
  store i8 1, i8* %_6, align 1
; invoke std::sys_common::mutex::MovableMutex::new
  %6 = invoke i32 @_ZN3std10sys_common5mutex12MovableMutex3new17hc7ecaa10d5f4770fE()
          to label %bb1 unwind label %cleanup

bb6:                                              ; preds = %cleanup
  %7 = load i8, i8* %_6, align 1, !range !2, !noundef !3
  %8 = trunc i8 %7 to i1
  br i1 %8, label %bb5, label %bb4

cleanup:                                          ; preds = %bb1, %start
  %9 = landingpad { i8*, i32 }
          cleanup
  %10 = extractvalue { i8*, i32 } %9, 0
  %11 = extractvalue { i8*, i32 } %9, 1
  %12 = getelementptr inbounds { i8*, i32 }, { i8*, i32 }* %5, i32 0, i32 0
  store i8* %10, i8** %12, align 8
  %13 = getelementptr inbounds { i8*, i32 }, { i8*, i32 }* %5, i32 0, i32 1
  store i32 %11, i32* %13, align 8
  br label %bb6

bb1:                                              ; preds = %start
  store i32 %6, i32* %4, align 4
  %14 = bitcast %"std::sys_common::mutex::MovableMutex"* %_2 to i8*
  %15 = bitcast i32* %4 to i8*
  call void @llvm.memcpy.p0i8.p0i8.i64(i8* align 4 %14, i8* align 4 %15, i64 4, i1 false)
; invoke std::sync::poison::Flag::new
  %16 = invoke i8 @_ZN3std4sync6poison4Flag3new17h0a63b6ad95bf565eE()
          to label %bb2 unwind label %cleanup

bb2:                                              ; preds = %bb1
  store i8 %16, i8* %3, align 1
  %17 = bitcast %"std::sync::poison::Flag"* %_3 to i8*
  call void @llvm.memcpy.p0i8.p0i8.i64(i8* align 1 %17, i8* align 1 %3, i64 1, i1 false)
  store i8 0, i8* %_6, align 1
  %_5 = load i32, i32* %t, align 4, !range !14, !noundef !3
  store i32 %_5, i32* %2, align 4
  %18 = load i32, i32* %2, align 4, !range !14, !noundef !3
  br label %bb3

bb3:                                              ; preds = %bb2
  %19 = bitcast %"std::sync::mutex::Mutex<std::fs::File>"* %0 to %"std::sys_common::mutex::MovableMutex"*
  %20 = bitcast %"std::sys_common::mutex::MovableMutex"* %19 to i8*
  %21 = bitcast %"std::sys_common::mutex::MovableMutex"* %_2 to i8*
  call void @llvm.memcpy.p0i8.p0i8.i64(i8* align 4 %20, i8* align 4 %21, i64 4, i1 false)
  %22 = getelementptr inbounds %"std::sync::mutex::Mutex<std::fs::File>", %"std::sync::mutex::Mutex<std::fs::File>"* %0, i32 0, i32 1
  %23 = bitcast %"std::sync::poison::Flag"* %22 to i8*
  %24 = bitcast %"std::sync::poison::Flag"* %_3 to i8*
  call void @llvm.memcpy.p0i8.p0i8.i64(i8* align 4 %23, i8* align 1 %24, i64 1, i1 false)
  %25 = getelementptr inbounds %"std::sync::mutex::Mutex<std::fs::File>", %"std::sync::mutex::Mutex<std::fs::File>"* %0, i32 0, i32 3
  store i32 %18, i32* %25, align 4
  ret void

bb4:                                              ; preds = %bb5, %bb6
  %26 = bitcast { i8*, i32 }* %5 to i8**
  %27 = load i8*, i8** %26, align 8
  %28 = getelementptr inbounds { i8*, i32 }, { i8*, i32 }* %5, i32 0, i32 1
  %29 = load i32, i32* %28, align 8
  %30 = insertvalue { i8*, i32 } undef, i8* %27, 0
  %31 = insertvalue { i8*, i32 } %30, i32 %29, 1
  resume { i8*, i32 } %31

bb5:                                              ; preds = %bb6
; invoke core::ptr::drop_in_place<std::fs::File>
  invoke void @"_ZN4core3ptr34drop_in_place$LT$std..fs..File$GT$17he19acbe034eaa267E"(i32* %t) #17
          to label %bb4 unwind label %abort

abort:                                            ; preds = %bb5
  %32 = landingpad { i8*, i32 }
          cleanup
; call core::panicking::panic_no_unwind
  call void @_ZN4core9panicking15panic_no_unwind17h25931e178d980d9cE() #18
  unreachable
}

; std::sync::mutex::Mutex<T>::new
; Function Attrs: inlinehint nonlazybind uwtable
define void @"_ZN3std4sync5mutex14Mutex$LT$T$GT$3new17hb42a7453e1e1ba2bE"(%"std::sync::mutex::Mutex<i32>"* sret(%"std::sync::mutex::Mutex<i32>") %0, i32 %t) unnamed_addr #0 personality i32 (i32, i32, i64, %"unwind::libunwind::_Unwind_Exception"*, %"unwind::libunwind::_Unwind_Context"*)* @rust_eh_personality {
start:
  %1 = alloca i32, align 4
  %2 = alloca i8, align 1
  %3 = alloca i32, align 4
  %4 = alloca { i8*, i32 }, align 8
  %_6 = alloca i8, align 1
  %_3 = alloca %"std::sync::poison::Flag", align 1
  %_2 = alloca %"std::sys_common::mutex::MovableMutex", align 4
  store i8 1, i8* %_6, align 1
; invoke std::sys_common::mutex::MovableMutex::new
  %5 = invoke i32 @_ZN3std10sys_common5mutex12MovableMutex3new17hc7ecaa10d5f4770fE()
          to label %bb1 unwind label %cleanup

bb6:                                              ; preds = %cleanup
  %6 = load i8, i8* %_6, align 1, !range !2, !noundef !3
  %7 = trunc i8 %6 to i1
  br i1 %7, label %bb5, label %bb4

cleanup:                                          ; preds = %bb1, %start
  %8 = landingpad { i8*, i32 }
          cleanup
  %9 = extractvalue { i8*, i32 } %8, 0
  %10 = extractvalue { i8*, i32 } %8, 1
  %11 = getelementptr inbounds { i8*, i32 }, { i8*, i32 }* %4, i32 0, i32 0
  store i8* %9, i8** %11, align 8
  %12 = getelementptr inbounds { i8*, i32 }, { i8*, i32 }* %4, i32 0, i32 1
  store i32 %10, i32* %12, align 8
  br label %bb6

bb1:                                              ; preds = %start
  store i32 %5, i32* %3, align 4
  %13 = bitcast %"std::sys_common::mutex::MovableMutex"* %_2 to i8*
  %14 = bitcast i32* %3 to i8*
  call void @llvm.memcpy.p0i8.p0i8.i64(i8* align 4 %13, i8* align 4 %14, i64 4, i1 false)
; invoke std::sync::poison::Flag::new
  %15 = invoke i8 @_ZN3std4sync6poison4Flag3new17h0a63b6ad95bf565eE()
          to label %bb2 unwind label %cleanup

bb2:                                              ; preds = %bb1
  store i8 %15, i8* %2, align 1
  %16 = bitcast %"std::sync::poison::Flag"* %_3 to i8*
  call void @llvm.memcpy.p0i8.p0i8.i64(i8* align 1 %16, i8* align 1 %2, i64 1, i1 false)
  store i8 0, i8* %_6, align 1
  store i32 %t, i32* %1, align 4
  %17 = load i32, i32* %1, align 4
  br label %bb3

bb3:                                              ; preds = %bb2
  %18 = bitcast %"std::sync::mutex::Mutex<i32>"* %0 to %"std::sys_common::mutex::MovableMutex"*
  %19 = bitcast %"std::sys_common::mutex::MovableMutex"* %18 to i8*
  %20 = bitcast %"std::sys_common::mutex::MovableMutex"* %_2 to i8*
  call void @llvm.memcpy.p0i8.p0i8.i64(i8* align 4 %19, i8* align 4 %20, i64 4, i1 false)
  %21 = getelementptr inbounds %"std::sync::mutex::Mutex<i32>", %"std::sync::mutex::Mutex<i32>"* %0, i32 0, i32 1
  %22 = bitcast %"std::sync::poison::Flag"* %21 to i8*
  %23 = bitcast %"std::sync::poison::Flag"* %_3 to i8*
  call void @llvm.memcpy.p0i8.p0i8.i64(i8* align 4 %22, i8* align 1 %23, i64 1, i1 false)
  %24 = getelementptr inbounds %"std::sync::mutex::Mutex<i32>", %"std::sync::mutex::Mutex<i32>"* %0, i32 0, i32 3
  store i32 %17, i32* %24, align 4
  ret void

bb4:                                              ; preds = %bb5, %bb6
  %25 = bitcast { i8*, i32 }* %4 to i8**
  %26 = load i8*, i8** %25, align 8
  %27 = getelementptr inbounds { i8*, i32 }, { i8*, i32 }* %4, i32 0, i32 1
  %28 = load i32, i32* %27, align 8
  %29 = insertvalue { i8*, i32 } undef, i8* %26, 0
  %30 = insertvalue { i8*, i32 } %29, i32 %28, 1
  resume { i8*, i32 } %30

bb5:                                              ; preds = %bb6
  br label %bb4
}

; std::sync::mutex::Mutex<T>::lock
; Function Attrs: nonlazybind uwtable
define void @"_ZN3std4sync5mutex14Mutex$LT$T$GT$4lock17h6db853d776ba8611E"(%"core::result::Result<std::sync::mutex::MutexGuard<alloc::vec::Vec<alloc::vec::Vec<_ProbeNode>>>, std::sync::poison::PoisonError<std::sync::mutex::MutexGuard<alloc::vec::Vec<alloc::vec::Vec<_ProbeNode>>>>>"* sret(%"core::result::Result<std::sync::mutex::MutexGuard<alloc::vec::Vec<alloc::vec::Vec<_ProbeNode>>>, std::sync::poison::PoisonError<std::sync::mutex::MutexGuard<alloc::vec::Vec<alloc::vec::Vec<_ProbeNode>>>>>") %0, %"std::sync::mutex::Mutex<alloc::vec::Vec<alloc::vec::Vec<_ProbeNode>>>"* align 8 %self) unnamed_addr #1 {
start:
  %_3 = bitcast %"std::sync::mutex::Mutex<alloc::vec::Vec<alloc::vec::Vec<_ProbeNode>>>"* %self to %"std::sys_common::mutex::MovableMutex"*
; call std::sys_common::mutex::MovableMutex::raw_lock
  call void @_ZN3std10sys_common5mutex12MovableMutex8raw_lock17h5f137073161fe057E(%"std::sys_common::mutex::MovableMutex"* align 4 %_3)
  br label %bb1

bb1:                                              ; preds = %start
; call std::sync::mutex::MutexGuard<T>::new
  call void @"_ZN3std4sync5mutex19MutexGuard$LT$T$GT$3new17hce1d2e5ec97d58c6E"(%"core::result::Result<std::sync::mutex::MutexGuard<alloc::vec::Vec<alloc::vec::Vec<_ProbeNode>>>, std::sync::poison::PoisonError<std::sync::mutex::MutexGuard<alloc::vec::Vec<alloc::vec::Vec<_ProbeNode>>>>>"* sret(%"core::result::Result<std::sync::mutex::MutexGuard<alloc::vec::Vec<alloc::vec::Vec<_ProbeNode>>>, std::sync::poison::PoisonError<std::sync::mutex::MutexGuard<alloc::vec::Vec<alloc::vec::Vec<_ProbeNode>>>>>") %0, %"std::sync::mutex::Mutex<alloc::vec::Vec<alloc::vec::Vec<_ProbeNode>>>"* align 8 %self)
  br label %bb2

bb2:                                              ; preds = %bb1
  ret void
}

; std::sync::mutex::Mutex<T>::lock
; Function Attrs: nonlazybind uwtable
define void @"_ZN3std4sync5mutex14Mutex$LT$T$GT$4lock17hcd80d8b0b86df56cE"(%"core::result::Result<std::sync::mutex::MutexGuard<std::fs::File>, std::sync::poison::PoisonError<std::sync::mutex::MutexGuard<std::fs::File>>>"* sret(%"core::result::Result<std::sync::mutex::MutexGuard<std::fs::File>, std::sync::poison::PoisonError<std::sync::mutex::MutexGuard<std::fs::File>>>") %0, %"std::sync::mutex::Mutex<std::fs::File>"* align 4 %self) unnamed_addr #1 {
start:
  %_3 = bitcast %"std::sync::mutex::Mutex<std::fs::File>"* %self to %"std::sys_common::mutex::MovableMutex"*
; call std::sys_common::mutex::MovableMutex::raw_lock
  call void @_ZN3std10sys_common5mutex12MovableMutex8raw_lock17h5f137073161fe057E(%"std::sys_common::mutex::MovableMutex"* align 4 %_3)
  br label %bb1

bb1:                                              ; preds = %start
; call std::sync::mutex::MutexGuard<T>::new
  call void @"_ZN3std4sync5mutex19MutexGuard$LT$T$GT$3new17h7bbbc3d52cbd2bcfE"(%"core::result::Result<std::sync::mutex::MutexGuard<std::fs::File>, std::sync::poison::PoisonError<std::sync::mutex::MutexGuard<std::fs::File>>>"* sret(%"core::result::Result<std::sync::mutex::MutexGuard<std::fs::File>, std::sync::poison::PoisonError<std::sync::mutex::MutexGuard<std::fs::File>>>") %0, %"std::sync::mutex::Mutex<std::fs::File>"* align 4 %self)
  br label %bb2

bb2:                                              ; preds = %bb1
  ret void
}

; std::sync::mutex::Mutex<T>::lock
; Function Attrs: nonlazybind uwtable
define void @"_ZN3std4sync5mutex14Mutex$LT$T$GT$4lock17hf54553982b26d4d4E"(%"core::result::Result<std::sync::mutex::MutexGuard<i32>, std::sync::poison::PoisonError<std::sync::mutex::MutexGuard<i32>>>"* sret(%"core::result::Result<std::sync::mutex::MutexGuard<i32>, std::sync::poison::PoisonError<std::sync::mutex::MutexGuard<i32>>>") %0, %"std::sync::mutex::Mutex<i32>"* align 4 %self) unnamed_addr #1 {
start:
  %_3 = bitcast %"std::sync::mutex::Mutex<i32>"* %self to %"std::sys_common::mutex::MovableMutex"*
; call std::sys_common::mutex::MovableMutex::raw_lock
  call void @_ZN3std10sys_common5mutex12MovableMutex8raw_lock17h5f137073161fe057E(%"std::sys_common::mutex::MovableMutex"* align 4 %_3)
  br label %bb1

bb1:                                              ; preds = %start
; call std::sync::mutex::MutexGuard<T>::new
  call void @"_ZN3std4sync5mutex19MutexGuard$LT$T$GT$3new17h2dc25d9a886726b6E"(%"core::result::Result<std::sync::mutex::MutexGuard<i32>, std::sync::poison::PoisonError<std::sync::mutex::MutexGuard<i32>>>"* sret(%"core::result::Result<std::sync::mutex::MutexGuard<i32>, std::sync::poison::PoisonError<std::sync::mutex::MutexGuard<i32>>>") %0, %"std::sync::mutex::Mutex<i32>"* align 4 %self)
  br label %bb2

bb2:                                              ; preds = %bb1
  ret void
}

; std::sync::mutex::MutexGuard<T>::new
; Function Attrs: nonlazybind uwtable
define void @"_ZN3std4sync5mutex19MutexGuard$LT$T$GT$3new17h2dc25d9a886726b6E"(%"core::result::Result<std::sync::mutex::MutexGuard<i32>, std::sync::poison::PoisonError<std::sync::mutex::MutexGuard<i32>>>"* sret(%"core::result::Result<std::sync::mutex::MutexGuard<i32>, std::sync::poison::PoisonError<std::sync::mutex::MutexGuard<i32>>>") %0, %"std::sync::mutex::Mutex<i32>"* align 4 %lock) unnamed_addr #1 {
start:
  %_4 = alloca i32*, align 8
  %_3 = getelementptr inbounds %"std::sync::mutex::Mutex<i32>", %"std::sync::mutex::Mutex<i32>"* %lock, i32 0, i32 1
; call std::sync::poison::Flag::guard
  %1 = call { i8, i8 } @_ZN3std4sync6poison4Flag5guard17h1b82bfe732d0aa0dE(%"std::sync::poison::Flag"* align 1 %_3)
  %2 = extractvalue { i8, i8 } %1, 0
  %_2.0 = trunc i8 %2 to i1
  %_2.1 = extractvalue { i8, i8 } %1, 1
  br label %bb1

bb1:                                              ; preds = %start
  %3 = bitcast i32** %_4 to %"std::sync::mutex::Mutex<i32>"**
  store %"std::sync::mutex::Mutex<i32>"* %lock, %"std::sync::mutex::Mutex<i32>"** %3, align 8
  %4 = load i32*, i32** %_4, align 8, !nonnull !3, !align !13, !noundef !3
; call std::sync::poison::map_result
  call void @_ZN3std4sync6poison10map_result17h3c29881e0e459d75E(%"core::result::Result<std::sync::mutex::MutexGuard<i32>, std::sync::poison::PoisonError<std::sync::mutex::MutexGuard<i32>>>"* sret(%"core::result::Result<std::sync::mutex::MutexGuard<i32>, std::sync::poison::PoisonError<std::sync::mutex::MutexGuard<i32>>>") %0, i1 zeroext %_2.0, i8 %_2.1, i32* align 4 %4)
  br label %bb2

bb2:                                              ; preds = %bb1
  ret void
}

; std::sync::mutex::MutexGuard<T>::new
; Function Attrs: nonlazybind uwtable
define void @"_ZN3std4sync5mutex19MutexGuard$LT$T$GT$3new17h7bbbc3d52cbd2bcfE"(%"core::result::Result<std::sync::mutex::MutexGuard<std::fs::File>, std::sync::poison::PoisonError<std::sync::mutex::MutexGuard<std::fs::File>>>"* sret(%"core::result::Result<std::sync::mutex::MutexGuard<std::fs::File>, std::sync::poison::PoisonError<std::sync::mutex::MutexGuard<std::fs::File>>>") %0, %"std::sync::mutex::Mutex<std::fs::File>"* align 4 %lock) unnamed_addr #1 {
start:
  %_4 = alloca i32*, align 8
  %_3 = getelementptr inbounds %"std::sync::mutex::Mutex<std::fs::File>", %"std::sync::mutex::Mutex<std::fs::File>"* %lock, i32 0, i32 1
; call std::sync::poison::Flag::guard
  %1 = call { i8, i8 } @_ZN3std4sync6poison4Flag5guard17h1b82bfe732d0aa0dE(%"std::sync::poison::Flag"* align 1 %_3)
  %2 = extractvalue { i8, i8 } %1, 0
  %_2.0 = trunc i8 %2 to i1
  %_2.1 = extractvalue { i8, i8 } %1, 1
  br label %bb1

bb1:                                              ; preds = %start
  %3 = bitcast i32** %_4 to %"std::sync::mutex::Mutex<std::fs::File>"**
  store %"std::sync::mutex::Mutex<std::fs::File>"* %lock, %"std::sync::mutex::Mutex<std::fs::File>"** %3, align 8
  %4 = load i32*, i32** %_4, align 8, !nonnull !3, !align !13, !noundef !3
; call std::sync::poison::map_result
  call void @_ZN3std4sync6poison10map_result17h5fe0112d0177ec68E(%"core::result::Result<std::sync::mutex::MutexGuard<std::fs::File>, std::sync::poison::PoisonError<std::sync::mutex::MutexGuard<std::fs::File>>>"* sret(%"core::result::Result<std::sync::mutex::MutexGuard<std::fs::File>, std::sync::poison::PoisonError<std::sync::mutex::MutexGuard<std::fs::File>>>") %0, i1 zeroext %_2.0, i8 %_2.1, i32* align 4 %4)
  br label %bb2

bb2:                                              ; preds = %bb1
  ret void
}

; std::sync::mutex::MutexGuard<T>::new
; Function Attrs: nonlazybind uwtable
define void @"_ZN3std4sync5mutex19MutexGuard$LT$T$GT$3new17hce1d2e5ec97d58c6E"(%"core::result::Result<std::sync::mutex::MutexGuard<alloc::vec::Vec<alloc::vec::Vec<_ProbeNode>>>, std::sync::poison::PoisonError<std::sync::mutex::MutexGuard<alloc::vec::Vec<alloc::vec::Vec<_ProbeNode>>>>>"* sret(%"core::result::Result<std::sync::mutex::MutexGuard<alloc::vec::Vec<alloc::vec::Vec<_ProbeNode>>>, std::sync::poison::PoisonError<std::sync::mutex::MutexGuard<alloc::vec::Vec<alloc::vec::Vec<_ProbeNode>>>>>") %0, %"std::sync::mutex::Mutex<alloc::vec::Vec<alloc::vec::Vec<_ProbeNode>>>"* align 8 %lock) unnamed_addr #1 {
start:
  %_4 = alloca i64*, align 8
  %_3 = getelementptr inbounds %"std::sync::mutex::Mutex<alloc::vec::Vec<alloc::vec::Vec<_ProbeNode>>>", %"std::sync::mutex::Mutex<alloc::vec::Vec<alloc::vec::Vec<_ProbeNode>>>"* %lock, i32 0, i32 1
; call std::sync::poison::Flag::guard
  %1 = call { i8, i8 } @_ZN3std4sync6poison4Flag5guard17h1b82bfe732d0aa0dE(%"std::sync::poison::Flag"* align 1 %_3)
  %2 = extractvalue { i8, i8 } %1, 0
  %_2.0 = trunc i8 %2 to i1
  %_2.1 = extractvalue { i8, i8 } %1, 1
  br label %bb1

bb1:                                              ; preds = %start
  %3 = bitcast i64** %_4 to %"std::sync::mutex::Mutex<alloc::vec::Vec<alloc::vec::Vec<_ProbeNode>>>"**
  store %"std::sync::mutex::Mutex<alloc::vec::Vec<alloc::vec::Vec<_ProbeNode>>>"* %lock, %"std::sync::mutex::Mutex<alloc::vec::Vec<alloc::vec::Vec<_ProbeNode>>>"** %3, align 8
  %4 = load i64*, i64** %_4, align 8, !nonnull !3, !align !8, !noundef !3
; call std::sync::poison::map_result
  call void @_ZN3std4sync6poison10map_result17h45fa046d01d4c527E(%"core::result::Result<std::sync::mutex::MutexGuard<alloc::vec::Vec<alloc::vec::Vec<_ProbeNode>>>, std::sync::poison::PoisonError<std::sync::mutex::MutexGuard<alloc::vec::Vec<alloc::vec::Vec<_ProbeNode>>>>>"* sret(%"core::result::Result<std::sync::mutex::MutexGuard<alloc::vec::Vec<alloc::vec::Vec<_ProbeNode>>>, std::sync::poison::PoisonError<std::sync::mutex::MutexGuard<alloc::vec::Vec<alloc::vec::Vec<_ProbeNode>>>>>") %0, i1 zeroext %_2.0, i8 %_2.1, i64* align 8 %4)
  br label %bb2

bb2:                                              ; preds = %bb1
  ret void
}

; std::sync::mutex::MutexGuard<T>::new::{{closure}}
; Function Attrs: inlinehint nonlazybind uwtable
define { i32*, i8 } @"_ZN3std4sync5mutex19MutexGuard$LT$T$GT$3new28_$u7b$$u7b$closure$u7d$$u7d$17h1be5852950153506E"(i32* align 4 %_1, i1 zeroext %guard) unnamed_addr #0 {
start:
  %0 = alloca { i32*, i8 }, align 8
  %_5 = bitcast i32* %_1 to %"std::sync::mutex::Mutex<std::fs::File>"*
  %1 = bitcast { i32*, i8 }* %0 to %"std::sync::mutex::Mutex<std::fs::File>"**
  store %"std::sync::mutex::Mutex<std::fs::File>"* %_5, %"std::sync::mutex::Mutex<std::fs::File>"** %1, align 8
  %2 = getelementptr inbounds { i32*, i8 }, { i32*, i8 }* %0, i32 0, i32 1
  %3 = zext i1 %guard to i8
  store i8 %3, i8* %2, align 8
  %4 = getelementptr inbounds { i32*, i8 }, { i32*, i8 }* %0, i32 0, i32 0
  %5 = load i32*, i32** %4, align 8, !nonnull !3, !align !13, !noundef !3
  %6 = getelementptr inbounds { i32*, i8 }, { i32*, i8 }* %0, i32 0, i32 1
  %7 = load i8, i8* %6, align 8, !range !2, !noundef !3
  %8 = trunc i8 %7 to i1
  %9 = zext i1 %8 to i8
  %10 = insertvalue { i32*, i8 } undef, i32* %5, 0
  %11 = insertvalue { i32*, i8 } %10, i8 %9, 1
  ret { i32*, i8 } %11
}

; std::sync::mutex::MutexGuard<T>::new::{{closure}}
; Function Attrs: inlinehint nonlazybind uwtable
define { i32*, i8 } @"_ZN3std4sync5mutex19MutexGuard$LT$T$GT$3new28_$u7b$$u7b$closure$u7d$$u7d$17h30fcde9a8c46f404E"(i32* align 4 %_1, i1 zeroext %guard) unnamed_addr #0 {
start:
  %0 = alloca { i32*, i8 }, align 8
  %_5 = bitcast i32* %_1 to %"std::sync::mutex::Mutex<i32>"*
  %1 = bitcast { i32*, i8 }* %0 to %"std::sync::mutex::Mutex<i32>"**
  store %"std::sync::mutex::Mutex<i32>"* %_5, %"std::sync::mutex::Mutex<i32>"** %1, align 8
  %2 = getelementptr inbounds { i32*, i8 }, { i32*, i8 }* %0, i32 0, i32 1
  %3 = zext i1 %guard to i8
  store i8 %3, i8* %2, align 8
  %4 = getelementptr inbounds { i32*, i8 }, { i32*, i8 }* %0, i32 0, i32 0
  %5 = load i32*, i32** %4, align 8, !nonnull !3, !align !13, !noundef !3
  %6 = getelementptr inbounds { i32*, i8 }, { i32*, i8 }* %0, i32 0, i32 1
  %7 = load i8, i8* %6, align 8, !range !2, !noundef !3
  %8 = trunc i8 %7 to i1
  %9 = zext i1 %8 to i8
  %10 = insertvalue { i32*, i8 } undef, i32* %5, 0
  %11 = insertvalue { i32*, i8 } %10, i8 %9, 1
  ret { i32*, i8 } %11
}

; std::sync::mutex::MutexGuard<T>::new::{{closure}}
; Function Attrs: inlinehint nonlazybind uwtable
define { i64*, i8 } @"_ZN3std4sync5mutex19MutexGuard$LT$T$GT$3new28_$u7b$$u7b$closure$u7d$$u7d$17hb1a257bc056d5e18E"(i64* align 8 %_1, i1 zeroext %guard) unnamed_addr #0 {
start:
  %0 = alloca { i64*, i8 }, align 8
  %_5 = bitcast i64* %_1 to %"std::sync::mutex::Mutex<alloc::vec::Vec<alloc::vec::Vec<_ProbeNode>>>"*
  %1 = bitcast { i64*, i8 }* %0 to %"std::sync::mutex::Mutex<alloc::vec::Vec<alloc::vec::Vec<_ProbeNode>>>"**
  store %"std::sync::mutex::Mutex<alloc::vec::Vec<alloc::vec::Vec<_ProbeNode>>>"* %_5, %"std::sync::mutex::Mutex<alloc::vec::Vec<alloc::vec::Vec<_ProbeNode>>>"** %1, align 8
  %2 = getelementptr inbounds { i64*, i8 }, { i64*, i8 }* %0, i32 0, i32 1
  %3 = zext i1 %guard to i8
  store i8 %3, i8* %2, align 8
  %4 = getelementptr inbounds { i64*, i8 }, { i64*, i8 }* %0, i32 0, i32 0
  %5 = load i64*, i64** %4, align 8, !nonnull !3, !align !8, !noundef !3
  %6 = getelementptr inbounds { i64*, i8 }, { i64*, i8 }* %0, i32 0, i32 1
  %7 = load i8, i8* %6, align 8, !range !2, !noundef !3
  %8 = trunc i8 %7 to i1
  %9 = zext i1 %8 to i8
  %10 = insertvalue { i64*, i8 } undef, i64* %5, 0
  %11 = insertvalue { i64*, i8 } %10, i8 %9, 1
  ret { i64*, i8 } %11
}

; std::sync::poison::map_result
; Function Attrs: nonlazybind uwtable
define void @_ZN3std4sync6poison10map_result17h3c29881e0e459d75E(%"core::result::Result<std::sync::mutex::MutexGuard<i32>, std::sync::poison::PoisonError<std::sync::mutex::MutexGuard<i32>>>"* sret(%"core::result::Result<std::sync::mutex::MutexGuard<i32>, std::sync::poison::PoisonError<std::sync::mutex::MutexGuard<i32>>>") %0, i1 zeroext %1, i8 %2, i32* align 4 %f) unnamed_addr #1 {
start:
  %_13 = alloca i8, align 1
  %_7 = alloca i8, align 1
  %result = alloca { i8, i8 }, align 1
  %3 = getelementptr inbounds { i8, i8 }, { i8, i8 }* %result, i32 0, i32 0
  %4 = zext i1 %1 to i8
  store i8 %4, i8* %3, align 1
  %5 = getelementptr inbounds { i8, i8 }, { i8, i8 }* %result, i32 0, i32 1
  store i8 %2, i8* %5, align 1
  %6 = bitcast { i8, i8 }* %result to i8*
  %7 = load i8, i8* %6, align 1, !range !2, !noundef !3
  %8 = trunc i8 %7 to i1
  %_3 = zext i1 %8 to i64
  switch i64 %_3, label %bb2 [
    i64 0, label %bb3
    i64 1, label %bb1
  ]

bb2:                                              ; preds = %start
  unreachable

bb3:                                              ; preds = %start
  %9 = getelementptr inbounds { i8, i8 }, { i8, i8 }* %result, i32 0, i32 1
  %10 = load i8, i8* %9, align 1, !range !2, !noundef !3
  %t = trunc i8 %10 to i1
  %11 = zext i1 %t to i8
  store i8 %11, i8* %_7, align 1
  %12 = load i8, i8* %_7, align 1, !range !2, !noundef !3
  %13 = trunc i8 %12 to i1
; call std::sync::mutex::MutexGuard<T>::new::{{closure}}
  %14 = call { i32*, i8 } @"_ZN3std4sync5mutex19MutexGuard$LT$T$GT$3new28_$u7b$$u7b$closure$u7d$$u7d$17h30fcde9a8c46f404E"(i32* align 4 %f, i1 zeroext %13)
  %_5.0 = extractvalue { i32*, i8 } %14, 0
  %15 = extractvalue { i32*, i8 } %14, 1
  %_5.1 = trunc i8 %15 to i1
  br label %bb4

bb1:                                              ; preds = %start
  %16 = getelementptr inbounds { i8, i8 }, { i8, i8 }* %result, i32 0, i32 1
  %17 = load i8, i8* %16, align 1, !range !2, !noundef !3
  %guard = trunc i8 %17 to i1
  %18 = zext i1 %guard to i8
  store i8 %18, i8* %_13, align 1
  %19 = load i8, i8* %_13, align 1, !range !2, !noundef !3
  %20 = trunc i8 %19 to i1
; call std::sync::mutex::MutexGuard<T>::new::{{closure}}
  %21 = call { i32*, i8 } @"_ZN3std4sync5mutex19MutexGuard$LT$T$GT$3new28_$u7b$$u7b$closure$u7d$$u7d$17h30fcde9a8c46f404E"(i32* align 4 %f, i1 zeroext %20)
  %_11.0 = extractvalue { i32*, i8 } %21, 0
  %22 = extractvalue { i32*, i8 } %21, 1
  %_11.1 = trunc i8 %22 to i1
  br label %bb5

bb5:                                              ; preds = %bb1
; call std::sync::poison::PoisonError<T>::new
  %23 = call { i32*, i8 } @"_ZN3std4sync6poison20PoisonError$LT$T$GT$3new17hd9e21a00ac206dd8E"(i32* align 4 %_11.0, i1 zeroext %_11.1)
  %_10.0 = extractvalue { i32*, i8 } %23, 0
  %24 = extractvalue { i32*, i8 } %23, 1
  %_10.1 = trunc i8 %24 to i1
  br label %bb6

bb6:                                              ; preds = %bb5
  %25 = bitcast %"core::result::Result<std::sync::mutex::MutexGuard<i32>, std::sync::poison::PoisonError<std::sync::mutex::MutexGuard<i32>>>"* %0 to %"core::result::Result<std::sync::mutex::MutexGuard<i32>, std::sync::poison::PoisonError<std::sync::mutex::MutexGuard<i32>>>::Err"*
  %26 = getelementptr inbounds %"core::result::Result<std::sync::mutex::MutexGuard<i32>, std::sync::poison::PoisonError<std::sync::mutex::MutexGuard<i32>>>::Err", %"core::result::Result<std::sync::mutex::MutexGuard<i32>, std::sync::poison::PoisonError<std::sync::mutex::MutexGuard<i32>>>::Err"* %25, i32 0, i32 1
  %27 = getelementptr inbounds { i32*, i8 }, { i32*, i8 }* %26, i32 0, i32 0
  store i32* %_10.0, i32** %27, align 8
  %28 = getelementptr inbounds { i32*, i8 }, { i32*, i8 }* %26, i32 0, i32 1
  %29 = zext i1 %_10.1 to i8
  store i8 %29, i8* %28, align 8
  %30 = bitcast %"core::result::Result<std::sync::mutex::MutexGuard<i32>, std::sync::poison::PoisonError<std::sync::mutex::MutexGuard<i32>>>"* %0 to i64*
  store i64 1, i64* %30, align 8
  br label %bb7

bb7:                                              ; preds = %bb4, %bb6
  ret void

bb4:                                              ; preds = %bb3
  %31 = bitcast %"core::result::Result<std::sync::mutex::MutexGuard<i32>, std::sync::poison::PoisonError<std::sync::mutex::MutexGuard<i32>>>"* %0 to %"core::result::Result<std::sync::mutex::MutexGuard<i32>, std::sync::poison::PoisonError<std::sync::mutex::MutexGuard<i32>>>::Ok"*
  %32 = getelementptr inbounds %"core::result::Result<std::sync::mutex::MutexGuard<i32>, std::sync::poison::PoisonError<std::sync::mutex::MutexGuard<i32>>>::Ok", %"core::result::Result<std::sync::mutex::MutexGuard<i32>, std::sync::poison::PoisonError<std::sync::mutex::MutexGuard<i32>>>::Ok"* %31, i32 0, i32 1
  %33 = getelementptr inbounds { i32*, i8 }, { i32*, i8 }* %32, i32 0, i32 0
  store i32* %_5.0, i32** %33, align 8
  %34 = getelementptr inbounds { i32*, i8 }, { i32*, i8 }* %32, i32 0, i32 1
  %35 = zext i1 %_5.1 to i8
  store i8 %35, i8* %34, align 8
  %36 = bitcast %"core::result::Result<std::sync::mutex::MutexGuard<i32>, std::sync::poison::PoisonError<std::sync::mutex::MutexGuard<i32>>>"* %0 to i64*
  store i64 0, i64* %36, align 8
  br label %bb7
}

; std::sync::poison::map_result
; Function Attrs: nonlazybind uwtable
define void @_ZN3std4sync6poison10map_result17h45fa046d01d4c527E(%"core::result::Result<std::sync::mutex::MutexGuard<alloc::vec::Vec<alloc::vec::Vec<_ProbeNode>>>, std::sync::poison::PoisonError<std::sync::mutex::MutexGuard<alloc::vec::Vec<alloc::vec::Vec<_ProbeNode>>>>>"* sret(%"core::result::Result<std::sync::mutex::MutexGuard<alloc::vec::Vec<alloc::vec::Vec<_ProbeNode>>>, std::sync::poison::PoisonError<std::sync::mutex::MutexGuard<alloc::vec::Vec<alloc::vec::Vec<_ProbeNode>>>>>") %0, i1 zeroext %1, i8 %2, i64* align 8 %f) unnamed_addr #1 {
start:
  %_13 = alloca i8, align 1
  %_7 = alloca i8, align 1
  %result = alloca { i8, i8 }, align 1
  %3 = getelementptr inbounds { i8, i8 }, { i8, i8 }* %result, i32 0, i32 0
  %4 = zext i1 %1 to i8
  store i8 %4, i8* %3, align 1
  %5 = getelementptr inbounds { i8, i8 }, { i8, i8 }* %result, i32 0, i32 1
  store i8 %2, i8* %5, align 1
  %6 = bitcast { i8, i8 }* %result to i8*
  %7 = load i8, i8* %6, align 1, !range !2, !noundef !3
  %8 = trunc i8 %7 to i1
  %_3 = zext i1 %8 to i64
  switch i64 %_3, label %bb2 [
    i64 0, label %bb3
    i64 1, label %bb1
  ]

bb2:                                              ; preds = %start
  unreachable

bb3:                                              ; preds = %start
  %9 = getelementptr inbounds { i8, i8 }, { i8, i8 }* %result, i32 0, i32 1
  %10 = load i8, i8* %9, align 1, !range !2, !noundef !3
  %t = trunc i8 %10 to i1
  %11 = zext i1 %t to i8
  store i8 %11, i8* %_7, align 1
  %12 = load i8, i8* %_7, align 1, !range !2, !noundef !3
  %13 = trunc i8 %12 to i1
; call std::sync::mutex::MutexGuard<T>::new::{{closure}}
  %14 = call { i64*, i8 } @"_ZN3std4sync5mutex19MutexGuard$LT$T$GT$3new28_$u7b$$u7b$closure$u7d$$u7d$17hb1a257bc056d5e18E"(i64* align 8 %f, i1 zeroext %13)
  %_5.0 = extractvalue { i64*, i8 } %14, 0
  %15 = extractvalue { i64*, i8 } %14, 1
  %_5.1 = trunc i8 %15 to i1
  br label %bb4

bb1:                                              ; preds = %start
  %16 = getelementptr inbounds { i8, i8 }, { i8, i8 }* %result, i32 0, i32 1
  %17 = load i8, i8* %16, align 1, !range !2, !noundef !3
  %guard = trunc i8 %17 to i1
  %18 = zext i1 %guard to i8
  store i8 %18, i8* %_13, align 1
  %19 = load i8, i8* %_13, align 1, !range !2, !noundef !3
  %20 = trunc i8 %19 to i1
; call std::sync::mutex::MutexGuard<T>::new::{{closure}}
  %21 = call { i64*, i8 } @"_ZN3std4sync5mutex19MutexGuard$LT$T$GT$3new28_$u7b$$u7b$closure$u7d$$u7d$17hb1a257bc056d5e18E"(i64* align 8 %f, i1 zeroext %20)
  %_11.0 = extractvalue { i64*, i8 } %21, 0
  %22 = extractvalue { i64*, i8 } %21, 1
  %_11.1 = trunc i8 %22 to i1
  br label %bb5

bb5:                                              ; preds = %bb1
; call std::sync::poison::PoisonError<T>::new
  %23 = call { i64*, i8 } @"_ZN3std4sync6poison20PoisonError$LT$T$GT$3new17h1630830503b41435E"(i64* align 8 %_11.0, i1 zeroext %_11.1)
  %_10.0 = extractvalue { i64*, i8 } %23, 0
  %24 = extractvalue { i64*, i8 } %23, 1
  %_10.1 = trunc i8 %24 to i1
  br label %bb6

bb6:                                              ; preds = %bb5
  %25 = bitcast %"core::result::Result<std::sync::mutex::MutexGuard<alloc::vec::Vec<alloc::vec::Vec<_ProbeNode>>>, std::sync::poison::PoisonError<std::sync::mutex::MutexGuard<alloc::vec::Vec<alloc::vec::Vec<_ProbeNode>>>>>"* %0 to %"core::result::Result<std::sync::mutex::MutexGuard<alloc::vec::Vec<alloc::vec::Vec<_ProbeNode>>>, std::sync::poison::PoisonError<std::sync::mutex::MutexGuard<alloc::vec::Vec<alloc::vec::Vec<_ProbeNode>>>>>::Err"*
  %26 = getelementptr inbounds %"core::result::Result<std::sync::mutex::MutexGuard<alloc::vec::Vec<alloc::vec::Vec<_ProbeNode>>>, std::sync::poison::PoisonError<std::sync::mutex::MutexGuard<alloc::vec::Vec<alloc::vec::Vec<_ProbeNode>>>>>::Err", %"core::result::Result<std::sync::mutex::MutexGuard<alloc::vec::Vec<alloc::vec::Vec<_ProbeNode>>>, std::sync::poison::PoisonError<std::sync::mutex::MutexGuard<alloc::vec::Vec<alloc::vec::Vec<_ProbeNode>>>>>::Err"* %25, i32 0, i32 1
  %27 = getelementptr inbounds { i64*, i8 }, { i64*, i8 }* %26, i32 0, i32 0
  store i64* %_10.0, i64** %27, align 8
  %28 = getelementptr inbounds { i64*, i8 }, { i64*, i8 }* %26, i32 0, i32 1
  %29 = zext i1 %_10.1 to i8
  store i8 %29, i8* %28, align 8
  %30 = bitcast %"core::result::Result<std::sync::mutex::MutexGuard<alloc::vec::Vec<alloc::vec::Vec<_ProbeNode>>>, std::sync::poison::PoisonError<std::sync::mutex::MutexGuard<alloc::vec::Vec<alloc::vec::Vec<_ProbeNode>>>>>"* %0 to i64*
  store i64 1, i64* %30, align 8
  br label %bb7

bb7:                                              ; preds = %bb4, %bb6
  ret void

bb4:                                              ; preds = %bb3
  %31 = bitcast %"core::result::Result<std::sync::mutex::MutexGuard<alloc::vec::Vec<alloc::vec::Vec<_ProbeNode>>>, std::sync::poison::PoisonError<std::sync::mutex::MutexGuard<alloc::vec::Vec<alloc::vec::Vec<_ProbeNode>>>>>"* %0 to %"core::result::Result<std::sync::mutex::MutexGuard<alloc::vec::Vec<alloc::vec::Vec<_ProbeNode>>>, std::sync::poison::PoisonError<std::sync::mutex::MutexGuard<alloc::vec::Vec<alloc::vec::Vec<_ProbeNode>>>>>::Ok"*
  %32 = getelementptr inbounds %"core::result::Result<std::sync::mutex::MutexGuard<alloc::vec::Vec<alloc::vec::Vec<_ProbeNode>>>, std::sync::poison::PoisonError<std::sync::mutex::MutexGuard<alloc::vec::Vec<alloc::vec::Vec<_ProbeNode>>>>>::Ok", %"core::result::Result<std::sync::mutex::MutexGuard<alloc::vec::Vec<alloc::vec::Vec<_ProbeNode>>>, std::sync::poison::PoisonError<std::sync::mutex::MutexGuard<alloc::vec::Vec<alloc::vec::Vec<_ProbeNode>>>>>::Ok"* %31, i32 0, i32 1
  %33 = getelementptr inbounds { i64*, i8 }, { i64*, i8 }* %32, i32 0, i32 0
  store i64* %_5.0, i64** %33, align 8
  %34 = getelementptr inbounds { i64*, i8 }, { i64*, i8 }* %32, i32 0, i32 1
  %35 = zext i1 %_5.1 to i8
  store i8 %35, i8* %34, align 8
  %36 = bitcast %"core::result::Result<std::sync::mutex::MutexGuard<alloc::vec::Vec<alloc::vec::Vec<_ProbeNode>>>, std::sync::poison::PoisonError<std::sync::mutex::MutexGuard<alloc::vec::Vec<alloc::vec::Vec<_ProbeNode>>>>>"* %0 to i64*
  store i64 0, i64* %36, align 8
  br label %bb7
}

; std::sync::poison::map_result
; Function Attrs: nonlazybind uwtable
define void @_ZN3std4sync6poison10map_result17h5fe0112d0177ec68E(%"core::result::Result<std::sync::mutex::MutexGuard<std::fs::File>, std::sync::poison::PoisonError<std::sync::mutex::MutexGuard<std::fs::File>>>"* sret(%"core::result::Result<std::sync::mutex::MutexGuard<std::fs::File>, std::sync::poison::PoisonError<std::sync::mutex::MutexGuard<std::fs::File>>>") %0, i1 zeroext %1, i8 %2, i32* align 4 %f) unnamed_addr #1 {
start:
  %_13 = alloca i8, align 1
  %_7 = alloca i8, align 1
  %result = alloca { i8, i8 }, align 1
  %3 = getelementptr inbounds { i8, i8 }, { i8, i8 }* %result, i32 0, i32 0
  %4 = zext i1 %1 to i8
  store i8 %4, i8* %3, align 1
  %5 = getelementptr inbounds { i8, i8 }, { i8, i8 }* %result, i32 0, i32 1
  store i8 %2, i8* %5, align 1
  %6 = bitcast { i8, i8 }* %result to i8*
  %7 = load i8, i8* %6, align 1, !range !2, !noundef !3
  %8 = trunc i8 %7 to i1
  %_3 = zext i1 %8 to i64
  switch i64 %_3, label %bb2 [
    i64 0, label %bb3
    i64 1, label %bb1
  ]

bb2:                                              ; preds = %start
  unreachable

bb3:                                              ; preds = %start
  %9 = getelementptr inbounds { i8, i8 }, { i8, i8 }* %result, i32 0, i32 1
  %10 = load i8, i8* %9, align 1, !range !2, !noundef !3
  %t = trunc i8 %10 to i1
  %11 = zext i1 %t to i8
  store i8 %11, i8* %_7, align 1
  %12 = load i8, i8* %_7, align 1, !range !2, !noundef !3
  %13 = trunc i8 %12 to i1
; call std::sync::mutex::MutexGuard<T>::new::{{closure}}
  %14 = call { i32*, i8 } @"_ZN3std4sync5mutex19MutexGuard$LT$T$GT$3new28_$u7b$$u7b$closure$u7d$$u7d$17h1be5852950153506E"(i32* align 4 %f, i1 zeroext %13)
  %_5.0 = extractvalue { i32*, i8 } %14, 0
  %15 = extractvalue { i32*, i8 } %14, 1
  %_5.1 = trunc i8 %15 to i1
  br label %bb4

bb1:                                              ; preds = %start
  %16 = getelementptr inbounds { i8, i8 }, { i8, i8 }* %result, i32 0, i32 1
  %17 = load i8, i8* %16, align 1, !range !2, !noundef !3
  %guard = trunc i8 %17 to i1
  %18 = zext i1 %guard to i8
  store i8 %18, i8* %_13, align 1
  %19 = load i8, i8* %_13, align 1, !range !2, !noundef !3
  %20 = trunc i8 %19 to i1
; call std::sync::mutex::MutexGuard<T>::new::{{closure}}
  %21 = call { i32*, i8 } @"_ZN3std4sync5mutex19MutexGuard$LT$T$GT$3new28_$u7b$$u7b$closure$u7d$$u7d$17h1be5852950153506E"(i32* align 4 %f, i1 zeroext %20)
  %_11.0 = extractvalue { i32*, i8 } %21, 0
  %22 = extractvalue { i32*, i8 } %21, 1
  %_11.1 = trunc i8 %22 to i1
  br label %bb5

bb5:                                              ; preds = %bb1
; call std::sync::poison::PoisonError<T>::new
  %23 = call { i32*, i8 } @"_ZN3std4sync6poison20PoisonError$LT$T$GT$3new17hff50488340250dd5E"(i32* align 4 %_11.0, i1 zeroext %_11.1)
  %_10.0 = extractvalue { i32*, i8 } %23, 0
  %24 = extractvalue { i32*, i8 } %23, 1
  %_10.1 = trunc i8 %24 to i1
  br label %bb6

bb6:                                              ; preds = %bb5
  %25 = bitcast %"core::result::Result<std::sync::mutex::MutexGuard<std::fs::File>, std::sync::poison::PoisonError<std::sync::mutex::MutexGuard<std::fs::File>>>"* %0 to %"core::result::Result<std::sync::mutex::MutexGuard<std::fs::File>, std::sync::poison::PoisonError<std::sync::mutex::MutexGuard<std::fs::File>>>::Err"*
  %26 = getelementptr inbounds %"core::result::Result<std::sync::mutex::MutexGuard<std::fs::File>, std::sync::poison::PoisonError<std::sync::mutex::MutexGuard<std::fs::File>>>::Err", %"core::result::Result<std::sync::mutex::MutexGuard<std::fs::File>, std::sync::poison::PoisonError<std::sync::mutex::MutexGuard<std::fs::File>>>::Err"* %25, i32 0, i32 1
  %27 = getelementptr inbounds { i32*, i8 }, { i32*, i8 }* %26, i32 0, i32 0
  store i32* %_10.0, i32** %27, align 8
  %28 = getelementptr inbounds { i32*, i8 }, { i32*, i8 }* %26, i32 0, i32 1
  %29 = zext i1 %_10.1 to i8
  store i8 %29, i8* %28, align 8
  %30 = bitcast %"core::result::Result<std::sync::mutex::MutexGuard<std::fs::File>, std::sync::poison::PoisonError<std::sync::mutex::MutexGuard<std::fs::File>>>"* %0 to i64*
  store i64 1, i64* %30, align 8
  br label %bb7

bb7:                                              ; preds = %bb4, %bb6
  ret void

bb4:                                              ; preds = %bb3
  %31 = bitcast %"core::result::Result<std::sync::mutex::MutexGuard<std::fs::File>, std::sync::poison::PoisonError<std::sync::mutex::MutexGuard<std::fs::File>>>"* %0 to %"core::result::Result<std::sync::mutex::MutexGuard<std::fs::File>, std::sync::poison::PoisonError<std::sync::mutex::MutexGuard<std::fs::File>>>::Ok"*
  %32 = getelementptr inbounds %"core::result::Result<std::sync::mutex::MutexGuard<std::fs::File>, std::sync::poison::PoisonError<std::sync::mutex::MutexGuard<std::fs::File>>>::Ok", %"core::result::Result<std::sync::mutex::MutexGuard<std::fs::File>, std::sync::poison::PoisonError<std::sync::mutex::MutexGuard<std::fs::File>>>::Ok"* %31, i32 0, i32 1
  %33 = getelementptr inbounds { i32*, i8 }, { i32*, i8 }* %32, i32 0, i32 0
  store i32* %_5.0, i32** %33, align 8
  %34 = getelementptr inbounds { i32*, i8 }, { i32*, i8 }* %32, i32 0, i32 1
  %35 = zext i1 %_5.1 to i8
  store i8 %35, i8* %34, align 8
  %36 = bitcast %"core::result::Result<std::sync::mutex::MutexGuard<std::fs::File>, std::sync::poison::PoisonError<std::sync::mutex::MutexGuard<std::fs::File>>>"* %0 to i64*
  store i64 0, i64* %36, align 8
  br label %bb7
}

; std::sync::poison::PoisonError<T>::new
; Function Attrs: nonlazybind uwtable
define { i64*, i8 } @"_ZN3std4sync6poison20PoisonError$LT$T$GT$3new17h1630830503b41435E"(i64* align 8 %guard.0, i1 zeroext %guard.1) unnamed_addr #1 {
start:
  %0 = alloca { i64*, i8 }, align 8
  %1 = getelementptr inbounds { i64*, i8 }, { i64*, i8 }* %0, i32 0, i32 0
  store i64* %guard.0, i64** %1, align 8
  %2 = getelementptr inbounds { i64*, i8 }, { i64*, i8 }* %0, i32 0, i32 1
  %3 = zext i1 %guard.1 to i8
  store i8 %3, i8* %2, align 8
  %4 = getelementptr inbounds { i64*, i8 }, { i64*, i8 }* %0, i32 0, i32 0
  %5 = load i64*, i64** %4, align 8, !nonnull !3, !align !8, !noundef !3
  %6 = getelementptr inbounds { i64*, i8 }, { i64*, i8 }* %0, i32 0, i32 1
  %7 = load i8, i8* %6, align 8, !range !2, !noundef !3
  %8 = trunc i8 %7 to i1
  %9 = zext i1 %8 to i8
  %10 = insertvalue { i64*, i8 } undef, i64* %5, 0
  %11 = insertvalue { i64*, i8 } %10, i8 %9, 1
  ret { i64*, i8 } %11
}

; std::sync::poison::PoisonError<T>::new
; Function Attrs: nonlazybind uwtable
define zeroext i1 @"_ZN3std4sync6poison20PoisonError$LT$T$GT$3new17h217205d2212b9cd8E"(i1 zeroext %guard) unnamed_addr #1 {
start:
  %0 = alloca i8, align 1
  %1 = zext i1 %guard to i8
  store i8 %1, i8* %0, align 1
  %2 = load i8, i8* %0, align 1, !range !2, !noundef !3
  %3 = trunc i8 %2 to i1
  ret i1 %3
}

; std::sync::poison::PoisonError<T>::new
; Function Attrs: nonlazybind uwtable
define { i32*, i8 } @"_ZN3std4sync6poison20PoisonError$LT$T$GT$3new17hd9e21a00ac206dd8E"(i32* align 4 %guard.0, i1 zeroext %guard.1) unnamed_addr #1 {
start:
  %0 = alloca { i32*, i8 }, align 8
  %1 = getelementptr inbounds { i32*, i8 }, { i32*, i8 }* %0, i32 0, i32 0
  store i32* %guard.0, i32** %1, align 8
  %2 = getelementptr inbounds { i32*, i8 }, { i32*, i8 }* %0, i32 0, i32 1
  %3 = zext i1 %guard.1 to i8
  store i8 %3, i8* %2, align 8
  %4 = getelementptr inbounds { i32*, i8 }, { i32*, i8 }* %0, i32 0, i32 0
  %5 = load i32*, i32** %4, align 8, !nonnull !3, !align !13, !noundef !3
  %6 = getelementptr inbounds { i32*, i8 }, { i32*, i8 }* %0, i32 0, i32 1
  %7 = load i8, i8* %6, align 8, !range !2, !noundef !3
  %8 = trunc i8 %7 to i1
  %9 = zext i1 %8 to i8
  %10 = insertvalue { i32*, i8 } undef, i32* %5, 0
  %11 = insertvalue { i32*, i8 } %10, i8 %9, 1
  ret { i32*, i8 } %11
}

; std::sync::poison::PoisonError<T>::new
; Function Attrs: nonlazybind uwtable
define { i32*, i8 } @"_ZN3std4sync6poison20PoisonError$LT$T$GT$3new17hff50488340250dd5E"(i32* align 4 %guard.0, i1 zeroext %guard.1) unnamed_addr #1 {
start:
  %0 = alloca { i32*, i8 }, align 8
  %1 = getelementptr inbounds { i32*, i8 }, { i32*, i8 }* %0, i32 0, i32 0
  store i32* %guard.0, i32** %1, align 8
  %2 = getelementptr inbounds { i32*, i8 }, { i32*, i8 }* %0, i32 0, i32 1
  %3 = zext i1 %guard.1 to i8
  store i8 %3, i8* %2, align 8
  %4 = getelementptr inbounds { i32*, i8 }, { i32*, i8 }* %0, i32 0, i32 0
  %5 = load i32*, i32** %4, align 8, !nonnull !3, !align !13, !noundef !3
  %6 = getelementptr inbounds { i32*, i8 }, { i32*, i8 }* %0, i32 0, i32 1
  %7 = load i8, i8* %6, align 8, !range !2, !noundef !3
  %8 = trunc i8 %7 to i1
  %9 = zext i1 %8 to i8
  %10 = insertvalue { i32*, i8 } undef, i32* %5, 0
  %11 = insertvalue { i32*, i8 } %10, i8 %9, 1
  ret { i32*, i8 } %11
}

; std::sync::poison::Flag::get
; Function Attrs: inlinehint nonlazybind uwtable
define internal zeroext i1 @_ZN3std4sync6poison4Flag3get17h32b8bf3c4104a38bE(%"std::sync::poison::Flag"* align 1 %self) unnamed_addr #0 {
start:
  %_3 = alloca i8, align 1
  %_2 = bitcast %"std::sync::poison::Flag"* %self to %"core::sync::atomic::AtomicBool"*
  store i8 0, i8* %_3, align 1
  %0 = load i8, i8* %_3, align 1, !range !12, !noundef !3
; call core::sync::atomic::AtomicBool::load
  %1 = call zeroext i1 @_ZN4core4sync6atomic10AtomicBool4load17h8eae756223149182E(%"core::sync::atomic::AtomicBool"* align 1 %_2, i8 %0)
  br label %bb1

bb1:                                              ; preds = %start
  ret i1 %1
}

; std::sync::poison::Flag::new
; Function Attrs: inlinehint nonlazybind uwtable
define internal i8 @_ZN3std4sync6poison4Flag3new17h0a63b6ad95bf565eE() unnamed_addr #0 {
start:
  %0 = alloca i8, align 1
  %_1 = alloca %"core::sync::atomic::AtomicBool", align 1
  %1 = alloca %"std::sync::poison::Flag", align 1
; call core::sync::atomic::AtomicBool::new
  %2 = call i8 @_ZN4core4sync6atomic10AtomicBool3new17h5d50cce8b9091b9aE(i1 zeroext false)
  store i8 %2, i8* %0, align 1
  %3 = bitcast %"core::sync::atomic::AtomicBool"* %_1 to i8*
  call void @llvm.memcpy.p0i8.p0i8.i64(i8* align 1 %3, i8* align 1 %0, i64 1, i1 false)
  br label %bb1

bb1:                                              ; preds = %start
  %4 = bitcast %"std::sync::poison::Flag"* %1 to %"core::sync::atomic::AtomicBool"*
  %5 = bitcast %"core::sync::atomic::AtomicBool"* %4 to i8*
  %6 = bitcast %"core::sync::atomic::AtomicBool"* %_1 to i8*
  call void @llvm.memcpy.p0i8.p0i8.i64(i8* align 1 %5, i8* align 1 %6, i64 1, i1 false)
  %7 = bitcast %"std::sync::poison::Flag"* %1 to i8*
  %8 = load i8, i8* %7, align 1
  ret i8 %8
}

; std::sync::poison::Flag::done
; Function Attrs: inlinehint nonlazybind uwtable
define internal void @_ZN3std4sync6poison4Flag4done17h46dcba1c0700218dE(%"std::sync::poison::Flag"* align 1 %self, i8* align 1 %guard) unnamed_addr #0 {
start:
  %_9 = alloca i8, align 1
  %_3 = alloca i8, align 1
  %0 = load i8, i8* %guard, align 1, !range !2, !noundef !3
  %_5 = trunc i8 %0 to i1
  %_4 = xor i1 %_5, true
  br i1 %_4, label %bb2, label %bb1

bb1:                                              ; preds = %start
  store i8 0, i8* %_3, align 1
  br label %bb3

bb2:                                              ; preds = %start
; call std::thread::panicking
  %_6 = call zeroext i1 @_ZN3std6thread9panicking17h2074bddaa1d59810E()
  br label %bb4

bb4:                                              ; preds = %bb2
  %1 = zext i1 %_6 to i8
  store i8 %1, i8* %_3, align 1
  br label %bb3

bb3:                                              ; preds = %bb1, %bb4
  %2 = load i8, i8* %_3, align 1, !range !2, !noundef !3
  %3 = trunc i8 %2 to i1
  br i1 %3, label %bb5, label %bb7

bb7:                                              ; preds = %bb6, %bb3
  ret void

bb5:                                              ; preds = %bb3
  %_8 = bitcast %"std::sync::poison::Flag"* %self to %"core::sync::atomic::AtomicBool"*
  store i8 0, i8* %_9, align 1
  %4 = load i8, i8* %_9, align 1, !range !12, !noundef !3
; call core::sync::atomic::AtomicBool::store
  call void @_ZN4core4sync6atomic10AtomicBool5store17hfcd593176a579d4fE(%"core::sync::atomic::AtomicBool"* align 1 %_8, i1 zeroext true, i8 %4)
  br label %bb6

bb6:                                              ; preds = %bb5
  br label %bb7
}

; std::sync::poison::Flag::guard
; Function Attrs: inlinehint nonlazybind uwtable
define internal { i8, i8 } @_ZN3std4sync6poison4Flag5guard17h1b82bfe732d0aa0dE(%"std::sync::poison::Flag"* align 1 %self) unnamed_addr #0 {
start:
  %ret = alloca i8, align 1
  %0 = alloca { i8, i8 }, align 1
; call std::thread::panicking
  %_3 = call zeroext i1 @_ZN3std6thread9panicking17h2074bddaa1d59810E()
  br label %bb1

bb1:                                              ; preds = %start
  %1 = zext i1 %_3 to i8
  store i8 %1, i8* %ret, align 1
; call std::sync::poison::Flag::get
  %_4 = call zeroext i1 @_ZN3std4sync6poison4Flag3get17h32b8bf3c4104a38bE(%"std::sync::poison::Flag"* align 1 %self)
  br label %bb2

bb2:                                              ; preds = %bb1
  br i1 %_4, label %bb3, label %bb5

bb5:                                              ; preds = %bb2
  %2 = load i8, i8* %ret, align 1, !range !2, !noundef !3
  %_8 = trunc i8 %2 to i1
  %3 = getelementptr inbounds { i8, i8 }, { i8, i8 }* %0, i32 0, i32 1
  %4 = zext i1 %_8 to i8
  store i8 %4, i8* %3, align 1
  %5 = bitcast { i8, i8 }* %0 to i8*
  store i8 0, i8* %5, align 1
  br label %bb6

bb3:                                              ; preds = %bb2
  %6 = load i8, i8* %ret, align 1, !range !2, !noundef !3
  %_7 = trunc i8 %6 to i1
; call std::sync::poison::PoisonError<T>::new
  %_6 = call zeroext i1 @"_ZN3std4sync6poison20PoisonError$LT$T$GT$3new17h217205d2212b9cd8E"(i1 zeroext %_7)
  br label %bb4

bb4:                                              ; preds = %bb3
  %7 = getelementptr inbounds { i8, i8 }, { i8, i8 }* %0, i32 0, i32 1
  %8 = zext i1 %_6 to i8
  store i8 %8, i8* %7, align 1
  %9 = bitcast { i8, i8 }* %0 to i8*
  store i8 1, i8* %9, align 1
  br label %bb6

bb6:                                              ; preds = %bb5, %bb4
  %10 = getelementptr inbounds { i8, i8 }, { i8, i8 }* %0, i32 0, i32 0
  %11 = load i8, i8* %10, align 1, !range !2, !noundef !3
  %12 = trunc i8 %11 to i1
  %13 = getelementptr inbounds { i8, i8 }, { i8, i8 }* %0, i32 0, i32 1
  %14 = load i8, i8* %13, align 1
  %15 = zext i1 %12 to i8
  %16 = insertvalue { i8, i8 } undef, i8 %15, 0
  %17 = insertvalue { i8, i8 } %16, i8 %14, 1
  ret { i8, i8 } %17
}

; std::sync::condvar::Condvar::new
; Function Attrs: inlinehint nonlazybind uwtable
define internal i32 @_ZN3std4sync7condvar7Condvar3new17hc4a1ce7986357493E() unnamed_addr #0 {
start:
  %0 = alloca i32, align 4
  %_1 = alloca %"std::sys_common::condvar::Condvar", align 4
  %1 = alloca %"std::sync::condvar::Condvar", align 4
; call std::sys_common::condvar::Condvar::new
  %2 = call i32 @_ZN3std10sys_common7condvar7Condvar3new17hdd14ed96d39e2418E()
  store i32 %2, i32* %0, align 4
  %3 = bitcast %"std::sys_common::condvar::Condvar"* %_1 to i8*
  %4 = bitcast i32* %0 to i8*
  call void @llvm.memcpy.p0i8.p0i8.i64(i8* align 4 %3, i8* align 4 %4, i64 4, i1 false)
  br label %bb1

bb1:                                              ; preds = %start
  %5 = bitcast %"std::sync::condvar::Condvar"* %1 to %"std::sys_common::condvar::Condvar"*
  %6 = bitcast %"std::sys_common::condvar::Condvar"* %5 to i8*
  %7 = bitcast %"std::sys_common::condvar::Condvar"* %_1 to i8*
  call void @llvm.memcpy.p0i8.p0i8.i64(i8* align 4 %6, i8* align 4 %7, i64 4, i1 false)
  %8 = bitcast %"std::sync::condvar::Condvar"* %1 to i32*
  %9 = load i32, i32* %8, align 4
  ret i32 %9
}

; std::sync::condvar::Condvar::wait
; Function Attrs: nonlazybind uwtable
define void @_ZN3std4sync7condvar7Condvar4wait17h58f6201f6e3c46b8E(%"core::result::Result<std::sync::mutex::MutexGuard<i32>, std::sync::poison::PoisonError<std::sync::mutex::MutexGuard<i32>>>"* sret(%"core::result::Result<std::sync::mutex::MutexGuard<i32>, std::sync::poison::PoisonError<std::sync::mutex::MutexGuard<i32>>>") %0, %"std::sync::condvar::Condvar"* align 4 %self, i32* align 4 %1, i1 zeroext %2) unnamed_addr #1 personality i32 (i32, i32, i64, %"unwind::libunwind::_Unwind_Exception"*, %"unwind::libunwind::_Unwind_Context"*)* @rust_eh_personality {
start:
  %3 = alloca { i8*, i32 }, align 8
  %_18 = alloca i8, align 1
  %guard = alloca { i32*, i8 }, align 8
  %4 = getelementptr inbounds { i32*, i8 }, { i32*, i8 }* %guard, i32 0, i32 0
  store i32* %1, i32** %4, align 8
  %5 = getelementptr inbounds { i32*, i8 }, { i32*, i8 }* %guard, i32 0, i32 1
  %6 = zext i1 %2 to i8
  store i8 %6, i8* %5, align 8
  store i8 1, i8* %_18, align 1
; invoke std::sync::mutex::guard_lock
  %lock = invoke align 4 %"std::sys_common::mutex::MovableMutex"* @_ZN3std4sync5mutex10guard_lock17hbc2b1c5ee0782ecaE({ i32*, i8 }* align 8 %guard)
          to label %bb1 unwind label %cleanup

bb11:                                             ; preds = %cleanup
  %7 = load i8, i8* %_18, align 1, !range !2, !noundef !3
  %8 = trunc i8 %7 to i1
  br i1 %8, label %bb10, label %bb9

cleanup:                                          ; preds = %bb5, %bb3, %bb2, %bb1, %start
  %9 = landingpad { i8*, i32 }
          cleanup
  %10 = extractvalue { i8*, i32 } %9, 0
  %11 = extractvalue { i8*, i32 } %9, 1
  %12 = getelementptr inbounds { i8*, i32 }, { i8*, i32 }* %3, i32 0, i32 0
  store i8* %10, i8** %12, align 8
  %13 = getelementptr inbounds { i8*, i32 }, { i8*, i32 }* %3, i32 0, i32 1
  store i32 %11, i32* %13, align 8
  br label %bb11

bb1:                                              ; preds = %start
  %_8 = bitcast %"std::sync::condvar::Condvar"* %self to %"std::sys_common::condvar::Condvar"*
; invoke std::sys_common::condvar::Condvar::wait
  invoke void @_ZN3std10sys_common7condvar7Condvar4wait17h01b385252ace90c6E(%"std::sys_common::condvar::Condvar"* align 4 %_8, %"std::sys_common::mutex::MovableMutex"* align 4 %lock)
          to label %bb2 unwind label %cleanup

bb2:                                              ; preds = %bb1
; invoke std::sync::mutex::guard_poison
  %_11 = invoke align 1 %"std::sync::poison::Flag"* @_ZN3std4sync5mutex12guard_poison17h2c0cff045a9eff05E({ i32*, i8 }* align 8 %guard)
          to label %bb3 unwind label %cleanup

bb3:                                              ; preds = %bb2
; invoke std::sync::poison::Flag::get
  %poisoned = invoke zeroext i1 @_ZN3std4sync6poison4Flag3get17h32b8bf3c4104a38bE(%"std::sync::poison::Flag"* align 1 %_11)
          to label %bb4 unwind label %cleanup

bb4:                                              ; preds = %bb3
  br i1 %poisoned, label %bb5, label %bb7

bb7:                                              ; preds = %bb4
  %14 = getelementptr inbounds { i32*, i8 }, { i32*, i8 }* %guard, i32 0, i32 0
  %_17.0 = load i32*, i32** %14, align 8, !nonnull !3, !align !13, !noundef !3
  %15 = getelementptr inbounds { i32*, i8 }, { i32*, i8 }* %guard, i32 0, i32 1
  %16 = load i8, i8* %15, align 8, !range !2, !noundef !3
  %_17.1 = trunc i8 %16 to i1
  %17 = bitcast %"core::result::Result<std::sync::mutex::MutexGuard<i32>, std::sync::poison::PoisonError<std::sync::mutex::MutexGuard<i32>>>"* %0 to %"core::result::Result<std::sync::mutex::MutexGuard<i32>, std::sync::poison::PoisonError<std::sync::mutex::MutexGuard<i32>>>::Ok"*
  %18 = getelementptr inbounds %"core::result::Result<std::sync::mutex::MutexGuard<i32>, std::sync::poison::PoisonError<std::sync::mutex::MutexGuard<i32>>>::Ok", %"core::result::Result<std::sync::mutex::MutexGuard<i32>, std::sync::poison::PoisonError<std::sync::mutex::MutexGuard<i32>>>::Ok"* %17, i32 0, i32 1
  %19 = getelementptr inbounds { i32*, i8 }, { i32*, i8 }* %18, i32 0, i32 0
  store i32* %_17.0, i32** %19, align 8
  %20 = getelementptr inbounds { i32*, i8 }, { i32*, i8 }* %18, i32 0, i32 1
  %21 = zext i1 %_17.1 to i8
  store i8 %21, i8* %20, align 8
  %22 = bitcast %"core::result::Result<std::sync::mutex::MutexGuard<i32>, std::sync::poison::PoisonError<std::sync::mutex::MutexGuard<i32>>>"* %0 to i64*
  store i64 0, i64* %22, align 8
  br label %bb8

bb5:                                              ; preds = %bb4
  store i8 0, i8* %_18, align 1
  %23 = getelementptr inbounds { i32*, i8 }, { i32*, i8 }* %guard, i32 0, i32 0
  %_16.0 = load i32*, i32** %23, align 8, !nonnull !3, !align !13, !noundef !3
  %24 = getelementptr inbounds { i32*, i8 }, { i32*, i8 }* %guard, i32 0, i32 1
  %25 = load i8, i8* %24, align 8, !range !2, !noundef !3
  %_16.1 = trunc i8 %25 to i1
; invoke std::sync::poison::PoisonError<T>::new
  %26 = invoke { i32*, i8 } @"_ZN3std4sync6poison20PoisonError$LT$T$GT$3new17hd9e21a00ac206dd8E"(i32* align 4 %_16.0, i1 zeroext %_16.1)
          to label %bb6 unwind label %cleanup

bb6:                                              ; preds = %bb5
  %_15.0 = extractvalue { i32*, i8 } %26, 0
  %27 = extractvalue { i32*, i8 } %26, 1
  %_15.1 = trunc i8 %27 to i1
  %28 = bitcast %"core::result::Result<std::sync::mutex::MutexGuard<i32>, std::sync::poison::PoisonError<std::sync::mutex::MutexGuard<i32>>>"* %0 to %"core::result::Result<std::sync::mutex::MutexGuard<i32>, std::sync::poison::PoisonError<std::sync::mutex::MutexGuard<i32>>>::Err"*
  %29 = getelementptr inbounds %"core::result::Result<std::sync::mutex::MutexGuard<i32>, std::sync::poison::PoisonError<std::sync::mutex::MutexGuard<i32>>>::Err", %"core::result::Result<std::sync::mutex::MutexGuard<i32>, std::sync::poison::PoisonError<std::sync::mutex::MutexGuard<i32>>>::Err"* %28, i32 0, i32 1
  %30 = getelementptr inbounds { i32*, i8 }, { i32*, i8 }* %29, i32 0, i32 0
  store i32* %_15.0, i32** %30, align 8
  %31 = getelementptr inbounds { i32*, i8 }, { i32*, i8 }* %29, i32 0, i32 1
  %32 = zext i1 %_15.1 to i8
  store i8 %32, i8* %31, align 8
  %33 = bitcast %"core::result::Result<std::sync::mutex::MutexGuard<i32>, std::sync::poison::PoisonError<std::sync::mutex::MutexGuard<i32>>>"* %0 to i64*
  store i64 1, i64* %33, align 8
  br label %bb8

bb9:                                              ; preds = %bb10, %bb11
  %34 = bitcast { i8*, i32 }* %3 to i8**
  %35 = load i8*, i8** %34, align 8
  %36 = getelementptr inbounds { i8*, i32 }, { i8*, i32 }* %3, i32 0, i32 1
  %37 = load i32, i32* %36, align 8
  %38 = insertvalue { i8*, i32 } undef, i8* %35, 0
  %39 = insertvalue { i8*, i32 } %38, i32 %37, 1
  resume { i8*, i32 } %39

bb10:                                             ; preds = %bb11
; invoke core::ptr::drop_in_place<std::sync::mutex::MutexGuard<i32>>
  invoke void @"_ZN4core3ptr60drop_in_place$LT$std..sync..mutex..MutexGuard$LT$i32$GT$$GT$17h474c10dddfe9366aE"({ i32*, i8 }* %guard) #17
          to label %bb9 unwind label %abort

abort:                                            ; preds = %bb10
  %40 = landingpad { i8*, i32 }
          cleanup
; call core::panicking::panic_no_unwind
  call void @_ZN4core9panicking15panic_no_unwind17h25931e178d980d9cE() #18
  unreachable

bb8:                                              ; preds = %bb7, %bb6
  ret void
}

; std::thread::local::LocalKey<T>::with
; Function Attrs: nonlazybind uwtable
define void @"_ZN3std6thread5local17LocalKey$LT$T$GT$4with17h071f1d2e6692564dE"(i64** align 8 %self, %"[closure@./probe_RSE.rs:141:34: 144:18]"* %f) unnamed_addr #1 {
start:
  %_5 = alloca %"[closure@./probe_RSE.rs:141:34: 144:18]", align 8
  %0 = bitcast %"[closure@./probe_RSE.rs:141:34: 144:18]"* %_5 to i8*
  %1 = bitcast %"[closure@./probe_RSE.rs:141:34: 144:18]"* %f to i8*
  call void @llvm.memcpy.p0i8.p0i8.i64(i8* align 8 %0, i8* align 8 %1, i64 24, i1 false)
; call std::thread::local::LocalKey<T>::try_with
  %_3 = call zeroext i1 @"_ZN3std6thread5local17LocalKey$LT$T$GT$8try_with17ha42f41e08da46c68E"(i64** align 8 %self, %"[closure@./probe_RSE.rs:141:34: 144:18]"* %_5)
  br label %bb1

bb1:                                              ; preds = %start
; call core::result::Result<T,E>::expect
  call void @"_ZN4core6result19Result$LT$T$C$E$GT$6expect17h9df7766df9cb2ea7E"(i1 zeroext %_3, [0 x i8]* align 1 bitcast (<{ [70 x i8] }>* @alloc672 to [0 x i8]*), i64 70, %"core::panic::location::Location"* align 8 bitcast (<{ i8*, [16 x i8] }>* @alloc661 to %"core::panic::location::Location"*))
  br label %bb2

bb2:                                              ; preds = %bb1
  ret void
}

; std::thread::local::LocalKey<T>::with
; Function Attrs: nonlazybind uwtable
define void @"_ZN3std6thread5local17LocalKey$LT$T$GT$4with17h14e14c20e2c776faE"(i64** align 8 %self, i64* align 8 %f.0, i32* align 4 %f.1) unnamed_addr #1 {
start:
; call std::thread::local::LocalKey<T>::try_with
  %_3 = call zeroext i1 @"_ZN3std6thread5local17LocalKey$LT$T$GT$8try_with17hfdea2e1f6be24d06E"(i64** align 8 %self, i64* align 8 %f.0, i32* align 4 %f.1)
  br label %bb1

bb1:                                              ; preds = %start
; call core::result::Result<T,E>::expect
